

Microchip Technology PIC LITE Macro Assembler V2.00 build -1524193055 
                                                                                               Sat May 09 20:20:30 2020

Microchip Technology Omniscient Code Generator v2.00 (Free mode) build 20180527130849
     1  0000                     
      + 0000                     
     2                           ; Version 2.00
     3                           ; Generated 27/05/2018 GMT
     4                           
     5                           ; 
     6                           ; Copyright © 2018, Microchip Technology Inc. and its subsidiaries ("Microchip")
     7                           ; All rights reserved.
     8                           ; 
     9                           ; This software is developed by Microchip Technology Inc. and its subsidiaries ("Microch
                                 ip").
    10                           ; 
    11                           ; Redistribution and use in source and binary forms, with or without modification, are
    12                           ; permitted provided that the following conditions are met:
    13                           ; 
    14                           ;     1. Redistributions of source code must retain the above copyright notice, this lis
                                 t of
    15                           ;        conditions and the following disclaimer.
    16                           ; 
    17                           ;     2. Redistributions in binary form must reproduce the above copyright notice, this 
                                 list
    18                           ;        of conditions and the following disclaimer in the documentation and/or other
    19                           ;        materials provided with the distribution.
    20                           ; 
    21                           ;     3. Microchip's name may not be used to endorse or promote products derived from th
                                 is
    22                           ;        software without specific prior written permission.
    23                           ; 
    24                           ; THIS SOFTWARE IS PROVIDED BY MICROCHIP "AS IS" AND ANY EXPRESS OR IMPLIED WARRANTIES,

    25                           ; INCLUDING, BUT NOT LIMITED TO, THE IMPLIED WARRANTIES OF MERCHANTABILITY AND FITNESS F
                                 OR
    26                           ; PURPOSE ARE DISCLAIMED.  IN NO EVENT SHALL MICROCHIP BE LIABLE FOR ANY DIRECT, INDIREC
                                 T,
    27                           ; INCIDENTAL, SPECIAL, EXEMPLARY, OR CONSEQUENTIAL DAMAGES (INCLUDING BUT NOT LIMITED TO
                                 
    28                           ; PROCUREMENT OF SUBSTITUTE GOODS OR SERVICES; LOSS OF USE, DATA OR PROFITS; OR BUSINESS
                                 
    29                           ; INTERRUPTION) HOWSOEVER CAUSED AND ON ANY THEORY OF LIABILITY, WHETHER IN CONTRACT, ST
                                 RICT
    30                           ; LIABILITY, OR TORT (INCLUDING NEGLIGENCE OR OTHERWISE) ARISING IN ANY WAY OUT OF THE U
                                 SE OF
    31                           ; THIS SOFTWARE, EVEN IF ADVISED OF THE POSSIBILITY OF SUCH DAMAGE.
    32                           ; 
    33                           
    34                           
    35                           ; 
    36                           ; Code-generator required, PIC16F887 Definitions
    37                           ; 
    38  0004                     fsr0 equ 04h
    39  0004                     indf equ 00h
    40  0000                     indf0 equ 00h
    41  0000                     pc equ 02h
    42  0002                     pcl equ 02h
    43  0002                     pclath equ 0Ah
    44  000A                     status equ 03h
    45  0003                     
     2                           opt pagewidth 120
     3  0000                     byte0	macro	val
     4                           	(getbyte(val,0))
     5                           endm
     6  0000                     byte1	macro	val
     7                           	(getbyte(val,1))
     8                           endm
     9  0000                     byte2	macro	val
    10                           	(getbyte(val,2))
    11                           endm
    12  0000                     byte3	macro	val
    13                           	(getbyte(val,3))
    14                           endm
    15  0000                     byte4	macro	val
    16                           	(getbyte(val,4))
    17                           endm
    18  0000                     byte5	macro	val
    19                           	(getbyte(val,5))
    20                           endm
    21  0000                     byte6	macro	val
    22                           	(getbyte(val,6))
    23                           endm
    24  0000                     byte7	macro	val
    25                           	(getbyte(val,7))
    26                           endm
    27  0000                     getword	macro	val,pos
    28                           	(((val) >> (8 * pos)) and 0xffff)
    29                           endm
    30  0000                     word0	macro	val
    31                           	(getword(val,0))
    32                           endm
    33  0000                     word1	macro	val
    34                           	(getword(val,2))
    35                           endm
    36  0000                     word2	macro	val
    37                           	(getword(val,4))
    38                           endm
    39  0000                     word3	macro	val
    40                           	(getword(val,6))
    41                           endm
    42  0000                     gettword	macro	val,pos
    43                           	(((val) >> (8 * pos)) and 0xffffff)
    44                           endm
    45  0000                     tword0	macro	val
    46                           	(gettword(val,0))
    47                           endm
    48  0000                     tword1	macro	val
    49                           	(gettword(val,3))
    50                           endm
    51  0000                     tword2	macro	val
    52                           	(gettword(val,6))
    53                           endm
    54  0000                     getdword	macro	val,pos
    55                           	(((val) >> (8 * pos)) and 0xffffffff)
    56                           endm
    57  0000                     dword0	macro	val
    58                           	(getdword(val,0))
    59                           endm
    60  0000                     dword1	macro	val
    61                           	(getdword(val,4))
    62                           endm
    63  0000                     clrc	macro
    64                           	bcf	3,0
    65                           	endm
    66  0000                     clrz	macro
    67                           	bcf	3,2
    68                           	endm
    69  0000                     setc	macro
    70                           	bsf	3,0
    71                           	endm
    72  0000                     setz	macro
    73                           	bsf	3,2
    74                           	endm
    75  0000                     skipc	macro
    76                           	btfss	3,0
    77                           	endm
    78  0000                     skipz	macro
    79                           	btfss	3,2
    80                           	endm
    81  0000                     skipnc	macro
    82                           	btfsc	3,0
    83                           	endm
    84  0000                     skipnz	macro
    85                           	btfsc	3,2
    86                           	endm
    87  0000                     # 54 "C:\Program Files (x86)\Microchip\xc8\v2.00\pic\include\pic16f887.h"
    88                           INDF equ 00h ;# 
    89  0000                     # 61 "C:\Program Files (x86)\Microchip\xc8\v2.00\pic\include\pic16f887.h"
    90                           TMR0 equ 01h ;# 
    91  0001                     # 68 "C:\Program Files (x86)\Microchip\xc8\v2.00\pic\include\pic16f887.h"
    92                           PCL equ 02h ;# 
    93  0002                     # 75 "C:\Program Files (x86)\Microchip\xc8\v2.00\pic\include\pic16f887.h"
    94                           STATUS equ 03h ;# 
    95  0003                     # 161 "C:\Program Files (x86)\Microchip\xc8\v2.00\pic\include\pic16f887.h"
    96                           FSR equ 04h ;# 
    97  0004                     # 168 "C:\Program Files (x86)\Microchip\xc8\v2.00\pic\include\pic16f887.h"
    98                           PORTA equ 05h ;# 
    99  0005                     # 230 "C:\Program Files (x86)\Microchip\xc8\v2.00\pic\include\pic16f887.h"
   100                           PORTB equ 06h ;# 
   101  0006                     # 292 "C:\Program Files (x86)\Microchip\xc8\v2.00\pic\include\pic16f887.h"
   102                           PORTC equ 07h ;# 
   103  0007                     # 354 "C:\Program Files (x86)\Microchip\xc8\v2.00\pic\include\pic16f887.h"
   104                           PORTD equ 08h ;# 
   105  0008                     # 416 "C:\Program Files (x86)\Microchip\xc8\v2.00\pic\include\pic16f887.h"
   106                           PORTE equ 09h ;# 
   107  0009                     # 454 "C:\Program Files (x86)\Microchip\xc8\v2.00\pic\include\pic16f887.h"
   108                           PCLATH equ 0Ah ;# 
   109  000A                     # 461 "C:\Program Files (x86)\Microchip\xc8\v2.00\pic\include\pic16f887.h"
   110                           INTCON equ 0Bh ;# 
   111  000B                     # 539 "C:\Program Files (x86)\Microchip\xc8\v2.00\pic\include\pic16f887.h"
   112                           PIR1 equ 0Ch ;# 
   113  000C                     # 595 "C:\Program Files (x86)\Microchip\xc8\v2.00\pic\include\pic16f887.h"
   114                           PIR2 equ 0Dh ;# 
   115  000D                     # 652 "C:\Program Files (x86)\Microchip\xc8\v2.00\pic\include\pic16f887.h"
   116                           TMR1 equ 0Eh ;# 
   117  000E                     # 659 "C:\Program Files (x86)\Microchip\xc8\v2.00\pic\include\pic16f887.h"
   118                           TMR1L equ 0Eh ;# 
   119  000E                     # 666 "C:\Program Files (x86)\Microchip\xc8\v2.00\pic\include\pic16f887.h"
   120                           TMR1H equ 0Fh ;# 
   121  000F                     # 673 "C:\Program Files (x86)\Microchip\xc8\v2.00\pic\include\pic16f887.h"
   122                           T1CON equ 010h ;# 
   123  0010                     # 767 "C:\Program Files (x86)\Microchip\xc8\v2.00\pic\include\pic16f887.h"
   124                           TMR2 equ 011h ;# 
   125  0011                     # 774 "C:\Program Files (x86)\Microchip\xc8\v2.00\pic\include\pic16f887.h"
   126                           T2CON equ 012h ;# 
   127  0012                     # 845 "C:\Program Files (x86)\Microchip\xc8\v2.00\pic\include\pic16f887.h"
   128                           SSPBUF equ 013h ;# 
   129  0013                     # 852 "C:\Program Files (x86)\Microchip\xc8\v2.00\pic\include\pic16f887.h"
   130                           SSPCON equ 014h ;# 
   131  0014                     # 922 "C:\Program Files (x86)\Microchip\xc8\v2.00\pic\include\pic16f887.h"
   132                           CCPR1 equ 015h ;# 
   133  0015                     # 929 "C:\Program Files (x86)\Microchip\xc8\v2.00\pic\include\pic16f887.h"
   134                           CCPR1L equ 015h ;# 
   135  0015                     # 936 "C:\Program Files (x86)\Microchip\xc8\v2.00\pic\include\pic16f887.h"
   136                           CCPR1H equ 016h ;# 
   137  0016                     # 943 "C:\Program Files (x86)\Microchip\xc8\v2.00\pic\include\pic16f887.h"
   138                           CCP1CON equ 017h ;# 
   139  0017                     # 1040 "C:\Program Files (x86)\Microchip\xc8\v2.00\pic\include\pic16f887.h"
   140                           RCSTA equ 018h ;# 
   141  0018                     # 1135 "C:\Program Files (x86)\Microchip\xc8\v2.00\pic\include\pic16f887.h"
   142                           TXREG equ 019h ;# 
   143  0019                     # 1142 "C:\Program Files (x86)\Microchip\xc8\v2.00\pic\include\pic16f887.h"
   144                           RCREG equ 01Ah ;# 
   145  001A                     # 1149 "C:\Program Files (x86)\Microchip\xc8\v2.00\pic\include\pic16f887.h"
   146                           CCPR2 equ 01Bh ;# 
   147  001B                     # 1156 "C:\Program Files (x86)\Microchip\xc8\v2.00\pic\include\pic16f887.h"
   148                           CCPR2L equ 01Bh ;# 
   149  001B                     # 1163 "C:\Program Files (x86)\Microchip\xc8\v2.00\pic\include\pic16f887.h"
   150                           CCPR2H equ 01Ch ;# 
   151  001C                     # 1170 "C:\Program Files (x86)\Microchip\xc8\v2.00\pic\include\pic16f887.h"
   152                           CCP2CON equ 01Dh ;# 
   153  001D                     # 1240 "C:\Program Files (x86)\Microchip\xc8\v2.00\pic\include\pic16f887.h"
   154                           ADRESH equ 01Eh ;# 
   155  001E                     # 1247 "C:\Program Files (x86)\Microchip\xc8\v2.00\pic\include\pic16f887.h"
   156                           ADCON0 equ 01Fh ;# 
   157  001F                     # 1348 "C:\Program Files (x86)\Microchip\xc8\v2.00\pic\include\pic16f887.h"
   158                           OPTION_REG equ 081h ;# 
   159  0081                     # 1418 "C:\Program Files (x86)\Microchip\xc8\v2.00\pic\include\pic16f887.h"
   160                           TRISA equ 085h ;# 
   161  0085                     # 1480 "C:\Program Files (x86)\Microchip\xc8\v2.00\pic\include\pic16f887.h"
   162                           TRISB equ 086h ;# 
   163  0086                     # 1542 "C:\Program Files (x86)\Microchip\xc8\v2.00\pic\include\pic16f887.h"
   164                           TRISC equ 087h ;# 
   165  0087                     # 1604 "C:\Program Files (x86)\Microchip\xc8\v2.00\pic\include\pic16f887.h"
   166                           TRISD equ 088h ;# 
   167  0088                     # 1666 "C:\Program Files (x86)\Microchip\xc8\v2.00\pic\include\pic16f887.h"
   168                           TRISE equ 089h ;# 
   169  0089                     # 1704 "C:\Program Files (x86)\Microchip\xc8\v2.00\pic\include\pic16f887.h"
   170                           PIE1 equ 08Ch ;# 
   171  008C                     # 1760 "C:\Program Files (x86)\Microchip\xc8\v2.00\pic\include\pic16f887.h"
   172                           PIE2 equ 08Dh ;# 
   173  008D                     # 1817 "C:\Program Files (x86)\Microchip\xc8\v2.00\pic\include\pic16f887.h"
   174                           PCON equ 08Eh ;# 
   175  008E                     # 1864 "C:\Program Files (x86)\Microchip\xc8\v2.00\pic\include\pic16f887.h"
   176                           OSCCON equ 08Fh ;# 
   177  008F                     # 1929 "C:\Program Files (x86)\Microchip\xc8\v2.00\pic\include\pic16f887.h"
   178                           OSCTUNE equ 090h ;# 
   179  0090                     # 1981 "C:\Program Files (x86)\Microchip\xc8\v2.00\pic\include\pic16f887.h"
   180                           SSPCON2 equ 091h ;# 
   181  0091                     # 2043 "C:\Program Files (x86)\Microchip\xc8\v2.00\pic\include\pic16f887.h"
   182                           PR2 equ 092h ;# 
   183  0092                     # 2050 "C:\Program Files (x86)\Microchip\xc8\v2.00\pic\include\pic16f887.h"
   184                           SSPADD equ 093h ;# 
   185  0093                     # 2057 "C:\Program Files (x86)\Microchip\xc8\v2.00\pic\include\pic16f887.h"
   186                           SSPMSK equ 093h ;# 
   187  0093                     # 2062 "C:\Program Files (x86)\Microchip\xc8\v2.00\pic\include\pic16f887.h"
   188                           MSK equ 093h ;# 
   189  0093                     # 2179 "C:\Program Files (x86)\Microchip\xc8\v2.00\pic\include\pic16f887.h"
   190                           SSPSTAT equ 094h ;# 
   191  0094                     # 2348 "C:\Program Files (x86)\Microchip\xc8\v2.00\pic\include\pic16f887.h"
   192                           WPUB equ 095h ;# 
   193  0095                     # 2418 "C:\Program Files (x86)\Microchip\xc8\v2.00\pic\include\pic16f887.h"
   194                           IOCB equ 096h ;# 
   195  0096                     # 2488 "C:\Program Files (x86)\Microchip\xc8\v2.00\pic\include\pic16f887.h"
   196                           VRCON equ 097h ;# 
   197  0097                     # 2558 "C:\Program Files (x86)\Microchip\xc8\v2.00\pic\include\pic16f887.h"
   198                           TXSTA equ 098h ;# 
   199  0098                     # 2644 "C:\Program Files (x86)\Microchip\xc8\v2.00\pic\include\pic16f887.h"
   200                           SPBRG equ 099h ;# 
   201  0099                     # 2706 "C:\Program Files (x86)\Microchip\xc8\v2.00\pic\include\pic16f887.h"
   202                           SPBRGH equ 09Ah ;# 
   203  009A                     # 2776 "C:\Program Files (x86)\Microchip\xc8\v2.00\pic\include\pic16f887.h"
   204                           PWM1CON equ 09Bh ;# 
   205  009B                     # 2846 "C:\Program Files (x86)\Microchip\xc8\v2.00\pic\include\pic16f887.h"
   206                           ECCPAS equ 09Ch ;# 
   207  009C                     # 2928 "C:\Program Files (x86)\Microchip\xc8\v2.00\pic\include\pic16f887.h"
   208                           PSTRCON equ 09Dh ;# 
   209  009D                     # 2972 "C:\Program Files (x86)\Microchip\xc8\v2.00\pic\include\pic16f887.h"
   210                           ADRESL equ 09Eh ;# 
   211  009E                     # 2979 "C:\Program Files (x86)\Microchip\xc8\v2.00\pic\include\pic16f887.h"
   212                           ADCON1 equ 09Fh ;# 
   213  009F                     # 3013 "C:\Program Files (x86)\Microchip\xc8\v2.00\pic\include\pic16f887.h"
   214                           WDTCON equ 0105h ;# 
   215  0105                     # 3066 "C:\Program Files (x86)\Microchip\xc8\v2.00\pic\include\pic16f887.h"
   216                           CM1CON0 equ 0107h ;# 
   217  0107                     # 3131 "C:\Program Files (x86)\Microchip\xc8\v2.00\pic\include\pic16f887.h"
   218                           CM2CON0 equ 0108h ;# 
   219  0108                     # 3196 "C:\Program Files (x86)\Microchip\xc8\v2.00\pic\include\pic16f887.h"
   220                           CM2CON1 equ 0109h ;# 
   221  0109                     # 3247 "C:\Program Files (x86)\Microchip\xc8\v2.00\pic\include\pic16f887.h"
   222                           EEDATA equ 010Ch ;# 
   223  010C                     # 3252 "C:\Program Files (x86)\Microchip\xc8\v2.00\pic\include\pic16f887.h"
   224                           EEDAT equ 010Ch ;# 
   225  010C                     # 3259 "C:\Program Files (x86)\Microchip\xc8\v2.00\pic\include\pic16f887.h"
   226                           EEADR equ 010Dh ;# 
   227  010D                     # 3266 "C:\Program Files (x86)\Microchip\xc8\v2.00\pic\include\pic16f887.h"
   228                           EEDATH equ 010Eh ;# 
   229  010E                     # 3273 "C:\Program Files (x86)\Microchip\xc8\v2.00\pic\include\pic16f887.h"
   230                           EEADRH equ 010Fh ;# 
   231  010F                     # 3280 "C:\Program Files (x86)\Microchip\xc8\v2.00\pic\include\pic16f887.h"
   232                           SRCON equ 0185h ;# 
   233  0185                     # 3337 "C:\Program Files (x86)\Microchip\xc8\v2.00\pic\include\pic16f887.h"
   234                           BAUDCTL equ 0187h ;# 
   235  0187                     # 3389 "C:\Program Files (x86)\Microchip\xc8\v2.00\pic\include\pic16f887.h"
   236                           ANSEL equ 0188h ;# 
   237  0188                     # 3451 "C:\Program Files (x86)\Microchip\xc8\v2.00\pic\include\pic16f887.h"
   238                           ANSELH equ 0189h ;# 
   239  0189                     # 3501 "C:\Program Files (x86)\Microchip\xc8\v2.00\pic\include\pic16f887.h"
   240                           EECON1 equ 018Ch ;# 
   241  018C                     # 3546 "C:\Program Files (x86)\Microchip\xc8\v2.00\pic\include\pic16f887.h"
   242                           EECON2 equ 018Dh ;# 
   243  018D                     # 54 "C:\Program Files (x86)\Microchip\xc8\v2.00\pic\include\pic16f887.h"
   244                           INDF equ 00h ;# 
   245  0000                     # 61 "C:\Program Files (x86)\Microchip\xc8\v2.00\pic\include\pic16f887.h"
   246                           TMR0 equ 01h ;# 
   247  0001                     # 68 "C:\Program Files (x86)\Microchip\xc8\v2.00\pic\include\pic16f887.h"
   248                           PCL equ 02h ;# 
   249  0002                     # 75 "C:\Program Files (x86)\Microchip\xc8\v2.00\pic\include\pic16f887.h"
   250                           STATUS equ 03h ;# 
   251  0003                     # 161 "C:\Program Files (x86)\Microchip\xc8\v2.00\pic\include\pic16f887.h"
   252                           FSR equ 04h ;# 
   253  0004                     # 168 "C:\Program Files (x86)\Microchip\xc8\v2.00\pic\include\pic16f887.h"
   254                           PORTA equ 05h ;# 
   255  0005                     # 230 "C:\Program Files (x86)\Microchip\xc8\v2.00\pic\include\pic16f887.h"
   256                           PORTB equ 06h ;# 
   257  0006                     # 292 "C:\Program Files (x86)\Microchip\xc8\v2.00\pic\include\pic16f887.h"
   258                           PORTC equ 07h ;# 
   259  0007                     # 354 "C:\Program Files (x86)\Microchip\xc8\v2.00\pic\include\pic16f887.h"
   260                           PORTD equ 08h ;# 
   261  0008                     # 416 "C:\Program Files (x86)\Microchip\xc8\v2.00\pic\include\pic16f887.h"
   262                           PORTE equ 09h ;# 
   263  0009                     # 454 "C:\Program Files (x86)\Microchip\xc8\v2.00\pic\include\pic16f887.h"
   264                           PCLATH equ 0Ah ;# 
   265  000A                     # 461 "C:\Program Files (x86)\Microchip\xc8\v2.00\pic\include\pic16f887.h"
   266                           INTCON equ 0Bh ;# 
   267  000B                     # 539 "C:\Program Files (x86)\Microchip\xc8\v2.00\pic\include\pic16f887.h"
   268                           PIR1 equ 0Ch ;# 
   269  000C                     # 595 "C:\Program Files (x86)\Microchip\xc8\v2.00\pic\include\pic16f887.h"
   270                           PIR2 equ 0Dh ;# 
   271  000D                     # 652 "C:\Program Files (x86)\Microchip\xc8\v2.00\pic\include\pic16f887.h"
   272                           TMR1 equ 0Eh ;# 
   273  000E                     # 659 "C:\Program Files (x86)\Microchip\xc8\v2.00\pic\include\pic16f887.h"
   274                           TMR1L equ 0Eh ;# 
   275  000E                     # 666 "C:\Program Files (x86)\Microchip\xc8\v2.00\pic\include\pic16f887.h"
   276                           TMR1H equ 0Fh ;# 
   277  000F                     # 673 "C:\Program Files (x86)\Microchip\xc8\v2.00\pic\include\pic16f887.h"
   278                           T1CON equ 010h ;# 
   279  0010                     # 767 "C:\Program Files (x86)\Microchip\xc8\v2.00\pic\include\pic16f887.h"
   280                           TMR2 equ 011h ;# 
   281  0011                     # 774 "C:\Program Files (x86)\Microchip\xc8\v2.00\pic\include\pic16f887.h"
   282                           T2CON equ 012h ;# 
   283  0012                     # 845 "C:\Program Files (x86)\Microchip\xc8\v2.00\pic\include\pic16f887.h"
   284                           SSPBUF equ 013h ;# 
   285  0013                     # 852 "C:\Program Files (x86)\Microchip\xc8\v2.00\pic\include\pic16f887.h"
   286                           SSPCON equ 014h ;# 
   287  0014                     # 922 "C:\Program Files (x86)\Microchip\xc8\v2.00\pic\include\pic16f887.h"
   288                           CCPR1 equ 015h ;# 
   289  0015                     # 929 "C:\Program Files (x86)\Microchip\xc8\v2.00\pic\include\pic16f887.h"
   290                           CCPR1L equ 015h ;# 
   291  0015                     # 936 "C:\Program Files (x86)\Microchip\xc8\v2.00\pic\include\pic16f887.h"
   292                           CCPR1H equ 016h ;# 
   293  0016                     # 943 "C:\Program Files (x86)\Microchip\xc8\v2.00\pic\include\pic16f887.h"
   294                           CCP1CON equ 017h ;# 
   295  0017                     # 1040 "C:\Program Files (x86)\Microchip\xc8\v2.00\pic\include\pic16f887.h"
   296                           RCSTA equ 018h ;# 
   297  0018                     # 1135 "C:\Program Files (x86)\Microchip\xc8\v2.00\pic\include\pic16f887.h"
   298                           TXREG equ 019h ;# 
   299  0019                     # 1142 "C:\Program Files (x86)\Microchip\xc8\v2.00\pic\include\pic16f887.h"
   300                           RCREG equ 01Ah ;# 
   301  001A                     # 1149 "C:\Program Files (x86)\Microchip\xc8\v2.00\pic\include\pic16f887.h"
   302                           CCPR2 equ 01Bh ;# 
   303  001B                     # 1156 "C:\Program Files (x86)\Microchip\xc8\v2.00\pic\include\pic16f887.h"
   304                           CCPR2L equ 01Bh ;# 
   305  001B                     # 1163 "C:\Program Files (x86)\Microchip\xc8\v2.00\pic\include\pic16f887.h"
   306                           CCPR2H equ 01Ch ;# 
   307  001C                     # 1170 "C:\Program Files (x86)\Microchip\xc8\v2.00\pic\include\pic16f887.h"
   308                           CCP2CON equ 01Dh ;# 
   309  001D                     # 1240 "C:\Program Files (x86)\Microchip\xc8\v2.00\pic\include\pic16f887.h"
   310                           ADRESH equ 01Eh ;# 
   311  001E                     # 1247 "C:\Program Files (x86)\Microchip\xc8\v2.00\pic\include\pic16f887.h"
   312                           ADCON0 equ 01Fh ;# 
   313  001F                     # 1348 "C:\Program Files (x86)\Microchip\xc8\v2.00\pic\include\pic16f887.h"
   314                           OPTION_REG equ 081h ;# 
   315  0081                     # 1418 "C:\Program Files (x86)\Microchip\xc8\v2.00\pic\include\pic16f887.h"
   316                           TRISA equ 085h ;# 
   317  0085                     # 1480 "C:\Program Files (x86)\Microchip\xc8\v2.00\pic\include\pic16f887.h"
   318                           TRISB equ 086h ;# 
   319  0086                     # 1542 "C:\Program Files (x86)\Microchip\xc8\v2.00\pic\include\pic16f887.h"
   320                           TRISC equ 087h ;# 
   321  0087                     # 1604 "C:\Program Files (x86)\Microchip\xc8\v2.00\pic\include\pic16f887.h"
   322                           TRISD equ 088h ;# 
   323  0088                     # 1666 "C:\Program Files (x86)\Microchip\xc8\v2.00\pic\include\pic16f887.h"
   324                           TRISE equ 089h ;# 
   325  0089                     # 1704 "C:\Program Files (x86)\Microchip\xc8\v2.00\pic\include\pic16f887.h"
   326                           PIE1 equ 08Ch ;# 
   327  008C                     # 1760 "C:\Program Files (x86)\Microchip\xc8\v2.00\pic\include\pic16f887.h"
   328                           PIE2 equ 08Dh ;# 
   329  008D                     # 1817 "C:\Program Files (x86)\Microchip\xc8\v2.00\pic\include\pic16f887.h"
   330                           PCON equ 08Eh ;# 
   331  008E                     # 1864 "C:\Program Files (x86)\Microchip\xc8\v2.00\pic\include\pic16f887.h"
   332                           OSCCON equ 08Fh ;# 
   333  008F                     # 1929 "C:\Program Files (x86)\Microchip\xc8\v2.00\pic\include\pic16f887.h"
   334                           OSCTUNE equ 090h ;# 
   335  0090                     # 1981 "C:\Program Files (x86)\Microchip\xc8\v2.00\pic\include\pic16f887.h"
   336                           SSPCON2 equ 091h ;# 
   337  0091                     # 2043 "C:\Program Files (x86)\Microchip\xc8\v2.00\pic\include\pic16f887.h"
   338                           PR2 equ 092h ;# 
   339  0092                     # 2050 "C:\Program Files (x86)\Microchip\xc8\v2.00\pic\include\pic16f887.h"
   340                           SSPADD equ 093h ;# 
   341  0093                     # 2057 "C:\Program Files (x86)\Microchip\xc8\v2.00\pic\include\pic16f887.h"
   342                           SSPMSK equ 093h ;# 
   343  0093                     # 2062 "C:\Program Files (x86)\Microchip\xc8\v2.00\pic\include\pic16f887.h"
   344                           MSK equ 093h ;# 
   345  0093                     # 2179 "C:\Program Files (x86)\Microchip\xc8\v2.00\pic\include\pic16f887.h"
   346                           SSPSTAT equ 094h ;# 
   347  0094                     # 2348 "C:\Program Files (x86)\Microchip\xc8\v2.00\pic\include\pic16f887.h"
   348                           WPUB equ 095h ;# 
   349  0095                     # 2418 "C:\Program Files (x86)\Microchip\xc8\v2.00\pic\include\pic16f887.h"
   350                           IOCB equ 096h ;# 
   351  0096                     # 2488 "C:\Program Files (x86)\Microchip\xc8\v2.00\pic\include\pic16f887.h"
   352                           VRCON equ 097h ;# 
   353  0097                     # 2558 "C:\Program Files (x86)\Microchip\xc8\v2.00\pic\include\pic16f887.h"
   354                           TXSTA equ 098h ;# 
   355  0098                     # 2644 "C:\Program Files (x86)\Microchip\xc8\v2.00\pic\include\pic16f887.h"
   356                           SPBRG equ 099h ;# 
   357  0099                     # 2706 "C:\Program Files (x86)\Microchip\xc8\v2.00\pic\include\pic16f887.h"
   358                           SPBRGH equ 09Ah ;# 
   359  009A                     # 2776 "C:\Program Files (x86)\Microchip\xc8\v2.00\pic\include\pic16f887.h"
   360                           PWM1CON equ 09Bh ;# 
   361  009B                     # 2846 "C:\Program Files (x86)\Microchip\xc8\v2.00\pic\include\pic16f887.h"
   362                           ECCPAS equ 09Ch ;# 
   363  009C                     # 2928 "C:\Program Files (x86)\Microchip\xc8\v2.00\pic\include\pic16f887.h"
   364                           PSTRCON equ 09Dh ;# 
   365  009D                     # 2972 "C:\Program Files (x86)\Microchip\xc8\v2.00\pic\include\pic16f887.h"
   366                           ADRESL equ 09Eh ;# 
   367  009E                     # 2979 "C:\Program Files (x86)\Microchip\xc8\v2.00\pic\include\pic16f887.h"
   368                           ADCON1 equ 09Fh ;# 
   369  009F                     # 3013 "C:\Program Files (x86)\Microchip\xc8\v2.00\pic\include\pic16f887.h"
   370                           WDTCON equ 0105h ;# 
   371  0105                     # 3066 "C:\Program Files (x86)\Microchip\xc8\v2.00\pic\include\pic16f887.h"
   372                           CM1CON0 equ 0107h ;# 
   373  0107                     # 3131 "C:\Program Files (x86)\Microchip\xc8\v2.00\pic\include\pic16f887.h"
   374                           CM2CON0 equ 0108h ;# 
   375  0108                     # 3196 "C:\Program Files (x86)\Microchip\xc8\v2.00\pic\include\pic16f887.h"
   376                           CM2CON1 equ 0109h ;# 
   377  0109                     # 3247 "C:\Program Files (x86)\Microchip\xc8\v2.00\pic\include\pic16f887.h"
   378                           EEDATA equ 010Ch ;# 
   379  010C                     # 3252 "C:\Program Files (x86)\Microchip\xc8\v2.00\pic\include\pic16f887.h"
   380                           EEDAT equ 010Ch ;# 
   381  010C                     # 3259 "C:\Program Files (x86)\Microchip\xc8\v2.00\pic\include\pic16f887.h"
   382                           EEADR equ 010Dh ;# 
   383  010D                     # 3266 "C:\Program Files (x86)\Microchip\xc8\v2.00\pic\include\pic16f887.h"
   384                           EEDATH equ 010Eh ;# 
   385  010E                     # 3273 "C:\Program Files (x86)\Microchip\xc8\v2.00\pic\include\pic16f887.h"
   386                           EEADRH equ 010Fh ;# 
   387  010F                     # 3280 "C:\Program Files (x86)\Microchip\xc8\v2.00\pic\include\pic16f887.h"
   388                           SRCON equ 0185h ;# 
   389  0185                     # 3337 "C:\Program Files (x86)\Microchip\xc8\v2.00\pic\include\pic16f887.h"
   390                           BAUDCTL equ 0187h ;# 
   391  0187                     # 3389 "C:\Program Files (x86)\Microchip\xc8\v2.00\pic\include\pic16f887.h"
   392                           ANSEL equ 0188h ;# 
   393  0188                     # 3451 "C:\Program Files (x86)\Microchip\xc8\v2.00\pic\include\pic16f887.h"
   394                           ANSELH equ 0189h ;# 
   395  0189                     # 3501 "C:\Program Files (x86)\Microchip\xc8\v2.00\pic\include\pic16f887.h"
   396                           EECON1 equ 018Ch ;# 
   397  018C                     # 3546 "C:\Program Files (x86)\Microchip\xc8\v2.00\pic\include\pic16f887.h"
   398                           EECON2 equ 018Dh ;# 
   399  018D                     # 54 "C:\Program Files (x86)\Microchip\xc8\v2.00\pic\include\pic16f887.h"
   400                           INDF equ 00h ;# 
   401  0000                     # 61 "C:\Program Files (x86)\Microchip\xc8\v2.00\pic\include\pic16f887.h"
   402                           TMR0 equ 01h ;# 
   403  0001                     # 68 "C:\Program Files (x86)\Microchip\xc8\v2.00\pic\include\pic16f887.h"
   404                           PCL equ 02h ;# 
   405  0002                     # 75 "C:\Program Files (x86)\Microchip\xc8\v2.00\pic\include\pic16f887.h"
   406                           STATUS equ 03h ;# 
   407  0003                     # 161 "C:\Program Files (x86)\Microchip\xc8\v2.00\pic\include\pic16f887.h"
   408                           FSR equ 04h ;# 
   409  0004                     # 168 "C:\Program Files (x86)\Microchip\xc8\v2.00\pic\include\pic16f887.h"
   410                           PORTA equ 05h ;# 
   411  0005                     # 230 "C:\Program Files (x86)\Microchip\xc8\v2.00\pic\include\pic16f887.h"
   412                           PORTB equ 06h ;# 
   413  0006                     # 292 "C:\Program Files (x86)\Microchip\xc8\v2.00\pic\include\pic16f887.h"
   414                           PORTC equ 07h ;# 
   415  0007                     # 354 "C:\Program Files (x86)\Microchip\xc8\v2.00\pic\include\pic16f887.h"
   416                           PORTD equ 08h ;# 
   417  0008                     # 416 "C:\Program Files (x86)\Microchip\xc8\v2.00\pic\include\pic16f887.h"
   418                           PORTE equ 09h ;# 
   419  0009                     # 454 "C:\Program Files (x86)\Microchip\xc8\v2.00\pic\include\pic16f887.h"
   420                           PCLATH equ 0Ah ;# 
   421  000A                     # 461 "C:\Program Files (x86)\Microchip\xc8\v2.00\pic\include\pic16f887.h"
   422                           INTCON equ 0Bh ;# 
   423  000B                     # 539 "C:\Program Files (x86)\Microchip\xc8\v2.00\pic\include\pic16f887.h"
   424                           PIR1 equ 0Ch ;# 
   425  000C                     # 595 "C:\Program Files (x86)\Microchip\xc8\v2.00\pic\include\pic16f887.h"
   426                           PIR2 equ 0Dh ;# 
   427  000D                     # 652 "C:\Program Files (x86)\Microchip\xc8\v2.00\pic\include\pic16f887.h"
   428                           TMR1 equ 0Eh ;# 
   429  000E                     # 659 "C:\Program Files (x86)\Microchip\xc8\v2.00\pic\include\pic16f887.h"
   430                           TMR1L equ 0Eh ;# 
   431  000E                     # 666 "C:\Program Files (x86)\Microchip\xc8\v2.00\pic\include\pic16f887.h"
   432                           TMR1H equ 0Fh ;# 
   433  000F                     # 673 "C:\Program Files (x86)\Microchip\xc8\v2.00\pic\include\pic16f887.h"
   434                           T1CON equ 010h ;# 
   435  0010                     # 767 "C:\Program Files (x86)\Microchip\xc8\v2.00\pic\include\pic16f887.h"
   436                           TMR2 equ 011h ;# 
   437  0011                     # 774 "C:\Program Files (x86)\Microchip\xc8\v2.00\pic\include\pic16f887.h"
   438                           T2CON equ 012h ;# 
   439  0012                     # 845 "C:\Program Files (x86)\Microchip\xc8\v2.00\pic\include\pic16f887.h"
   440                           SSPBUF equ 013h ;# 
   441  0013                     # 852 "C:\Program Files (x86)\Microchip\xc8\v2.00\pic\include\pic16f887.h"
   442                           SSPCON equ 014h ;# 
   443  0014                     # 922 "C:\Program Files (x86)\Microchip\xc8\v2.00\pic\include\pic16f887.h"
   444                           CCPR1 equ 015h ;# 
   445  0015                     # 929 "C:\Program Files (x86)\Microchip\xc8\v2.00\pic\include\pic16f887.h"
   446                           CCPR1L equ 015h ;# 
   447  0015                     # 936 "C:\Program Files (x86)\Microchip\xc8\v2.00\pic\include\pic16f887.h"
   448                           CCPR1H equ 016h ;# 
   449  0016                     # 943 "C:\Program Files (x86)\Microchip\xc8\v2.00\pic\include\pic16f887.h"
   450                           CCP1CON equ 017h ;# 
   451  0017                     # 1040 "C:\Program Files (x86)\Microchip\xc8\v2.00\pic\include\pic16f887.h"
   452                           RCSTA equ 018h ;# 
   453  0018                     # 1135 "C:\Program Files (x86)\Microchip\xc8\v2.00\pic\include\pic16f887.h"
   454                           TXREG equ 019h ;# 
   455  0019                     # 1142 "C:\Program Files (x86)\Microchip\xc8\v2.00\pic\include\pic16f887.h"
   456                           RCREG equ 01Ah ;# 
   457  001A                     # 1149 "C:\Program Files (x86)\Microchip\xc8\v2.00\pic\include\pic16f887.h"
   458                           CCPR2 equ 01Bh ;# 
   459  001B                     # 1156 "C:\Program Files (x86)\Microchip\xc8\v2.00\pic\include\pic16f887.h"
   460                           CCPR2L equ 01Bh ;# 
   461  001B                     # 1163 "C:\Program Files (x86)\Microchip\xc8\v2.00\pic\include\pic16f887.h"
   462                           CCPR2H equ 01Ch ;# 
   463  001C                     # 1170 "C:\Program Files (x86)\Microchip\xc8\v2.00\pic\include\pic16f887.h"
   464                           CCP2CON equ 01Dh ;# 
   465  001D                     # 1240 "C:\Program Files (x86)\Microchip\xc8\v2.00\pic\include\pic16f887.h"
   466                           ADRESH equ 01Eh ;# 
   467  001E                     # 1247 "C:\Program Files (x86)\Microchip\xc8\v2.00\pic\include\pic16f887.h"
   468                           ADCON0 equ 01Fh ;# 
   469  001F                     # 1348 "C:\Program Files (x86)\Microchip\xc8\v2.00\pic\include\pic16f887.h"
   470                           OPTION_REG equ 081h ;# 
   471  0081                     # 1418 "C:\Program Files (x86)\Microchip\xc8\v2.00\pic\include\pic16f887.h"
   472                           TRISA equ 085h ;# 
   473  0085                     # 1480 "C:\Program Files (x86)\Microchip\xc8\v2.00\pic\include\pic16f887.h"
   474                           TRISB equ 086h ;# 
   475  0086                     # 1542 "C:\Program Files (x86)\Microchip\xc8\v2.00\pic\include\pic16f887.h"
   476                           TRISC equ 087h ;# 
   477  0087                     # 1604 "C:\Program Files (x86)\Microchip\xc8\v2.00\pic\include\pic16f887.h"
   478                           TRISD equ 088h ;# 
   479  0088                     # 1666 "C:\Program Files (x86)\Microchip\xc8\v2.00\pic\include\pic16f887.h"
   480                           TRISE equ 089h ;# 
   481  0089                     # 1704 "C:\Program Files (x86)\Microchip\xc8\v2.00\pic\include\pic16f887.h"
   482                           PIE1 equ 08Ch ;# 
   483  008C                     # 1760 "C:\Program Files (x86)\Microchip\xc8\v2.00\pic\include\pic16f887.h"
   484                           PIE2 equ 08Dh ;# 
   485  008D                     # 1817 "C:\Program Files (x86)\Microchip\xc8\v2.00\pic\include\pic16f887.h"
   486                           PCON equ 08Eh ;# 
   487  008E                     # 1864 "C:\Program Files (x86)\Microchip\xc8\v2.00\pic\include\pic16f887.h"
   488                           OSCCON equ 08Fh ;# 
   489  008F                     # 1929 "C:\Program Files (x86)\Microchip\xc8\v2.00\pic\include\pic16f887.h"
   490                           OSCTUNE equ 090h ;# 
   491  0090                     # 1981 "C:\Program Files (x86)\Microchip\xc8\v2.00\pic\include\pic16f887.h"
   492                           SSPCON2 equ 091h ;# 
   493  0091                     # 2043 "C:\Program Files (x86)\Microchip\xc8\v2.00\pic\include\pic16f887.h"
   494                           PR2 equ 092h ;# 
   495  0092                     # 2050 "C:\Program Files (x86)\Microchip\xc8\v2.00\pic\include\pic16f887.h"
   496                           SSPADD equ 093h ;# 
   497  0093                     # 2057 "C:\Program Files (x86)\Microchip\xc8\v2.00\pic\include\pic16f887.h"
   498                           SSPMSK equ 093h ;# 
   499  0093                     # 2062 "C:\Program Files (x86)\Microchip\xc8\v2.00\pic\include\pic16f887.h"
   500                           MSK equ 093h ;# 
   501  0093                     # 2179 "C:\Program Files (x86)\Microchip\xc8\v2.00\pic\include\pic16f887.h"
   502                           SSPSTAT equ 094h ;# 
   503  0094                     # 2348 "C:\Program Files (x86)\Microchip\xc8\v2.00\pic\include\pic16f887.h"
   504                           WPUB equ 095h ;# 
   505  0095                     # 2418 "C:\Program Files (x86)\Microchip\xc8\v2.00\pic\include\pic16f887.h"
   506                           IOCB equ 096h ;# 
   507  0096                     # 2488 "C:\Program Files (x86)\Microchip\xc8\v2.00\pic\include\pic16f887.h"
   508                           VRCON equ 097h ;# 
   509  0097                     # 2558 "C:\Program Files (x86)\Microchip\xc8\v2.00\pic\include\pic16f887.h"
   510                           TXSTA equ 098h ;# 
   511  0098                     # 2644 "C:\Program Files (x86)\Microchip\xc8\v2.00\pic\include\pic16f887.h"
   512                           SPBRG equ 099h ;# 
   513  0099                     # 2706 "C:\Program Files (x86)\Microchip\xc8\v2.00\pic\include\pic16f887.h"
   514                           SPBRGH equ 09Ah ;# 
   515  009A                     # 2776 "C:\Program Files (x86)\Microchip\xc8\v2.00\pic\include\pic16f887.h"
   516                           PWM1CON equ 09Bh ;# 
   517  009B                     # 2846 "C:\Program Files (x86)\Microchip\xc8\v2.00\pic\include\pic16f887.h"
   518                           ECCPAS equ 09Ch ;# 
   519  009C                     # 2928 "C:\Program Files (x86)\Microchip\xc8\v2.00\pic\include\pic16f887.h"
   520                           PSTRCON equ 09Dh ;# 
   521  009D                     # 2972 "C:\Program Files (x86)\Microchip\xc8\v2.00\pic\include\pic16f887.h"
   522                           ADRESL equ 09Eh ;# 
   523  009E                     # 2979 "C:\Program Files (x86)\Microchip\xc8\v2.00\pic\include\pic16f887.h"
   524                           ADCON1 equ 09Fh ;# 
   525  009F                     # 3013 "C:\Program Files (x86)\Microchip\xc8\v2.00\pic\include\pic16f887.h"
   526                           WDTCON equ 0105h ;# 
   527  0105                     # 3066 "C:\Program Files (x86)\Microchip\xc8\v2.00\pic\include\pic16f887.h"
   528                           CM1CON0 equ 0107h ;# 
   529  0107                     # 3131 "C:\Program Files (x86)\Microchip\xc8\v2.00\pic\include\pic16f887.h"
   530                           CM2CON0 equ 0108h ;# 
   531  0108                     # 3196 "C:\Program Files (x86)\Microchip\xc8\v2.00\pic\include\pic16f887.h"
   532                           CM2CON1 equ 0109h ;# 
   533  0109                     # 3247 "C:\Program Files (x86)\Microchip\xc8\v2.00\pic\include\pic16f887.h"
   534                           EEDATA equ 010Ch ;# 
   535  010C                     # 3252 "C:\Program Files (x86)\Microchip\xc8\v2.00\pic\include\pic16f887.h"
   536                           EEDAT equ 010Ch ;# 
   537  010C                     # 3259 "C:\Program Files (x86)\Microchip\xc8\v2.00\pic\include\pic16f887.h"
   538                           EEADR equ 010Dh ;# 
   539  010D                     # 3266 "C:\Program Files (x86)\Microchip\xc8\v2.00\pic\include\pic16f887.h"
   540                           EEDATH equ 010Eh ;# 
   541  010E                     # 3273 "C:\Program Files (x86)\Microchip\xc8\v2.00\pic\include\pic16f887.h"
   542                           EEADRH equ 010Fh ;# 
   543  010F                     # 3280 "C:\Program Files (x86)\Microchip\xc8\v2.00\pic\include\pic16f887.h"
   544                           SRCON equ 0185h ;# 
   545  0185                     # 3337 "C:\Program Files (x86)\Microchip\xc8\v2.00\pic\include\pic16f887.h"
   546                           BAUDCTL equ 0187h ;# 
   547  0187                     # 3389 "C:\Program Files (x86)\Microchip\xc8\v2.00\pic\include\pic16f887.h"
   548                           ANSEL equ 0188h ;# 
   549  0188                     # 3451 "C:\Program Files (x86)\Microchip\xc8\v2.00\pic\include\pic16f887.h"
   550                           ANSELH equ 0189h ;# 
   551  0189                     # 3501 "C:\Program Files (x86)\Microchip\xc8\v2.00\pic\include\pic16f887.h"
   552                           EECON1 equ 018Ch ;# 
   553  018C                     # 3546 "C:\Program Files (x86)\Microchip\xc8\v2.00\pic\include\pic16f887.h"
   554                           EECON2 equ 018Dh ;# 
   555  018D                     # 54 "C:\Program Files (x86)\Microchip\xc8\v2.00\pic\include\pic16f887.h"
   556                           INDF equ 00h ;# 
   557  0000                     # 61 "C:\Program Files (x86)\Microchip\xc8\v2.00\pic\include\pic16f887.h"
   558                           TMR0 equ 01h ;# 
   559  0001                     # 68 "C:\Program Files (x86)\Microchip\xc8\v2.00\pic\include\pic16f887.h"
   560                           PCL equ 02h ;# 
   561  0002                     # 75 "C:\Program Files (x86)\Microchip\xc8\v2.00\pic\include\pic16f887.h"
   562                           STATUS equ 03h ;# 
   563  0003                     # 161 "C:\Program Files (x86)\Microchip\xc8\v2.00\pic\include\pic16f887.h"
   564                           FSR equ 04h ;# 
   565  0004                     # 168 "C:\Program Files (x86)\Microchip\xc8\v2.00\pic\include\pic16f887.h"
   566                           PORTA equ 05h ;# 
   567  0005                     # 230 "C:\Program Files (x86)\Microchip\xc8\v2.00\pic\include\pic16f887.h"
   568                           PORTB equ 06h ;# 
   569  0006                     # 292 "C:\Program Files (x86)\Microchip\xc8\v2.00\pic\include\pic16f887.h"
   570                           PORTC equ 07h ;# 
   571  0007                     # 354 "C:\Program Files (x86)\Microchip\xc8\v2.00\pic\include\pic16f887.h"
   572                           PORTD equ 08h ;# 
   573  0008                     # 416 "C:\Program Files (x86)\Microchip\xc8\v2.00\pic\include\pic16f887.h"
   574                           PORTE equ 09h ;# 
   575  0009                     # 454 "C:\Program Files (x86)\Microchip\xc8\v2.00\pic\include\pic16f887.h"
   576                           PCLATH equ 0Ah ;# 
   577  000A                     # 461 "C:\Program Files (x86)\Microchip\xc8\v2.00\pic\include\pic16f887.h"
   578                           INTCON equ 0Bh ;# 
   579  000B                     # 539 "C:\Program Files (x86)\Microchip\xc8\v2.00\pic\include\pic16f887.h"
   580                           PIR1 equ 0Ch ;# 
   581  000C                     # 595 "C:\Program Files (x86)\Microchip\xc8\v2.00\pic\include\pic16f887.h"
   582                           PIR2 equ 0Dh ;# 
   583  000D                     # 652 "C:\Program Files (x86)\Microchip\xc8\v2.00\pic\include\pic16f887.h"
   584                           TMR1 equ 0Eh ;# 
   585  000E                     # 659 "C:\Program Files (x86)\Microchip\xc8\v2.00\pic\include\pic16f887.h"
   586                           TMR1L equ 0Eh ;# 
   587  000E                     # 666 "C:\Program Files (x86)\Microchip\xc8\v2.00\pic\include\pic16f887.h"
   588                           TMR1H equ 0Fh ;# 
   589  000F                     # 673 "C:\Program Files (x86)\Microchip\xc8\v2.00\pic\include\pic16f887.h"
   590                           T1CON equ 010h ;# 
   591  0010                     # 767 "C:\Program Files (x86)\Microchip\xc8\v2.00\pic\include\pic16f887.h"
   592                           TMR2 equ 011h ;# 
   593  0011                     # 774 "C:\Program Files (x86)\Microchip\xc8\v2.00\pic\include\pic16f887.h"
   594                           T2CON equ 012h ;# 
   595  0012                     # 845 "C:\Program Files (x86)\Microchip\xc8\v2.00\pic\include\pic16f887.h"
   596                           SSPBUF equ 013h ;# 
   597  0013                     # 852 "C:\Program Files (x86)\Microchip\xc8\v2.00\pic\include\pic16f887.h"
   598                           SSPCON equ 014h ;# 
   599  0014                     # 922 "C:\Program Files (x86)\Microchip\xc8\v2.00\pic\include\pic16f887.h"
   600                           CCPR1 equ 015h ;# 
   601  0015                     # 929 "C:\Program Files (x86)\Microchip\xc8\v2.00\pic\include\pic16f887.h"
   602                           CCPR1L equ 015h ;# 
   603  0015                     # 936 "C:\Program Files (x86)\Microchip\xc8\v2.00\pic\include\pic16f887.h"
   604                           CCPR1H equ 016h ;# 
   605  0016                     # 943 "C:\Program Files (x86)\Microchip\xc8\v2.00\pic\include\pic16f887.h"
   606                           CCP1CON equ 017h ;# 
   607  0017                     # 1040 "C:\Program Files (x86)\Microchip\xc8\v2.00\pic\include\pic16f887.h"
   608                           RCSTA equ 018h ;# 
   609  0018                     # 1135 "C:\Program Files (x86)\Microchip\xc8\v2.00\pic\include\pic16f887.h"
   610                           TXREG equ 019h ;# 
   611  0019                     # 1142 "C:\Program Files (x86)\Microchip\xc8\v2.00\pic\include\pic16f887.h"
   612                           RCREG equ 01Ah ;# 
   613  001A                     # 1149 "C:\Program Files (x86)\Microchip\xc8\v2.00\pic\include\pic16f887.h"
   614                           CCPR2 equ 01Bh ;# 
   615  001B                     # 1156 "C:\Program Files (x86)\Microchip\xc8\v2.00\pic\include\pic16f887.h"
   616                           CCPR2L equ 01Bh ;# 
   617  001B                     # 1163 "C:\Program Files (x86)\Microchip\xc8\v2.00\pic\include\pic16f887.h"
   618                           CCPR2H equ 01Ch ;# 
   619  001C                     # 1170 "C:\Program Files (x86)\Microchip\xc8\v2.00\pic\include\pic16f887.h"
   620                           CCP2CON equ 01Dh ;# 
   621  001D                     # 1240 "C:\Program Files (x86)\Microchip\xc8\v2.00\pic\include\pic16f887.h"
   622                           ADRESH equ 01Eh ;# 
   623  001E                     # 1247 "C:\Program Files (x86)\Microchip\xc8\v2.00\pic\include\pic16f887.h"
   624                           ADCON0 equ 01Fh ;# 
   625  001F                     # 1348 "C:\Program Files (x86)\Microchip\xc8\v2.00\pic\include\pic16f887.h"
   626                           OPTION_REG equ 081h ;# 
   627  0081                     # 1418 "C:\Program Files (x86)\Microchip\xc8\v2.00\pic\include\pic16f887.h"
   628                           TRISA equ 085h ;# 
   629  0085                     # 1480 "C:\Program Files (x86)\Microchip\xc8\v2.00\pic\include\pic16f887.h"
   630                           TRISB equ 086h ;# 
   631  0086                     # 1542 "C:\Program Files (x86)\Microchip\xc8\v2.00\pic\include\pic16f887.h"
   632                           TRISC equ 087h ;# 
   633  0087                     # 1604 "C:\Program Files (x86)\Microchip\xc8\v2.00\pic\include\pic16f887.h"
   634                           TRISD equ 088h ;# 
   635  0088                     # 1666 "C:\Program Files (x86)\Microchip\xc8\v2.00\pic\include\pic16f887.h"
   636                           TRISE equ 089h ;# 
   637  0089                     # 1704 "C:\Program Files (x86)\Microchip\xc8\v2.00\pic\include\pic16f887.h"
   638                           PIE1 equ 08Ch ;# 
   639  008C                     # 1760 "C:\Program Files (x86)\Microchip\xc8\v2.00\pic\include\pic16f887.h"
   640                           PIE2 equ 08Dh ;# 
   641  008D                     # 1817 "C:\Program Files (x86)\Microchip\xc8\v2.00\pic\include\pic16f887.h"
   642                           PCON equ 08Eh ;# 
   643  008E                     # 1864 "C:\Program Files (x86)\Microchip\xc8\v2.00\pic\include\pic16f887.h"
   644                           OSCCON equ 08Fh ;# 
   645  008F                     # 1929 "C:\Program Files (x86)\Microchip\xc8\v2.00\pic\include\pic16f887.h"
   646                           OSCTUNE equ 090h ;# 
   647  0090                     # 1981 "C:\Program Files (x86)\Microchip\xc8\v2.00\pic\include\pic16f887.h"
   648                           SSPCON2 equ 091h ;# 
   649  0091                     # 2043 "C:\Program Files (x86)\Microchip\xc8\v2.00\pic\include\pic16f887.h"
   650                           PR2 equ 092h ;# 
   651  0092                     # 2050 "C:\Program Files (x86)\Microchip\xc8\v2.00\pic\include\pic16f887.h"
   652                           SSPADD equ 093h ;# 
   653  0093                     # 2057 "C:\Program Files (x86)\Microchip\xc8\v2.00\pic\include\pic16f887.h"
   654                           SSPMSK equ 093h ;# 
   655  0093                     # 2062 "C:\Program Files (x86)\Microchip\xc8\v2.00\pic\include\pic16f887.h"
   656                           MSK equ 093h ;# 
   657  0093                     # 2179 "C:\Program Files (x86)\Microchip\xc8\v2.00\pic\include\pic16f887.h"
   658                           SSPSTAT equ 094h ;# 
   659  0094                     # 2348 "C:\Program Files (x86)\Microchip\xc8\v2.00\pic\include\pic16f887.h"
   660                           WPUB equ 095h ;# 
   661  0095                     # 2418 "C:\Program Files (x86)\Microchip\xc8\v2.00\pic\include\pic16f887.h"
   662                           IOCB equ 096h ;# 
   663  0096                     # 2488 "C:\Program Files (x86)\Microchip\xc8\v2.00\pic\include\pic16f887.h"
   664                           VRCON equ 097h ;# 
   665  0097                     # 2558 "C:\Program Files (x86)\Microchip\xc8\v2.00\pic\include\pic16f887.h"
   666                           TXSTA equ 098h ;# 
   667  0098                     # 2644 "C:\Program Files (x86)\Microchip\xc8\v2.00\pic\include\pic16f887.h"
   668                           SPBRG equ 099h ;# 
   669  0099                     # 2706 "C:\Program Files (x86)\Microchip\xc8\v2.00\pic\include\pic16f887.h"
   670                           SPBRGH equ 09Ah ;# 
   671  009A                     # 2776 "C:\Program Files (x86)\Microchip\xc8\v2.00\pic\include\pic16f887.h"
   672                           PWM1CON equ 09Bh ;# 
   673  009B                     # 2846 "C:\Program Files (x86)\Microchip\xc8\v2.00\pic\include\pic16f887.h"
   674                           ECCPAS equ 09Ch ;# 
   675  009C                     # 2928 "C:\Program Files (x86)\Microchip\xc8\v2.00\pic\include\pic16f887.h"
   676                           PSTRCON equ 09Dh ;# 
   677  009D                     # 2972 "C:\Program Files (x86)\Microchip\xc8\v2.00\pic\include\pic16f887.h"
   678                           ADRESL equ 09Eh ;# 
   679  009E                     # 2979 "C:\Program Files (x86)\Microchip\xc8\v2.00\pic\include\pic16f887.h"
   680                           ADCON1 equ 09Fh ;# 
   681  009F                     # 3013 "C:\Program Files (x86)\Microchip\xc8\v2.00\pic\include\pic16f887.h"
   682                           WDTCON equ 0105h ;# 
   683  0105                     # 3066 "C:\Program Files (x86)\Microchip\xc8\v2.00\pic\include\pic16f887.h"
   684                           CM1CON0 equ 0107h ;# 
   685  0107                     # 3131 "C:\Program Files (x86)\Microchip\xc8\v2.00\pic\include\pic16f887.h"
   686                           CM2CON0 equ 0108h ;# 
   687  0108                     # 3196 "C:\Program Files (x86)\Microchip\xc8\v2.00\pic\include\pic16f887.h"
   688                           CM2CON1 equ 0109h ;# 
   689  0109                     # 3247 "C:\Program Files (x86)\Microchip\xc8\v2.00\pic\include\pic16f887.h"
   690                           EEDATA equ 010Ch ;# 
   691  010C                     # 3252 "C:\Program Files (x86)\Microchip\xc8\v2.00\pic\include\pic16f887.h"
   692                           EEDAT equ 010Ch ;# 
   693  010C                     # 3259 "C:\Program Files (x86)\Microchip\xc8\v2.00\pic\include\pic16f887.h"
   694                           EEADR equ 010Dh ;# 
   695  010D                     # 3266 "C:\Program Files (x86)\Microchip\xc8\v2.00\pic\include\pic16f887.h"
   696                           EEDATH equ 010Eh ;# 
   697  010E                     # 3273 "C:\Program Files (x86)\Microchip\xc8\v2.00\pic\include\pic16f887.h"
   698                           EEADRH equ 010Fh ;# 
   699  010F                     # 3280 "C:\Program Files (x86)\Microchip\xc8\v2.00\pic\include\pic16f887.h"
   700                           SRCON equ 0185h ;# 
   701  0185                     # 3337 "C:\Program Files (x86)\Microchip\xc8\v2.00\pic\include\pic16f887.h"
   702                           BAUDCTL equ 0187h ;# 
   703  0187                     # 3389 "C:\Program Files (x86)\Microchip\xc8\v2.00\pic\include\pic16f887.h"
   704                           ANSEL equ 0188h ;# 
   705  0188                     # 3451 "C:\Program Files (x86)\Microchip\xc8\v2.00\pic\include\pic16f887.h"
   706                           ANSELH equ 0189h ;# 
   707  0189                     # 3501 "C:\Program Files (x86)\Microchip\xc8\v2.00\pic\include\pic16f887.h"
   708                           EECON1 equ 018Ch ;# 
   709  018C                     # 3546 "C:\Program Files (x86)\Microchip\xc8\v2.00\pic\include\pic16f887.h"
   710                           EECON2 equ 018Dh ;# 
   711  018D                     # 54 "C:\Program Files (x86)\Microchip\xc8\v2.00\pic\include\pic16f887.h"
   712                           INDF equ 00h ;# 
   713  0000                     # 61 "C:\Program Files (x86)\Microchip\xc8\v2.00\pic\include\pic16f887.h"
   714                           TMR0 equ 01h ;# 
   715  0001                     # 68 "C:\Program Files (x86)\Microchip\xc8\v2.00\pic\include\pic16f887.h"
   716                           PCL equ 02h ;# 
   717  0002                     # 75 "C:\Program Files (x86)\Microchip\xc8\v2.00\pic\include\pic16f887.h"
   718                           STATUS equ 03h ;# 
   719  0003                     # 161 "C:\Program Files (x86)\Microchip\xc8\v2.00\pic\include\pic16f887.h"
   720                           FSR equ 04h ;# 
   721  0004                     # 168 "C:\Program Files (x86)\Microchip\xc8\v2.00\pic\include\pic16f887.h"
   722                           PORTA equ 05h ;# 
   723  0005                     # 230 "C:\Program Files (x86)\Microchip\xc8\v2.00\pic\include\pic16f887.h"
   724                           PORTB equ 06h ;# 
   725  0006                     # 292 "C:\Program Files (x86)\Microchip\xc8\v2.00\pic\include\pic16f887.h"
   726                           PORTC equ 07h ;# 
   727  0007                     # 354 "C:\Program Files (x86)\Microchip\xc8\v2.00\pic\include\pic16f887.h"
   728                           PORTD equ 08h ;# 
   729  0008                     # 416 "C:\Program Files (x86)\Microchip\xc8\v2.00\pic\include\pic16f887.h"
   730                           PORTE equ 09h ;# 
   731  0009                     # 454 "C:\Program Files (x86)\Microchip\xc8\v2.00\pic\include\pic16f887.h"
   732                           PCLATH equ 0Ah ;# 
   733  000A                     # 461 "C:\Program Files (x86)\Microchip\xc8\v2.00\pic\include\pic16f887.h"
   734                           INTCON equ 0Bh ;# 
   735  000B                     # 539 "C:\Program Files (x86)\Microchip\xc8\v2.00\pic\include\pic16f887.h"
   736                           PIR1 equ 0Ch ;# 
   737  000C                     # 595 "C:\Program Files (x86)\Microchip\xc8\v2.00\pic\include\pic16f887.h"
   738                           PIR2 equ 0Dh ;# 
   739  000D                     # 652 "C:\Program Files (x86)\Microchip\xc8\v2.00\pic\include\pic16f887.h"
   740                           TMR1 equ 0Eh ;# 
   741  000E                     # 659 "C:\Program Files (x86)\Microchip\xc8\v2.00\pic\include\pic16f887.h"
   742                           TMR1L equ 0Eh ;# 
   743  000E                     # 666 "C:\Program Files (x86)\Microchip\xc8\v2.00\pic\include\pic16f887.h"
   744                           TMR1H equ 0Fh ;# 
   745  000F                     # 673 "C:\Program Files (x86)\Microchip\xc8\v2.00\pic\include\pic16f887.h"
   746                           T1CON equ 010h ;# 
   747  0010                     # 767 "C:\Program Files (x86)\Microchip\xc8\v2.00\pic\include\pic16f887.h"
   748                           TMR2 equ 011h ;# 
   749  0011                     # 774 "C:\Program Files (x86)\Microchip\xc8\v2.00\pic\include\pic16f887.h"
   750                           T2CON equ 012h ;# 
   751  0012                     # 845 "C:\Program Files (x86)\Microchip\xc8\v2.00\pic\include\pic16f887.h"
   752                           SSPBUF equ 013h ;# 
   753  0013                     # 852 "C:\Program Files (x86)\Microchip\xc8\v2.00\pic\include\pic16f887.h"
   754                           SSPCON equ 014h ;# 
   755  0014                     # 922 "C:\Program Files (x86)\Microchip\xc8\v2.00\pic\include\pic16f887.h"
   756                           CCPR1 equ 015h ;# 
   757  0015                     # 929 "C:\Program Files (x86)\Microchip\xc8\v2.00\pic\include\pic16f887.h"
   758                           CCPR1L equ 015h ;# 
   759  0015                     # 936 "C:\Program Files (x86)\Microchip\xc8\v2.00\pic\include\pic16f887.h"
   760                           CCPR1H equ 016h ;# 
   761  0016                     # 943 "C:\Program Files (x86)\Microchip\xc8\v2.00\pic\include\pic16f887.h"
   762                           CCP1CON equ 017h ;# 
   763  0017                     # 1040 "C:\Program Files (x86)\Microchip\xc8\v2.00\pic\include\pic16f887.h"
   764                           RCSTA equ 018h ;# 
   765  0018                     # 1135 "C:\Program Files (x86)\Microchip\xc8\v2.00\pic\include\pic16f887.h"
   766                           TXREG equ 019h ;# 
   767  0019                     # 1142 "C:\Program Files (x86)\Microchip\xc8\v2.00\pic\include\pic16f887.h"
   768                           RCREG equ 01Ah ;# 
   769  001A                     # 1149 "C:\Program Files (x86)\Microchip\xc8\v2.00\pic\include\pic16f887.h"
   770                           CCPR2 equ 01Bh ;# 
   771  001B                     # 1156 "C:\Program Files (x86)\Microchip\xc8\v2.00\pic\include\pic16f887.h"
   772                           CCPR2L equ 01Bh ;# 
   773  001B                     # 1163 "C:\Program Files (x86)\Microchip\xc8\v2.00\pic\include\pic16f887.h"
   774                           CCPR2H equ 01Ch ;# 
   775  001C                     # 1170 "C:\Program Files (x86)\Microchip\xc8\v2.00\pic\include\pic16f887.h"
   776                           CCP2CON equ 01Dh ;# 
   777  001D                     # 1240 "C:\Program Files (x86)\Microchip\xc8\v2.00\pic\include\pic16f887.h"
   778                           ADRESH equ 01Eh ;# 
   779  001E                     # 1247 "C:\Program Files (x86)\Microchip\xc8\v2.00\pic\include\pic16f887.h"
   780                           ADCON0 equ 01Fh ;# 
   781  001F                     # 1348 "C:\Program Files (x86)\Microchip\xc8\v2.00\pic\include\pic16f887.h"
   782                           OPTION_REG equ 081h ;# 
   783  0081                     # 1418 "C:\Program Files (x86)\Microchip\xc8\v2.00\pic\include\pic16f887.h"
   784                           TRISA equ 085h ;# 
   785  0085                     # 1480 "C:\Program Files (x86)\Microchip\xc8\v2.00\pic\include\pic16f887.h"
   786                           TRISB equ 086h ;# 
   787  0086                     # 1542 "C:\Program Files (x86)\Microchip\xc8\v2.00\pic\include\pic16f887.h"
   788                           TRISC equ 087h ;# 
   789  0087                     # 1604 "C:\Program Files (x86)\Microchip\xc8\v2.00\pic\include\pic16f887.h"
   790                           TRISD equ 088h ;# 
   791  0088                     # 1666 "C:\Program Files (x86)\Microchip\xc8\v2.00\pic\include\pic16f887.h"
   792                           TRISE equ 089h ;# 
   793  0089                     # 1704 "C:\Program Files (x86)\Microchip\xc8\v2.00\pic\include\pic16f887.h"
   794                           PIE1 equ 08Ch ;# 
   795  008C                     # 1760 "C:\Program Files (x86)\Microchip\xc8\v2.00\pic\include\pic16f887.h"
   796                           PIE2 equ 08Dh ;# 
   797  008D                     # 1817 "C:\Program Files (x86)\Microchip\xc8\v2.00\pic\include\pic16f887.h"
   798                           PCON equ 08Eh ;# 
   799  008E                     # 1864 "C:\Program Files (x86)\Microchip\xc8\v2.00\pic\include\pic16f887.h"
   800                           OSCCON equ 08Fh ;# 
   801  008F                     # 1929 "C:\Program Files (x86)\Microchip\xc8\v2.00\pic\include\pic16f887.h"
   802                           OSCTUNE equ 090h ;# 
   803  0090                     # 1981 "C:\Program Files (x86)\Microchip\xc8\v2.00\pic\include\pic16f887.h"
   804                           SSPCON2 equ 091h ;# 
   805  0091                     # 2043 "C:\Program Files (x86)\Microchip\xc8\v2.00\pic\include\pic16f887.h"
   806                           PR2 equ 092h ;# 
   807  0092                     # 2050 "C:\Program Files (x86)\Microchip\xc8\v2.00\pic\include\pic16f887.h"
   808                           SSPADD equ 093h ;# 
   809  0093                     # 2057 "C:\Program Files (x86)\Microchip\xc8\v2.00\pic\include\pic16f887.h"
   810                           SSPMSK equ 093h ;# 
   811  0093                     # 2062 "C:\Program Files (x86)\Microchip\xc8\v2.00\pic\include\pic16f887.h"
   812                           MSK equ 093h ;# 
   813  0093                     # 2179 "C:\Program Files (x86)\Microchip\xc8\v2.00\pic\include\pic16f887.h"
   814                           SSPSTAT equ 094h ;# 
   815  0094                     # 2348 "C:\Program Files (x86)\Microchip\xc8\v2.00\pic\include\pic16f887.h"
   816                           WPUB equ 095h ;# 
   817  0095                     # 2418 "C:\Program Files (x86)\Microchip\xc8\v2.00\pic\include\pic16f887.h"
   818                           IOCB equ 096h ;# 
   819  0096                     # 2488 "C:\Program Files (x86)\Microchip\xc8\v2.00\pic\include\pic16f887.h"
   820                           VRCON equ 097h ;# 
   821  0097                     # 2558 "C:\Program Files (x86)\Microchip\xc8\v2.00\pic\include\pic16f887.h"
   822                           TXSTA equ 098h ;# 
   823  0098                     # 2644 "C:\Program Files (x86)\Microchip\xc8\v2.00\pic\include\pic16f887.h"
   824                           SPBRG equ 099h ;# 
   825  0099                     # 2706 "C:\Program Files (x86)\Microchip\xc8\v2.00\pic\include\pic16f887.h"
   826                           SPBRGH equ 09Ah ;# 
   827  009A                     # 2776 "C:\Program Files (x86)\Microchip\xc8\v2.00\pic\include\pic16f887.h"
   828                           PWM1CON equ 09Bh ;# 
   829  009B                     # 2846 "C:\Program Files (x86)\Microchip\xc8\v2.00\pic\include\pic16f887.h"
   830                           ECCPAS equ 09Ch ;# 
   831  009C                     # 2928 "C:\Program Files (x86)\Microchip\xc8\v2.00\pic\include\pic16f887.h"
   832                           PSTRCON equ 09Dh ;# 
   833  009D                     # 2972 "C:\Program Files (x86)\Microchip\xc8\v2.00\pic\include\pic16f887.h"
   834                           ADRESL equ 09Eh ;# 
   835  009E                     # 2979 "C:\Program Files (x86)\Microchip\xc8\v2.00\pic\include\pic16f887.h"
   836                           ADCON1 equ 09Fh ;# 
   837  009F                     # 3013 "C:\Program Files (x86)\Microchip\xc8\v2.00\pic\include\pic16f887.h"
   838                           WDTCON equ 0105h ;# 
   839  0105                     # 3066 "C:\Program Files (x86)\Microchip\xc8\v2.00\pic\include\pic16f887.h"
   840                           CM1CON0 equ 0107h ;# 
   841  0107                     # 3131 "C:\Program Files (x86)\Microchip\xc8\v2.00\pic\include\pic16f887.h"
   842                           CM2CON0 equ 0108h ;# 
   843  0108                     # 3196 "C:\Program Files (x86)\Microchip\xc8\v2.00\pic\include\pic16f887.h"
   844                           CM2CON1 equ 0109h ;# 
   845  0109                     # 3247 "C:\Program Files (x86)\Microchip\xc8\v2.00\pic\include\pic16f887.h"
   846                           EEDATA equ 010Ch ;# 
   847  010C                     # 3252 "C:\Program Files (x86)\Microchip\xc8\v2.00\pic\include\pic16f887.h"
   848                           EEDAT equ 010Ch ;# 
   849  010C                     # 3259 "C:\Program Files (x86)\Microchip\xc8\v2.00\pic\include\pic16f887.h"
   850                           EEADR equ 010Dh ;# 
   851  010D                     # 3266 "C:\Program Files (x86)\Microchip\xc8\v2.00\pic\include\pic16f887.h"
   852                           EEDATH equ 010Eh ;# 
   853  010E                     # 3273 "C:\Program Files (x86)\Microchip\xc8\v2.00\pic\include\pic16f887.h"
   854                           EEADRH equ 010Fh ;# 
   855  010F                     # 3280 "C:\Program Files (x86)\Microchip\xc8\v2.00\pic\include\pic16f887.h"
   856                           SRCON equ 0185h ;# 
   857  0185                     # 3337 "C:\Program Files (x86)\Microchip\xc8\v2.00\pic\include\pic16f887.h"
   858                           BAUDCTL equ 0187h ;# 
   859  0187                     # 3389 "C:\Program Files (x86)\Microchip\xc8\v2.00\pic\include\pic16f887.h"
   860                           ANSEL equ 0188h ;# 
   861  0188                     # 3451 "C:\Program Files (x86)\Microchip\xc8\v2.00\pic\include\pic16f887.h"
   862                           ANSELH equ 0189h ;# 
   863  0189                     # 3501 "C:\Program Files (x86)\Microchip\xc8\v2.00\pic\include\pic16f887.h"
   864                           EECON1 equ 018Ch ;# 
   865  018C                     # 3546 "C:\Program Files (x86)\Microchip\xc8\v2.00\pic\include\pic16f887.h"
   866                           EECON2 equ 018Dh ;# 
   867  018D                     # 54 "C:\Program Files (x86)\Microchip\xc8\v2.00\pic\include\pic16f887.h"
   868                           INDF equ 00h ;# 
   869  0000                     # 61 "C:\Program Files (x86)\Microchip\xc8\v2.00\pic\include\pic16f887.h"
   870                           TMR0 equ 01h ;# 
   871  0001                     # 68 "C:\Program Files (x86)\Microchip\xc8\v2.00\pic\include\pic16f887.h"
   872                           PCL equ 02h ;# 
   873  0002                     # 75 "C:\Program Files (x86)\Microchip\xc8\v2.00\pic\include\pic16f887.h"
   874                           STATUS equ 03h ;# 
   875  0003                     # 161 "C:\Program Files (x86)\Microchip\xc8\v2.00\pic\include\pic16f887.h"
   876                           FSR equ 04h ;# 
   877  0004                     # 168 "C:\Program Files (x86)\Microchip\xc8\v2.00\pic\include\pic16f887.h"
   878                           PORTA equ 05h ;# 
   879  0005                     # 230 "C:\Program Files (x86)\Microchip\xc8\v2.00\pic\include\pic16f887.h"
   880                           PORTB equ 06h ;# 
   881  0006                     # 292 "C:\Program Files (x86)\Microchip\xc8\v2.00\pic\include\pic16f887.h"
   882                           PORTC equ 07h ;# 
   883  0007                     # 354 "C:\Program Files (x86)\Microchip\xc8\v2.00\pic\include\pic16f887.h"
   884                           PORTD equ 08h ;# 
   885  0008                     # 416 "C:\Program Files (x86)\Microchip\xc8\v2.00\pic\include\pic16f887.h"
   886                           PORTE equ 09h ;# 
   887  0009                     # 454 "C:\Program Files (x86)\Microchip\xc8\v2.00\pic\include\pic16f887.h"
   888                           PCLATH equ 0Ah ;# 
   889  000A                     # 461 "C:\Program Files (x86)\Microchip\xc8\v2.00\pic\include\pic16f887.h"
   890                           INTCON equ 0Bh ;# 
   891  000B                     # 539 "C:\Program Files (x86)\Microchip\xc8\v2.00\pic\include\pic16f887.h"
   892                           PIR1 equ 0Ch ;# 
   893  000C                     # 595 "C:\Program Files (x86)\Microchip\xc8\v2.00\pic\include\pic16f887.h"
   894                           PIR2 equ 0Dh ;# 
   895  000D                     # 652 "C:\Program Files (x86)\Microchip\xc8\v2.00\pic\include\pic16f887.h"
   896                           TMR1 equ 0Eh ;# 
   897  000E                     # 659 "C:\Program Files (x86)\Microchip\xc8\v2.00\pic\include\pic16f887.h"
   898                           TMR1L equ 0Eh ;# 
   899  000E                     # 666 "C:\Program Files (x86)\Microchip\xc8\v2.00\pic\include\pic16f887.h"
   900                           TMR1H equ 0Fh ;# 
   901  000F                     # 673 "C:\Program Files (x86)\Microchip\xc8\v2.00\pic\include\pic16f887.h"
   902                           T1CON equ 010h ;# 
   903  0010                     # 767 "C:\Program Files (x86)\Microchip\xc8\v2.00\pic\include\pic16f887.h"
   904                           TMR2 equ 011h ;# 
   905  0011                     # 774 "C:\Program Files (x86)\Microchip\xc8\v2.00\pic\include\pic16f887.h"
   906                           T2CON equ 012h ;# 
   907  0012                     # 845 "C:\Program Files (x86)\Microchip\xc8\v2.00\pic\include\pic16f887.h"
   908                           SSPBUF equ 013h ;# 
   909  0013                     # 852 "C:\Program Files (x86)\Microchip\xc8\v2.00\pic\include\pic16f887.h"
   910                           SSPCON equ 014h ;# 
   911  0014                     # 922 "C:\Program Files (x86)\Microchip\xc8\v2.00\pic\include\pic16f887.h"
   912                           CCPR1 equ 015h ;# 
   913  0015                     # 929 "C:\Program Files (x86)\Microchip\xc8\v2.00\pic\include\pic16f887.h"
   914                           CCPR1L equ 015h ;# 
   915  0015                     # 936 "C:\Program Files (x86)\Microchip\xc8\v2.00\pic\include\pic16f887.h"
   916                           CCPR1H equ 016h ;# 
   917  0016                     # 943 "C:\Program Files (x86)\Microchip\xc8\v2.00\pic\include\pic16f887.h"
   918                           CCP1CON equ 017h ;# 
   919  0017                     # 1040 "C:\Program Files (x86)\Microchip\xc8\v2.00\pic\include\pic16f887.h"
   920                           RCSTA equ 018h ;# 
   921  0018                     # 1135 "C:\Program Files (x86)\Microchip\xc8\v2.00\pic\include\pic16f887.h"
   922                           TXREG equ 019h ;# 
   923  0019                     # 1142 "C:\Program Files (x86)\Microchip\xc8\v2.00\pic\include\pic16f887.h"
   924                           RCREG equ 01Ah ;# 
   925  001A                     # 1149 "C:\Program Files (x86)\Microchip\xc8\v2.00\pic\include\pic16f887.h"
   926                           CCPR2 equ 01Bh ;# 
   927  001B                     # 1156 "C:\Program Files (x86)\Microchip\xc8\v2.00\pic\include\pic16f887.h"
   928                           CCPR2L equ 01Bh ;# 
   929  001B                     # 1163 "C:\Program Files (x86)\Microchip\xc8\v2.00\pic\include\pic16f887.h"
   930                           CCPR2H equ 01Ch ;# 
   931  001C                     # 1170 "C:\Program Files (x86)\Microchip\xc8\v2.00\pic\include\pic16f887.h"
   932                           CCP2CON equ 01Dh ;# 
   933  001D                     # 1240 "C:\Program Files (x86)\Microchip\xc8\v2.00\pic\include\pic16f887.h"
   934                           ADRESH equ 01Eh ;# 
   935  001E                     # 1247 "C:\Program Files (x86)\Microchip\xc8\v2.00\pic\include\pic16f887.h"
   936                           ADCON0 equ 01Fh ;# 
   937  001F                     # 1348 "C:\Program Files (x86)\Microchip\xc8\v2.00\pic\include\pic16f887.h"
   938                           OPTION_REG equ 081h ;# 
   939  0081                     # 1418 "C:\Program Files (x86)\Microchip\xc8\v2.00\pic\include\pic16f887.h"
   940                           TRISA equ 085h ;# 
   941  0085                     # 1480 "C:\Program Files (x86)\Microchip\xc8\v2.00\pic\include\pic16f887.h"
   942                           TRISB equ 086h ;# 
   943  0086                     # 1542 "C:\Program Files (x86)\Microchip\xc8\v2.00\pic\include\pic16f887.h"
   944                           TRISC equ 087h ;# 
   945  0087                     # 1604 "C:\Program Files (x86)\Microchip\xc8\v2.00\pic\include\pic16f887.h"
   946                           TRISD equ 088h ;# 
   947  0088                     # 1666 "C:\Program Files (x86)\Microchip\xc8\v2.00\pic\include\pic16f887.h"
   948                           TRISE equ 089h ;# 
   949  0089                     # 1704 "C:\Program Files (x86)\Microchip\xc8\v2.00\pic\include\pic16f887.h"
   950                           PIE1 equ 08Ch ;# 
   951  008C                     # 1760 "C:\Program Files (x86)\Microchip\xc8\v2.00\pic\include\pic16f887.h"
   952                           PIE2 equ 08Dh ;# 
   953  008D                     # 1817 "C:\Program Files (x86)\Microchip\xc8\v2.00\pic\include\pic16f887.h"
   954                           PCON equ 08Eh ;# 
   955  008E                     # 1864 "C:\Program Files (x86)\Microchip\xc8\v2.00\pic\include\pic16f887.h"
   956                           OSCCON equ 08Fh ;# 
   957  008F                     # 1929 "C:\Program Files (x86)\Microchip\xc8\v2.00\pic\include\pic16f887.h"
   958                           OSCTUNE equ 090h ;# 
   959  0090                     # 1981 "C:\Program Files (x86)\Microchip\xc8\v2.00\pic\include\pic16f887.h"
   960                           SSPCON2 equ 091h ;# 
   961  0091                     # 2043 "C:\Program Files (x86)\Microchip\xc8\v2.00\pic\include\pic16f887.h"
   962                           PR2 equ 092h ;# 
   963  0092                     # 2050 "C:\Program Files (x86)\Microchip\xc8\v2.00\pic\include\pic16f887.h"
   964                           SSPADD equ 093h ;# 
   965  0093                     # 2057 "C:\Program Files (x86)\Microchip\xc8\v2.00\pic\include\pic16f887.h"
   966                           SSPMSK equ 093h ;# 
   967  0093                     # 2062 "C:\Program Files (x86)\Microchip\xc8\v2.00\pic\include\pic16f887.h"
   968                           MSK equ 093h ;# 
   969  0093                     # 2179 "C:\Program Files (x86)\Microchip\xc8\v2.00\pic\include\pic16f887.h"
   970                           SSPSTAT equ 094h ;# 
   971  0094                     # 2348 "C:\Program Files (x86)\Microchip\xc8\v2.00\pic\include\pic16f887.h"
   972                           WPUB equ 095h ;# 
   973  0095                     # 2418 "C:\Program Files (x86)\Microchip\xc8\v2.00\pic\include\pic16f887.h"
   974                           IOCB equ 096h ;# 
   975  0096                     # 2488 "C:\Program Files (x86)\Microchip\xc8\v2.00\pic\include\pic16f887.h"
   976                           VRCON equ 097h ;# 
   977  0097                     # 2558 "C:\Program Files (x86)\Microchip\xc8\v2.00\pic\include\pic16f887.h"
   978                           TXSTA equ 098h ;# 
   979  0098                     # 2644 "C:\Program Files (x86)\Microchip\xc8\v2.00\pic\include\pic16f887.h"
   980                           SPBRG equ 099h ;# 
   981  0099                     # 2706 "C:\Program Files (x86)\Microchip\xc8\v2.00\pic\include\pic16f887.h"
   982                           SPBRGH equ 09Ah ;# 
   983  009A                     # 2776 "C:\Program Files (x86)\Microchip\xc8\v2.00\pic\include\pic16f887.h"
   984                           PWM1CON equ 09Bh ;# 
   985  009B                     # 2846 "C:\Program Files (x86)\Microchip\xc8\v2.00\pic\include\pic16f887.h"
   986                           ECCPAS equ 09Ch ;# 
   987  009C                     # 2928 "C:\Program Files (x86)\Microchip\xc8\v2.00\pic\include\pic16f887.h"
   988                           PSTRCON equ 09Dh ;# 
   989  009D                     # 2972 "C:\Program Files (x86)\Microchip\xc8\v2.00\pic\include\pic16f887.h"
   990                           ADRESL equ 09Eh ;# 
   991  009E                     # 2979 "C:\Program Files (x86)\Microchip\xc8\v2.00\pic\include\pic16f887.h"
   992                           ADCON1 equ 09Fh ;# 
   993  009F                     # 3013 "C:\Program Files (x86)\Microchip\xc8\v2.00\pic\include\pic16f887.h"
   994                           WDTCON equ 0105h ;# 
   995  0105                     # 3066 "C:\Program Files (x86)\Microchip\xc8\v2.00\pic\include\pic16f887.h"
   996                           CM1CON0 equ 0107h ;# 
   997  0107                     # 3131 "C:\Program Files (x86)\Microchip\xc8\v2.00\pic\include\pic16f887.h"
   998                           CM2CON0 equ 0108h ;# 
   999  0108                     # 3196 "C:\Program Files (x86)\Microchip\xc8\v2.00\pic\include\pic16f887.h"
  1000                           CM2CON1 equ 0109h ;# 
  1001  0109                     # 3247 "C:\Program Files (x86)\Microchip\xc8\v2.00\pic\include\pic16f887.h"
  1002                           EEDATA equ 010Ch ;# 
  1003  010C                     # 3252 "C:\Program Files (x86)\Microchip\xc8\v2.00\pic\include\pic16f887.h"
  1004                           EEDAT equ 010Ch ;# 
  1005  010C                     # 3259 "C:\Program Files (x86)\Microchip\xc8\v2.00\pic\include\pic16f887.h"
  1006                           EEADR equ 010Dh ;# 
  1007  010D                     # 3266 "C:\Program Files (x86)\Microchip\xc8\v2.00\pic\include\pic16f887.h"
  1008                           EEDATH equ 010Eh ;# 
  1009  010E                     # 3273 "C:\Program Files (x86)\Microchip\xc8\v2.00\pic\include\pic16f887.h"
  1010                           EEADRH equ 010Fh ;# 
  1011  010F                     # 3280 "C:\Program Files (x86)\Microchip\xc8\v2.00\pic\include\pic16f887.h"
  1012                           SRCON equ 0185h ;# 
  1013  0185                     # 3337 "C:\Program Files (x86)\Microchip\xc8\v2.00\pic\include\pic16f887.h"
  1014                           BAUDCTL equ 0187h ;# 
  1015  0187                     # 3389 "C:\Program Files (x86)\Microchip\xc8\v2.00\pic\include\pic16f887.h"
  1016                           ANSEL equ 0188h ;# 
  1017  0188                     # 3451 "C:\Program Files (x86)\Microchip\xc8\v2.00\pic\include\pic16f887.h"
  1018                           ANSELH equ 0189h ;# 
  1019  0189                     # 3501 "C:\Program Files (x86)\Microchip\xc8\v2.00\pic\include\pic16f887.h"
  1020                           EECON1 equ 018Ch ;# 
  1021  018C                     # 3546 "C:\Program Files (x86)\Microchip\xc8\v2.00\pic\include\pic16f887.h"
  1022                           EECON2 equ 018Dh ;# 
  1023  018D                     	FNCALL	_main,_BCD2LowerCh
  1024                           	FNCALL	_main,_BCD2UpperCh
  1025                           	FNCALL	_main,_I2C_Master_Init
  1026                           	FNCALL	_main,_I2C_Master_Read
  1027                           	FNCALL	_main,_I2C_Master_Start
  1028                           	FNCALL	_main,_I2C_Master_Stop
  1029                           	FNCALL	_main,_I2C_Master_Write
  1030                           	FNCALL	_main,_LCD_CURSOR
  1031                           	FNCALL	_main,_LCD_DATO
  1032                           	FNCALL	_main,_LCD_STRING
  1033                           	FNCALL	_main,_PasoCompSimple
  1034                           	FNCALL	_main,_atoi
  1035                           	FNCALL	_main,_config
  1036                           	FNCALL	_main,_delay
  1037                           	FNCALL	_main,_lcd_init
  1038                           	FNCALL	_main,_mandar
  1039                           	FNCALL	_main,_read_ds1307
  1040                           	FNCALL	_main,_servo0
  1041                           	FNCALL	_main,_servo180
  1042                           	FNCALL	_main,_sprintf
  1043                           	FNCALL	_sprintf,___bmul
  1044                           	FNCALL	_sprintf,___lwdiv
  1045                           	FNCALL	_sprintf,___lwmod
  1046                           	FNCALL	_sprintf,_isdigit
  1047                           	FNCALL	_read_ds1307,_I2C_Master_Read
  1048                           	FNCALL	_read_ds1307,_I2C_Master_RepeatedStart
  1049                           	FNCALL	_read_ds1307,_I2C_Master_Start
  1050                           	FNCALL	_read_ds1307,_I2C_Master_Stop
  1051                           	FNCALL	_read_ds1307,_I2C_Master_Write
  1052                           	FNCALL	_I2C_Master_Write,_I2C_Master_Wait
  1053                           	FNCALL	_I2C_Master_Stop,_I2C_Master_Wait
  1054                           	FNCALL	_I2C_Master_Start,_I2C_Master_Wait
  1055                           	FNCALL	_I2C_Master_RepeatedStart,_I2C_Master_Wait
  1056                           	FNCALL	_I2C_Master_Read,_I2C_Master_Wait
  1057                           	FNCALL	_lcd_init,_lcd_cmd
  1058                           	FNCALL	_lcd_cmd,_lcd_lat
  1059                           	FNCALL	_lcd_cmd,_lcd_ready
  1060                           	FNCALL	_lcd_ready,_delay
  1061                           	FNCALL	_lcd_lat,_delay
  1062                           	FNCALL	_atoi,___wmul
  1063                           	FNCALL	_atoi,_isdigit
  1064                           	FNCALL	_LCD_STRING,_LCD_CHAR
  1065                           	FNCALL	_LCD_CURSOR,_LCD_DATO
  1066                           	FNCALL	_I2C_Master_Init,___lldiv
  1067                           	FNROOT	_main
  1068                           	global	_time
  1069                           	global	_date
  1070                           psect	idataBANK0,class=CODE,space=0,delta=2,noexec
  1071                           global __pidataBANK0
  1072                           __pidataBANK0:
  1073  0D63                     	file	"Pri-Master.c"
  1074                           	line	77
  1075                           
  1076                           ;initializer for _time
  1077                           	retlw	030h
  1078  0D63  3430               	retlw	030h
  1079  0D64  3430               	retlw	03Ah
  1080  0D65  343A               	retlw	030h
  1081  0D66  3430               	retlw	030h
  1082  0D67  3430               	retlw	03Ah
  1083  0D68  343A               	retlw	030h
  1084  0D69  3430               	retlw	030h
  1085  0D6A  3430               	retlw	020h
  1086  0D6B  3420               	retlw	050h
  1087  0D6C  3450               	retlw	04Dh
  1088  0D6D  344D               	retlw	low(0)
  1089  0D6E  3400               psect	idataBANK1,class=CODE,space=0,delta=2,noexec
  1090                           global __pidataBANK1
  1091                           __pidataBANK1:
  1092  0E74                     	line	76
  1093                           
  1094                           ;initializer for _abajo
  1095                           	retlw	053h
  1096  0E74  3453               	retlw	034h
  1097  0E75  3434               	retlw	03Ah
  1098  0E76  343A               	retlw	031h
  1099  0E77  3431               	retlw	020h
  1100  0E78  3420               	retlw	030h
  1101  0E79  3430               	retlw	030h
  1102  0E7A  3430               	retlw	03Ah
  1103  0E7B  343A               	retlw	030h
  1104  0E7C  3430               	retlw	030h
  1105  0E7D  3430               	retlw	03Ah
  1106  0E7E  343A               	retlw	030h
  1107  0E7F  3430               	retlw	030h
  1108  0E80  3430               	retlw	020h
  1109  0E81  3420               	retlw	041h
  1110  0E82  3441               	retlw	04Dh
  1111  0E83  344D               	retlw	low(0)
  1112  0E84  3400               	line	75
  1113                           
  1114                           ;initializer for _arriba
  1115                           	retlw	053h
  1116  0E85  3453               	retlw	031h
  1117  0E86  3431               	retlw	03Ah
  1118  0E87  343A               	retlw	031h
  1119  0E88  3431               	retlw	020h
  1120  0E89  3420               	retlw	053h
  1121  0E8A  3453               	retlw	032h
  1122  0E8B  3432               	retlw	03Ah
  1123  0E8C  343A               	retlw	031h
  1124  0E8D  3431               	retlw	020h
  1125  0E8E  3420               	retlw	064h
  1126  0E8F  3464               	retlw	03Ah
  1127  0E90  343A               	retlw	030h
  1128  0E91  3430               	retlw	030h
  1129  0E92  3430               	retlw	030h
  1130  0E93  3430               	retlw	low(0)
  1131  0E94  3400               	line	78
  1132                           
  1133                           ;initializer for _date
  1134                           	retlw	030h
  1135  0E95  3430               	retlw	030h
  1136  0E96  3430               	retlw	02Dh
  1137  0E97  342D               	retlw	030h
  1138  0E98  3430               	retlw	030h
  1139  0E99  3430               	retlw	02Dh
  1140  0E9A  342D               	retlw	030h
  1141  0E9B  3430               	retlw	030h
  1142  0E9C  3430               	retlw	low(0)
  1143  0E9D  3400               	global	_dpowers
  1144                           psect	strings,class=STRING,delta=2,noexec
  1145                           global __pstrings
  1146                           __pstrings:
  1147  0003                     stringtab:
  1148  0003                     	global    __stringtab
  1149                           __stringtab:
  1150  0003                     ;	String table - string pointers are 1 byte each
  1151                           	btfsc	(btemp+1),7
  1152  0003  1BFF               	ljmp	stringcode
  1153  0004  280D               	bcf	status,7
  1154  0005  1383               	btfsc	(btemp+1),0
  1155  0006  187F               	bsf	status,7
  1156  0007  1783               	movf	indf,w
  1157  0008  0800               	incf fsr
  1158  0009  0A84               skipnz
  1159  000A  1903               incf btemp+1
  1160  000B  0AFF               	return
  1161  000C  0008               stringcode:stringdir:
  1162  000D                     movlw high(stringdir)
      + 000D                     stringdir:	
  1163  000D  3000               movwf pclath
  1164  000E  008A               movf fsr,w
  1165  000F  0804               incf fsr
  1166  0010  0A84               	addwf pc
  1167  0011  0782               	global __stringbase
  1168                           __stringbase:
  1169  0012                     	retlw	0
  1170  0012  3400               psect	strings
  1171                           	global    __end_of__stringtab
  1172                           __end_of__stringtab:
  1173  0013                     	file	"C:\Program Files (x86)\Microchip\xc8\v2.00\pic\sources\c90\common\doprnt.c"
  1174                           	line	358
  1175                           _dpowers:
  1176  0013                     	retlw	01h
  1177  0013  3401               	retlw	0
  1178  0014  3400               
  1179                           	retlw	0Ah
  1180  0015  340A               	retlw	0
  1181  0016  3400               
  1182                           	retlw	064h
  1183  0017  3464               	retlw	0
  1184  0018  3400               
  1185                           	retlw	0E8h
  1186  0019  34E8               	retlw	03h
  1187  001A  3403               
  1188                           	retlw	010h
  1189  001B  3410               	retlw	027h
  1190  001C  3427               
  1191                           	global __end_of_dpowers
  1192                           __end_of_dpowers:
  1193  001D                     	global	_dpowers
  1194                           	global	_ap
  1195                           	global	_year
  1196                           	global	_month
  1197                           	global	_day
  1198                           	global	_hr
  1199                           	global	_hour
  1200                           	global	_minute
  1201                           	global	_second
  1202                           	global	_var
  1203                           	global	_valor5
  1204                           	global	_valor4
  1205                           	global	_valor3
  1206                           	global	_valor2
  1207                           	global	_valor1
  1208                           	global	_deter
  1209                           	global	_valorf
  1210                           	global	_valor
  1211                           	global	_TXREG
  1212                           _TXREG	set	0x19
  1213  0019                     	global	_RCSTAbits
  1214                           _RCSTAbits	set	0x18
  1215  0018                     	global	_PORTCbits
  1216                           _PORTCbits	set	0x7
  1217  0007                     	global	_RCREG
  1218                           _RCREG	set	0x1A
  1219  001A                     	global	_PORTAbits
  1220                           _PORTAbits	set	0x5
  1221  0005                     	global	_PORTD
  1222                           _PORTD	set	0x8
  1223  0008                     	global	_PORTA
  1224                           _PORTA	set	0x5
  1225  0005                     	global	_PORTB
  1226                           _PORTB	set	0x6
  1227  0006                     	global	_PORTDbits
  1228                           _PORTDbits	set	0x8
  1229  0008                     	global	_PIR1bits
  1230                           _PIR1bits	set	0xC
  1231  000C                     	global	_SSPBUF
  1232                           _SSPBUF	set	0x13
  1233  0013                     	global	_SSPCON
  1234                           _SSPCON	set	0x14
  1235  0014                     	global	_RCIF
  1236                           _RCIF	set	0x65
  1237  0065                     	global	_SSPIF
  1238                           _SSPIF	set	0x63
  1239  0063                     	global	_PEIE
  1240                           _PEIE	set	0x5E
  1241  005E                     	global	_GIE
  1242                           _GIE	set	0x5F
  1243  005F                     	global	_SPBRGH
  1244                           _SPBRGH	set	0x9A
  1245  009A                     	global	_SPBRG
  1246                           _SPBRG	set	0x99
  1247  0099                     	global	_TXSTAbits
  1248                           _TXSTAbits	set	0x98
  1249  0098                     	global	_TRISA
  1250                           _TRISA	set	0x85
  1251  0085                     	global	_TRISB
  1252                           _TRISB	set	0x86
  1253  0086                     	global	_TRISD
  1254                           _TRISD	set	0x88
  1255  0088                     	global	_SSPSTATbits
  1256                           _SSPSTATbits	set	0x94
  1257  0094                     	global	_SSPCON2bits
  1258                           _SSPCON2bits	set	0x91
  1259  0091                     	global	_TRISCbits
  1260                           _TRISCbits	set	0x87
  1261  0087                     	global	_SSPSTAT
  1262                           _SSPSTAT	set	0x94
  1263  0094                     	global	_SSPADD
  1264                           _SSPADD	set	0x93
  1265  0093                     	global	_SSPCON2
  1266                           _SSPCON2	set	0x91
  1267  0091                     	global	_PEN
  1268                           _PEN	set	0x48A
  1269  048A                     	global	_ACKSTAT
  1270                           _ACKSTAT	set	0x48E
  1271  048E                     	global	_BF
  1272                           _BF	set	0x4A0
  1273  04A0                     	global	_RCEN
  1274                           _RCEN	set	0x48B
  1275  048B                     	global	_ACKEN
  1276                           _ACKEN	set	0x48C
  1277  048C                     	global	_ACKDT
  1278                           _ACKDT	set	0x48D
  1279  048D                     	global	_SEN
  1280                           _SEN	set	0x488
  1281  0488                     	global	_SSPIE
  1282                           _SSPIE	set	0x463
  1283  0463                     	global	_TRISC4
  1284                           _TRISC4	set	0x43C
  1285  043C                     	global	_TRISC3
  1286                           _TRISC3	set	0x43B
  1287  043B                     	global	_BAUDCTLbits
  1288                           _BAUDCTLbits	set	0x187
  1289  0187                     	global	_ANSELH
  1290                           _ANSELH	set	0x189
  1291  0189                     	global	_ANSEL
  1292                           _ANSEL	set	0x188
  1293  0188                     	
  1294                           STR_3:	
  1295  001D                     	retlw	37	;'%'
  1296  001D  3425               	retlw	46	;'.'
  1297  001E  342E               	retlw	49	;'1'
  1298  001F  3431               	retlw	100	;'d'
  1299  0020  3464               	retlw	32	;' '
  1300  0021  3420               	retlw	37	;'%'
  1301  0022  3425               	retlw	46	;'.'
  1302  0023  342E               	retlw	49	;'1'
  1303  0024  3431               	retlw	100	;'d'
  1304  0025  3464               	retlw	32	;' '
  1305  0026  3420               	retlw	37	;'%'
  1306  0027  3425               	retlw	46	;'.'
  1307  0028  342E               	retlw	51	;'3'
  1308  0029  3433               	retlw	100	;'d'
  1309  002A  3464               	retlw	32	;' '
  1310  002B  3420               	retlw	37	;'%'
  1311  002C  3425               	retlw	46	;'.'
  1312  002D  342E               	retlw	49	;'1'
  1313  002E  3431               	retlw	100	;'d'
  1314  002F  3464               	retlw	32	;' '
  1315  0030  3420               	retlw	37	;'%'
  1316  0031  3425               	retlw	46	;'.'
  1317  0032  342E               	retlw	50	;'2'
  1318  0033  3432               	retlw	100	;'d'
  1319  0034  3464               	retlw	0
  1320  0035  3400               psect	strings
  1321                           	
  1322                           STR_2:	
  1323  0036                     	retlw	69	;'E'
  1324  0036  3445               	retlw	83	;'S'
  1325  0037  3453               	retlw	84	;'T'
  1326  0038  3454               	retlw	82	;'R'
  1327  0039  3452               	retlw	65	;'A'
  1328  003A  3441               	retlw	68	;'D'
  1329  003B  3444               	retlw	65	;'A'
  1330  003C  3441               	retlw	32	;' '
  1331  003D  3420               	retlw	32	;' '
  1332  003E  3420               	retlw	35	;'#'
  1333  003F  3423               	retlw	49	;'1'
  1334  0040  3431               	retlw	55	;'7'
  1335  0041  3437               	retlw	48	;'0'
  1336  0042  3430               	retlw	55	;'7'
  1337  0043  3437               	retlw	56	;'8'
  1338  0044  3438               	retlw	0
  1339  0045  3400               psect	strings
  1340                           	
  1341                           STR_1:	
  1342  0046                     	retlw	74	;'J'
  1343  0046  344A               	retlw	79	;'O'
  1344  0047  344F               	retlw	83	;'S'
  1345  0048  3453               	retlw	69	;'E'
  1346  0049  3445               	retlw	32	;' '
  1347  004A  3420               	retlw	74	;'J'
  1348  004B  344A               	retlw	65	;'A'
  1349  004C  3441               	retlw	86	;'V'
  1350  004D  3456               	retlw	73	;'I'
  1351  004E  3449               	retlw	69	;'E'
  1352  004F  3445               	retlw	82	;'R'
  1353  0050  3452               	retlw	0
  1354  0051  3400               psect	strings
  1355                           ; #config settings
  1356                           global __CFG_FOSC$INTRC_NOCLKOUT
  1357                           __CFG_FOSC$INTRC_NOCLKOUT equ 0x0
  1358  0000                     global __CFG_WDTE$OFF
  1359                           __CFG_WDTE$OFF equ 0x0
  1360  0000                     global __CFG_PWRTE$OFF
  1361                           __CFG_PWRTE$OFF equ 0x0
  1362  0000                     global __CFG_MCLRE$OFF
  1363                           __CFG_MCLRE$OFF equ 0x0
  1364  0000                     global __CFG_CP$OFF
  1365                           __CFG_CP$OFF equ 0x0
  1366  0000                     global __CFG_CPD$OFF
  1367                           __CFG_CPD$OFF equ 0x0
  1368  0000                     global __CFG_BOREN$OFF
  1369                           __CFG_BOREN$OFF equ 0x0
  1370  0000                     global __CFG_IESO$OFF
  1371                           __CFG_IESO$OFF equ 0x0
  1372  0000                     global __CFG_FCMEN$OFF
  1373                           __CFG_FCMEN$OFF equ 0x0
  1374  0000                     global __CFG_LVP$OFF
  1375                           __CFG_LVP$OFF equ 0x0
  1376  0000                     global __CFG_BOR4V$BOR40V
  1377                           __CFG_BOR4V$BOR40V equ 0x0
  1378  0000                     global __CFG_WRT$OFF
  1379                           __CFG_WRT$OFF equ 0x0
  1380  0000                     	file	"C:\Users\JOSJAV~1\AppData\Local\Temp\s1as."
  1381                           	line	#
  1382                           psect cinit,class=CODE,delta=2
  1383                           global start_initialization
  1384                           start_initialization:
  1385  07D1                     
  1386                           global __initialization
  1387                           __initialization:
  1388  07D1                     psect	bssBANK0,class=BANK0,space=1,noexec
  1389                           global __pbssBANK0
  1390                           __pbssBANK0:
  1391  0020                     _ap:
  1392  0020                            ds      2
  1393  0020                     
  1394                           _year:
  1395  0022                            ds      2
  1396  0022                     
  1397                           _month:
  1398  0024                            ds      2
  1399  0024                     
  1400                           _dday:
  1401  0026                            ds      2
  1402  0026                     
  1403                           _day:
  1404  0028                            ds      2
  1405  0028                     
  1406                           _hr:
  1407  002A                            ds      2
  1408  002A                     
  1409                           _hour:
  1410  002C                            ds      2
  1411  002C                     
  1412                           _minute:
  1413  002E                            ds      2
  1414  002E                     
  1415                           _second:
  1416  0030                            ds      2
  1417  0030                     
  1418                           _var:
  1419  0032                            ds      2
  1420  0032                     
  1421                           _ala:
  1422  0034                            ds      2
  1423  0034                     
  1424                           _mot3:
  1425  0036                            ds      2
  1426  0036                     
  1427                           _mot2:
  1428  0038                            ds      2
  1429  0038                     
  1430                           _mot1:
  1431  003A                            ds      2
  1432  003A                     
  1433                           _valor5:
  1434  003C                            ds      2
  1435  003C                     
  1436                           _valor4:
  1437  003E                            ds      2
  1438  003E                     
  1439                           _valor3:
  1440  0040                            ds      2
  1441  0040                     
  1442                           _valor2:
  1443  0042                            ds      2
  1444  0042                     
  1445                           _valor1:
  1446  0044                            ds      2
  1447  0044                     
  1448                           _deter:
  1449  0046                            ds      2
  1450  0046                     
  1451                           _valorf:
  1452  0048                            ds      1
  1453  0048                     
  1454                           psect	dataBANK0,class=BANK0,space=1,noexec
  1455                           global __pdataBANK0
  1456                           __pdataBANK0:
  1457  0062                     	file	"Pri-Master.c"
  1458                           	line	77
  1459                           _time:
  1460  0062                            ds      12
  1461  0062                     
  1462                           psect	bssBANK1,class=BANK1,space=1,noexec
  1463                           global __pbssBANK1
  1464                           __pbssBANK1:
  1465  00CA                     _valor:
  1466  00CA                            ds      16
  1467  00CA                     
  1468                           psect	dataBANK1,class=BANK1,space=1,noexec
  1469                           global __pdataBANK1
  1470                           __pdataBANK1:
  1471  00A0                     	file	"Pri-Master.c"
  1472                           	line	76
  1473                           _abajo:
  1474  00A0                            ds      17
  1475  00A0                     
  1476                           psect	dataBANK1
  1477                           	file	"Pri-Master.c"
  1478                           	line	75
  1479                           _arriba:
  1480  00B1                            ds      16
  1481  00B1                     
  1482                           psect	dataBANK1
  1483                           	file	"Pri-Master.c"
  1484                           	line	78
  1485                           _date:
  1486  00C1                            ds      9
  1487  00C1                     
  1488                           	file	"C:\Users\JOSJAV~1\AppData\Local\Temp\s1as."
  1489                           	line	#
  1490                           global btemp
  1491                           psect inittext,class=CODE,delta=2
  1492                           global init_fetch0,btemp
  1493                           ;	Called with low address in FSR and high address in W
  1494                           init_fetch0:
  1495  0DC9                     	movf btemp,w
  1496  0DC9  087E               	movwf pclath
  1497  0DCA  008A               	movf btemp+1,w
  1498  0DCB  087F               	movwf pc
  1499  0DCC  0082               global init_ram0
  1500                           ;Called with:
  1501                           ;	high address of idata address in btemp 
  1502                           ;	low address of idata address in btemp+1 
  1503                           ;	low address of data in FSR
  1504                           ;	high address + 1 of data in btemp-1
  1505                           init_ram0:
  1506  0DCD                     	fcall init_fetch0
  1507  0DCD  120A  158A  25C9  120A  158A  	movwf indf,f
  1508  0DD2  0080               	incf fsr,f
  1509  0DD3  0A84               	movf fsr,w
  1510  0DD4  0804               	xorwf btemp-1,w
  1511  0DD5  067D               	btfsc status,2
  1512  0DD6  1903               	retlw 0
  1513  0DD7  3400               	incf btemp+1,f
  1514  0DD8  0AFF               	btfsc status,2
  1515  0DD9  1903               	incf btemp,f
  1516  0DDA  0AFE               	goto init_ram0
  1517  0DDB  2DCD               ; Initialize objects allocated to BANK1
  1518                           psect cinit,class=CODE,delta=2,merge=1
  1519                           global init_ram0, __pidataBANK1
  1520                           	bcf	status, 7	;select IRP bank0
  1521  07D1  1383               	movlw low(__pdataBANK1+42)
  1522  07D2  30CA               	movwf btemp-1,f
  1523  07D3  00FD               	movlw high(__pidataBANK1)
  1524  07D4  300E               	movwf btemp,f
  1525  07D5  00FE               	movlw low(__pidataBANK1)
  1526  07D6  3074               	movwf btemp+1,f
  1527  07D7  00FF               	movlw low(__pdataBANK1)
  1528  07D8  30A0               	movwf fsr,f
  1529  07D9  0084               	fcall init_ram0
  1530  07DA  120A  158A  25CD  120A  118A  ; Initialize objects allocated to BANK0
  1531                           psect cinit,class=CODE,delta=2,merge=1
  1532                           global init_ram0, __pidataBANK0
  1533                           	movlw low(__pdataBANK0+12)
  1534  07DF  306E               	movwf btemp-1,f
  1535  07E0  00FD               	movlw high(__pidataBANK0)
  1536  07E1  300D               	movwf btemp,f
  1537  07E2  00FE               	movlw low(__pidataBANK0)
  1538  07E3  3063               	movwf btemp+1,f
  1539  07E4  00FF               	movlw low(__pdataBANK0)
  1540  07E5  3062               	movwf fsr,f
  1541  07E6  0084               	fcall init_ram0
  1542  07E7  120A  158A  25CD  120A  118A  	line	#
  1543                           psect clrtext,class=CODE,delta=2
  1544                           global clear_ram0
  1545                           ;	Called with FSR containing the base address, and
  1546                           ;	W with the last address+1
  1547                           clear_ram0:
  1548  0D36                     	clrwdt			;clear the watchdog before getting into this loop
  1549  0D36  0064               clrloop0:
  1550  0D37                     	clrf	indf		;clear RAM location pointed to by FSR
  1551  0D37  0180               	incf	fsr,f		;increment pointer
  1552  0D38  0A84               	xorwf	fsr,w		;XOR with final address
  1553  0D39  0604               	btfsc	status,2	;have we reached the end yet?
  1554  0D3A  1903               	retlw	0		;all done for this memory range, return
  1555  0D3B  3400               	xorwf	fsr,w		;XOR again to restore value
  1556  0D3C  0604               	goto	clrloop0		;do the next byte
  1557  0D3D  2D37               
  1558                           ; Clear objects allocated to BANK1
  1559                           psect cinit,class=CODE,delta=2,merge=1
  1560                           	movlw	low(__pbssBANK1)
  1561  07EC  30CA               	movwf	fsr
  1562  07ED  0084               	movlw	low((__pbssBANK1)+010h)
  1563  07EE  30DA               	fcall	clear_ram0
  1564  07EF  120A  158A  2536  120A  118A  ; Clear objects allocated to BANK0
  1565                           psect cinit,class=CODE,delta=2,merge=1
  1566                           	movlw	low(__pbssBANK0)
  1567  07F4  3020               	movwf	fsr
  1568  07F5  0084               	movlw	low((__pbssBANK0)+029h)
  1569  07F6  3049               	fcall	clear_ram0
  1570  07F7  120A  158A  2536  120A  118A  psect cinit,class=CODE,delta=2,merge=1
  1571                           global end_of_initialization,__end_of__initialization
  1572                           
  1573                           ;End of C runtime variable initialization code
  1574                           
  1575                           end_of_initialization:
  1576  07FC                     __end_of__initialization:
  1577  07FC                     clrf status
  1578  07FC  0183               ljmp _main	;jump to C main() function
  1579  07FD  120A  118A  2C2C   psect	cstackCOMMON,class=COMMON,space=1,noexec
  1580                           global __pcstackCOMMON
  1581                           __pcstackCOMMON:
  1582  0070                     ?_isdigit:	; 1 bit 
  1583  0070                     ?_delay:	; 1 bytes @ 0x0
  1584  0070                     ?_config:	; 1 bytes @ 0x0
  1585  0070                     ??_config:	; 1 bytes @ 0x0
  1586  0070                     ?_mandar:	; 1 bytes @ 0x0
  1587  0070                     ?_servo0:	; 1 bytes @ 0x0
  1588  0070                     ??_servo0:	; 1 bytes @ 0x0
  1589  0070                     ?_servo180:	; 1 bytes @ 0x0
  1590  0070                     ??_servo180:	; 1 bytes @ 0x0
  1591  0070                     ?_PasoCompSimple:	; 1 bytes @ 0x0
  1592  0070                     ??_PasoCompSimple:	; 1 bytes @ 0x0
  1593  0070                     ??_isdigit:	; 1 bytes @ 0x0
  1594  0070                     ?_I2C_Master_Wait:	; 1 bytes @ 0x0
  1595  0070                     ??_I2C_Master_Wait:	; 1 bytes @ 0x0
  1596  0070                     ?_I2C_Master_Start:	; 1 bytes @ 0x0
  1597  0070                     ??_I2C_Master_Start:	; 1 bytes @ 0x0
  1598  0070                     ?_I2C_Master_RepeatedStart:	; 1 bytes @ 0x0
  1599  0070                     ??_I2C_Master_RepeatedStart:	; 1 bytes @ 0x0
  1600  0070                     ?_I2C_Master_Stop:	; 1 bytes @ 0x0
  1601  0070                     ??_I2C_Master_Stop:	; 1 bytes @ 0x0
  1602  0070                     ?_I2C_Master_Write:	; 1 bytes @ 0x0
  1603  0070                     ?_lcd_lat:	; 1 bytes @ 0x0
  1604  0070                     ?_lcd_ready:	; 1 bytes @ 0x0
  1605  0070                     ?_lcd_cmd:	; 1 bytes @ 0x0
  1606  0070                     ?_lcd_init:	; 1 bytes @ 0x0
  1607  0070                     ?_LCD_DATO:	; 1 bytes @ 0x0
  1608  0070                     ?_LCD_CHAR:	; 1 bytes @ 0x0
  1609  0070                     ??_LCD_CHAR:	; 1 bytes @ 0x0
  1610  0070                     ?_BCD2UpperCh:	; 1 bytes @ 0x0
  1611  0070                     ??_BCD2UpperCh:	; 1 bytes @ 0x0
  1612  0070                     ?_BCD2LowerCh:	; 1 bytes @ 0x0
  1613  0070                     ??_BCD2LowerCh:	; 1 bytes @ 0x0
  1614  0070                     ?_main:	; 1 bytes @ 0x0
  1615  0070                     ?___bmul:	; 1 bytes @ 0x0
  1616  0070                     	global	?_I2C_Master_Read
  1617                           ?_I2C_Master_Read:	; 2 bytes @ 0x0
  1618  0070                     	global	?___wmul
  1619                           ?___wmul:	; 2 bytes @ 0x0
  1620  0070                     	global	?___lwdiv
  1621                           ?___lwdiv:	; 2 bytes @ 0x0
  1622  0070                     	global	?___lldiv
  1623                           ?___lldiv:	; 4 bytes @ 0x0
  1624  0070                     	global	BCD2LowerCh@bcd
  1625                           BCD2LowerCh@bcd:	; 1 bytes @ 0x0
  1626  0070                     	global	___bmul@multiplicand
  1627                           ___bmul@multiplicand:	; 1 bytes @ 0x0
  1628  0070                     	global	_isdigit$1149
  1629                           _isdigit$1149:	; 1 bytes @ 0x0
  1630  0070                     	global	I2C_Master_Write@d
  1631                           I2C_Master_Write@d:	; 2 bytes @ 0x0
  1632  0070                     	global	I2C_Master_Read@a
  1633                           I2C_Master_Read@a:	; 2 bytes @ 0x0
  1634  0070                     	global	delay@ms
  1635                           delay@ms:	; 2 bytes @ 0x0
  1636  0070                     	global	LCD_DATO@var
  1637                           LCD_DATO@var:	; 2 bytes @ 0x0
  1638  0070                     	global	mandar@dato
  1639                           mandar@dato:	; 2 bytes @ 0x0
  1640  0070                     	global	___wmul@multiplier
  1641                           ___wmul@multiplier:	; 2 bytes @ 0x0
  1642  0070                     	global	___lwdiv@divisor
  1643                           ___lwdiv@divisor:	; 2 bytes @ 0x0
  1644  0070                     	global	___lldiv@divisor
  1645                           ___lldiv@divisor:	; 4 bytes @ 0x0
  1646  0070                     	ds	1
  1647  0070                     ??___bmul:	; 1 bytes @ 0x1
  1648  0071                     	global	LCD_CHAR@a
  1649                           LCD_CHAR@a:	; 1 bytes @ 0x1
  1650  0071                     	global	BCD2UpperCh@bcd
  1651                           BCD2UpperCh@bcd:	; 1 bytes @ 0x1
  1652  0071                     	global	isdigit@c
  1653                           isdigit@c:	; 1 bytes @ 0x1
  1654  0071                     	ds	1
  1655  0071                     ??_delay:	; 1 bytes @ 0x2
  1656  0072                     ??_mandar:	; 1 bytes @ 0x2
  1657  0072                     ??_I2C_Master_Write:	; 1 bytes @ 0x2
  1658  0072                     ??_I2C_Master_Read:	; 1 bytes @ 0x2
  1659  0072                     ??_LCD_DATO:	; 1 bytes @ 0x2
  1660  0072                     ?_LCD_STRING:	; 1 bytes @ 0x2
  1661  0072                     	global	___bmul@product
  1662                           ___bmul@product:	; 1 bytes @ 0x2
  1663  0072                     	global	delay@j
  1664                           delay@j:	; 2 bytes @ 0x2
  1665  0072                     	global	LCD_STRING@a
  1666                           LCD_STRING@a:	; 2 bytes @ 0x2
  1667  0072                     	global	servo0@i
  1668                           servo0@i:	; 2 bytes @ 0x2
  1669  0072                     	global	servo180@i
  1670                           servo180@i:	; 2 bytes @ 0x2
  1671  0072                     	global	___wmul@multiplicand
  1672                           ___wmul@multiplicand:	; 2 bytes @ 0x2
  1673  0072                     	global	___lwdiv@dividend
  1674                           ___lwdiv@dividend:	; 2 bytes @ 0x2
  1675  0072                     	ds	1
  1676  0072                     	global	___bmul@multiplier
  1677                           ___bmul@multiplier:	; 1 bytes @ 0x3
  1678  0073                     	ds	1
  1679  0073                     ?_LCD_CURSOR:	; 1 bytes @ 0x4
  1680  0074                     ??_LCD_STRING:	; 1 bytes @ 0x4
  1681  0074                     ??___wmul:	; 1 bytes @ 0x4
  1682  0074                     ??___lwdiv:	; 1 bytes @ 0x4
  1683  0074                     	global	I2C_Master_Read@temp
  1684                           I2C_Master_Read@temp:	; 2 bytes @ 0x4
  1685  0074                     	global	delay@i
  1686                           delay@i:	; 2 bytes @ 0x4
  1687  0074                     	global	LCD_CURSOR@a
  1688                           LCD_CURSOR@a:	; 2 bytes @ 0x4
  1689  0074                     	global	___wmul@product
  1690                           ___wmul@product:	; 2 bytes @ 0x4
  1691  0074                     	global	___lldiv@dividend
  1692                           ___lldiv@dividend:	; 4 bytes @ 0x4
  1693  0074                     	ds	1
  1694  0074                     	global	___lwdiv@quotient
  1695                           ___lwdiv@quotient:	; 2 bytes @ 0x5
  1696  0075                     	ds	1
  1697  0075                     ??_lcd_lat:	; 1 bytes @ 0x6
  1698  0076                     ??_lcd_ready:	; 1 bytes @ 0x6
  1699  0076                     	global	?_atoi
  1700                           ?_atoi:	; 2 bytes @ 0x6
  1701  0076                     	global	?_read_ds1307
  1702                           ?_read_ds1307:	; 2 bytes @ 0x6
  1703  0076                     	global	LCD_CURSOR@b
  1704                           LCD_CURSOR@b:	; 2 bytes @ 0x6
  1705  0076                     	global	read_ds1307@address
  1706                           read_ds1307@address:	; 2 bytes @ 0x6
  1707  0076                     	ds	1
  1708  0076                     ??_lcd_cmd:	; 1 bytes @ 0x7
  1709  0077                     	global	lcd_cmd@x
  1710                           lcd_cmd@x:	; 1 bytes @ 0x7
  1711  0077                     	global	___lwdiv@counter
  1712                           ___lwdiv@counter:	; 1 bytes @ 0x7
  1713  0077                     	global	LCD_STRING@n
  1714                           LCD_STRING@n:	; 2 bytes @ 0x7
  1715  0077                     	ds	1
  1716  0077                     ??_atoi:	; 1 bytes @ 0x8
  1717  0078                     ??_lcd_init:	; 1 bytes @ 0x8
  1718  0078                     ??_LCD_CURSOR:	; 1 bytes @ 0x8
  1719  0078                     ??_read_ds1307:	; 1 bytes @ 0x8
  1720  0078                     ??___lldiv:	; 1 bytes @ 0x8
  1721  0078                     	global	?___lwmod
  1722                           ?___lwmod:	; 2 bytes @ 0x8
  1723  0078                     	global	LCD_CURSOR@d
  1724                           LCD_CURSOR@d:	; 2 bytes @ 0x8
  1725  0078                     	global	read_ds1307@r_data
  1726                           read_ds1307@r_data:	; 2 bytes @ 0x8
  1727  0078                     	global	___lwmod@divisor
  1728                           ___lwmod@divisor:	; 2 bytes @ 0x8
  1729  0078                     	ds	1
  1730  0078                     	global	___lldiv@quotient
  1731                           ___lldiv@quotient:	; 4 bytes @ 0x9
  1732  0079                     	ds	1
  1733  0079                     	global	atoi@sign
  1734                           atoi@sign:	; 1 bytes @ 0xA
  1735  007A                     	global	___lwmod@dividend
  1736                           ___lwmod@dividend:	; 2 bytes @ 0xA
  1737  007A                     	ds	1
  1738  007A                     	global	atoi@a
  1739                           atoi@a:	; 2 bytes @ 0xB
  1740  007B                     	ds	1
  1741  007B                     ??___lwmod:	; 1 bytes @ 0xC
  1742  007C                     	ds	1
  1743  007C                     	global	___lldiv@counter
  1744                           ___lldiv@counter:	; 1 bytes @ 0xD
  1745  007D                     	global	___lwmod@counter
  1746                           ___lwmod@counter:	; 1 bytes @ 0xD
  1747  007D                     	global	atoi@s
  1748                           atoi@s:	; 1 bytes @ 0xD
  1749  007D                     	ds	1
  1750  007D                     psect	cstackBANK0,class=BANK0,space=1,noexec
  1751                           global __pcstackBANK0
  1752                           __pcstackBANK0:
  1753  0049                     ?_I2C_Master_Init:	; 1 bytes @ 0x0
  1754  0049                     	global	?_sprintf
  1755                           ?_sprintf:	; 2 bytes @ 0x0
  1756  0049                     	global	sprintf@f
  1757                           sprintf@f:	; 1 bytes @ 0x0
  1758  0049                     	global	I2C_Master_Init@c
  1759                           I2C_Master_Init@c:	; 4 bytes @ 0x0
  1760  0049                     	ds	4
  1761  0049                     ??_I2C_Master_Init:	; 1 bytes @ 0x4
  1762  004D                     	ds	7
  1763  004D                     ??_sprintf:	; 1 bytes @ 0xB
  1764  0054                     	ds	3
  1765  0054                     	global	sprintf@ap
  1766                           sprintf@ap:	; 1 bytes @ 0xE
  1767  0057                     	ds	1
  1768  0057                     	global	sprintf@flag
  1769                           sprintf@flag:	; 1 bytes @ 0xF
  1770  0058                     	ds	1
  1771  0058                     	global	sprintf@sp
  1772                           sprintf@sp:	; 1 bytes @ 0x10
  1773  0059                     	ds	1
  1774  0059                     	global	sprintf@val
  1775                           sprintf@val:	; 2 bytes @ 0x11
  1776  005A                     	ds	2
  1777  005A                     	global	sprintf@prec
  1778                           sprintf@prec:	; 1 bytes @ 0x13
  1779  005C                     	ds	1
  1780  005C                     	global	sprintf@c
  1781                           sprintf@c:	; 1 bytes @ 0x14
  1782  005D                     	ds	1
  1783  005D                     ??_main:	; 1 bytes @ 0x15
  1784  005E                     	ds	2
  1785  005E                     	global	main@cont
  1786                           main@cont:	; 2 bytes @ 0x17
  1787  0060                     	ds	2
  1788  0060                     ;!
  1789                           ;!Data Sizes:
  1790                           ;!    Strings     53
  1791                           ;!    Constant    10
  1792                           ;!    Data        54
  1793                           ;!    BSS         57
  1794                           ;!    Persistent  0
  1795                           ;!    Stack       0
  1796                           ;!
  1797                           ;!Auto Spaces:
  1798                           ;!    Space          Size  Autos    Used
  1799                           ;!    COMMON           14     14      14
  1800                           ;!    BANK0            80     25      78
  1801                           ;!    BANK1            80      0      58
  1802                           ;!    BANK3            96      0       0
  1803                           ;!    BANK2            96      0       0
  1804                           
  1805                           ;!
  1806                           ;!Pointer List with Targets:
  1807                           ;!
  1808                           ;!    atoi@s	PTR const unsigned char  size(1) Largest target is 1
  1809                           ;!		 -> valorf(BANK0[1]), 
  1810                           ;!
  1811                           ;!    sprintf@f	PTR const unsigned char  size(1) Largest target is 25
  1812                           ;!		 -> STR_3(CODE[25]), 
  1813                           ;!
  1814                           ;!    sprintf@sp	PTR unsigned char  size(1) Largest target is 16
  1815                           ;!		 -> valor(BANK1[16]), 
  1816                           ;!
  1817                           ;!    sprintf@ap	PTR void [1] size(1) Largest target is 2
  1818                           ;!		 -> ?_sprintf(BANK0[2]), 
  1819                           ;!
  1820                           ;!    LCD_STRING@a	PTR unsigned char  size(2) Largest target is 16
  1821                           ;!		 -> valor(BANK1[16]), time(BANK0[12]), STR_2(CODE[16]), STR_1(CODE[12]), 
  1822                           ;!
  1823                           
  1824                           
  1825                           ;!
  1826                           ;!Critical Paths under _main in COMMON
  1827                           ;!
  1828                           ;!    _main->_atoi
  1829                           ;!    _sprintf->___lwmod
  1830                           ;!    ___lwmod->___lwdiv
  1831                           ;!    _read_ds1307->_I2C_Master_Read
  1832                           ;!    _lcd_init->_lcd_cmd
  1833                           ;!    _lcd_cmd->_lcd_ready
  1834                           ;!    _lcd_ready->_delay
  1835                           ;!    _lcd_lat->_delay
  1836                           ;!    _atoi->___wmul
  1837                           ;!    _LCD_STRING->_LCD_CHAR
  1838                           ;!    _LCD_CURSOR->_LCD_DATO
  1839                           ;!    _I2C_Master_Init->___lldiv
  1840                           ;!
  1841                           ;!Critical Paths under _main in BANK0
  1842                           ;!
  1843                           ;!    _main->_sprintf
  1844                           ;!
  1845                           ;!Critical Paths under _main in BANK1
  1846                           ;!
  1847                           ;!    None.
  1848                           ;!
  1849                           ;!Critical Paths under _main in BANK3
  1850                           ;!
  1851                           ;!    None.
  1852                           ;!
  1853                           ;!Critical Paths under _main in BANK2
  1854                           ;!
  1855                           ;!    None.
  1856                           
  1857 ;;
  1858 ;;Main: autosize = 0, tempsize = 2, incstack = 0, save=0
  1859 ;;
  1860                           
  1861                           ;!
  1862                           ;!Call Graph Tables:
  1863                           ;!
  1864                           ;! ---------------------------------------------------------------------------------
  1865                           ;! (Depth) Function   	        Calls       Base Space   Used Autos Params    Refs
  1866                           ;! ---------------------------------------------------------------------------------
  1867                           ;! (0) _main                                                 4     4      0   10416
  1868                           ;!                                             21 BANK0      4     4      0
  1869                           ;!                        _BCD2LowerCh
  1870                           ;!                        _BCD2UpperCh
  1871                           ;!                    _I2C_Master_Init
  1872                           ;!                    _I2C_Master_Read
  1873                           ;!                   _I2C_Master_Start
  1874                           ;!                    _I2C_Master_Stop
  1875                           ;!                   _I2C_Master_Write
  1876                           ;!                         _LCD_CURSOR
  1877                           ;!                           _LCD_DATO
  1878                           ;!                         _LCD_STRING
  1879                           ;!                     _PasoCompSimple
  1880                           ;!                               _atoi
  1881                           ;!                             _config
  1882                           ;!                              _delay
  1883                           ;!                           _lcd_init
  1884                           ;!                             _mandar
  1885                           ;!                        _read_ds1307
  1886                           ;!                             _servo0
  1887                           ;!                           _servo180
  1888                           ;!                            _sprintf
  1889                           ;! ---------------------------------------------------------------------------------
  1890                           ;! (1) _sprintf                                             29    18     11    1696
  1891                           ;!                                              0 BANK0     21    10     11
  1892                           ;!                             ___bmul
  1893                           ;!                            ___lwdiv
  1894                           ;!                            ___lwmod
  1895                           ;!                            _isdigit
  1896                           ;! ---------------------------------------------------------------------------------
  1897                           ;! (2) ___lwmod                                              6     2      4     311
  1898                           ;!                                              8 COMMON     6     2      4
  1899                           ;!                            ___lwdiv (ARG)
  1900                           ;! ---------------------------------------------------------------------------------
  1901                           ;! (2) ___lwdiv                                              8     4      4     314
  1902                           ;!                                              0 COMMON     8     4      4
  1903                           ;! ---------------------------------------------------------------------------------
  1904                           ;! (2) ___bmul                                               4     3      1     168
  1905                           ;!                                              0 COMMON     4     3      1
  1906                           ;! ---------------------------------------------------------------------------------
  1907                           ;! (1) _servo180                                             4     4      0      46
  1908                           ;!                                              0 COMMON     4     4      0
  1909                           ;! ---------------------------------------------------------------------------------
  1910                           ;! (1) _servo0                                               4     4      0      46
  1911                           ;!                                              0 COMMON     4     4      0
  1912                           ;! ---------------------------------------------------------------------------------
  1913                           ;! (1) _read_ds1307                                          4     2      2    2392
  1914                           ;!                                              6 COMMON     4     2      2
  1915                           ;!                    _I2C_Master_Read
  1916                           ;!           _I2C_Master_RepeatedStart
  1917                           ;!                   _I2C_Master_Start
  1918                           ;!                    _I2C_Master_Stop
  1919                           ;!                   _I2C_Master_Write
  1920                           ;! ---------------------------------------------------------------------------------
  1921                           ;! (2) _I2C_Master_Write                                     2     0      2    1466
  1922                           ;!                                              0 COMMON     2     0      2
  1923                           ;!                    _I2C_Master_Wait
  1924                           ;! ---------------------------------------------------------------------------------
  1925                           ;! (2) _I2C_Master_Stop                                      0     0      0       0
  1926                           ;!                    _I2C_Master_Wait
  1927                           ;! ---------------------------------------------------------------------------------
  1928                           ;! (2) _I2C_Master_Start                                     0     0      0       0
  1929                           ;!                    _I2C_Master_Wait
  1930                           ;! ---------------------------------------------------------------------------------
  1931                           ;! (2) _I2C_Master_RepeatedStart                             0     0      0       0
  1932                           ;!                    _I2C_Master_Wait
  1933                           ;! ---------------------------------------------------------------------------------
  1934                           ;! (2) _I2C_Master_Read                                      6     4      2     349
  1935                           ;!                                              0 COMMON     6     4      2
  1936                           ;!                    _I2C_Master_Wait
  1937                           ;! ---------------------------------------------------------------------------------
  1938                           ;! (3) _I2C_Master_Wait                                      0     0      0       0
  1939                           ;! ---------------------------------------------------------------------------------
  1940                           ;! (1) _mandar                                               2     0      2     478
  1941                           ;!                                              0 COMMON     2     0      2
  1942                           ;! ---------------------------------------------------------------------------------
  1943                           ;! (1) _lcd_init                                             0     0      0     814
  1944                           ;!                            _lcd_cmd
  1945                           ;! ---------------------------------------------------------------------------------
  1946                           ;! (2) _lcd_cmd                                              1     1      0     814
  1947                           ;!                                              7 COMMON     1     1      0
  1948                           ;!                            _lcd_lat
  1949                           ;!                          _lcd_ready
  1950                           ;! ---------------------------------------------------------------------------------
  1951                           ;! (3) _lcd_ready                                            1     1      0     396
  1952                           ;!                                              6 COMMON     1     1      0
  1953                           ;!                              _delay
  1954                           ;! ---------------------------------------------------------------------------------
  1955                           ;! (3) _lcd_lat                                              0     0      0     396
  1956                           ;!                              _delay
  1957                           ;! ---------------------------------------------------------------------------------
  1958                           ;! (4) _delay                                                6     4      2     396
  1959                           ;!                                              0 COMMON     6     4      2
  1960                           ;! ---------------------------------------------------------------------------------
  1961                           ;! (1) _config                                               0     0      0       0
  1962                           ;! ---------------------------------------------------------------------------------
  1963                           ;! (1) _atoi                                                 8     6      2     725
  1964                           ;!                                              6 COMMON     8     6      2
  1965                           ;!                             ___wmul
  1966                           ;!                            _isdigit
  1967                           ;! ---------------------------------------------------------------------------------
  1968                           ;! (2) _isdigit                                              2     2      0      68
  1969                           ;!                                              0 COMMON     2     2      0
  1970                           ;! ---------------------------------------------------------------------------------
  1971                           ;! (2) ___wmul                                               6     2      4     396
  1972                           ;!                                              0 COMMON     6     2      4
  1973                           ;! ---------------------------------------------------------------------------------
  1974                           ;! (1) _PasoCompSimple                                       2     2      0       0
  1975                           ;!                                              0 COMMON     2     2      0
  1976                           ;! ---------------------------------------------------------------------------------
  1977                           ;! (1) _LCD_STRING                                           7     5      2     416
  1978                           ;!                                              2 COMMON     7     5      2
  1979                           ;!                           _LCD_CHAR
  1980                           ;! ---------------------------------------------------------------------------------
  1981                           ;! (2) _LCD_CHAR                                             2     2      0      22
  1982                           ;!                                              0 COMMON     2     2      0
  1983                           ;! ---------------------------------------------------------------------------------
  1984                           ;! (1) _LCD_CURSOR                                           6     2      4     764
  1985                           ;!                                              4 COMMON     6     2      4
  1986                           ;!                           _LCD_DATO
  1987                           ;! ---------------------------------------------------------------------------------
  1988                           ;! (1) _LCD_DATO                                             4     2      2     326
  1989                           ;!                                              0 COMMON     4     2      2
  1990                           ;! ---------------------------------------------------------------------------------
  1991                           ;! (1) _I2C_Master_Init                                      8     4      4     412
  1992                           ;!                                              0 BANK0      8     4      4
  1993                           ;!                            ___lldiv
  1994                           ;! ---------------------------------------------------------------------------------
  1995                           ;! (2) ___lldiv                                             14     6      8     314
  1996                           ;!                                              0 COMMON    14     6      8
  1997                           ;! ---------------------------------------------------------------------------------
  1998                           ;! (1) _BCD2UpperCh                                          2     2      0      22
  1999                           ;!                                              0 COMMON     2     2      0
  2000                           ;! ---------------------------------------------------------------------------------
  2001                           ;! (1) _BCD2LowerCh                                          1     1      0      22
  2002                           ;!                                              0 COMMON     1     1      0
  2003                           ;! ---------------------------------------------------------------------------------
  2004                           ;! Estimated maximum stack depth 4
  2005                           ;! ---------------------------------------------------------------------------------
  2006                           ;!
  2007                           ;! Call Graph Graphs:
  2008                           ;!
  2009                           ;! _main (ROOT)
  2010                           ;!   _BCD2LowerCh
  2011                           ;!   _BCD2UpperCh
  2012                           ;!   _I2C_Master_Init
  2013                           ;!     ___lldiv
  2014                           ;!   _I2C_Master_Read
  2015                           ;!     _I2C_Master_Wait
  2016                           ;!   _I2C_Master_Start
  2017                           ;!     _I2C_Master_Wait
  2018                           ;!   _I2C_Master_Stop
  2019                           ;!     _I2C_Master_Wait
  2020                           ;!   _I2C_Master_Write
  2021                           ;!     _I2C_Master_Wait
  2022                           ;!   _LCD_CURSOR
  2023                           ;!     _LCD_DATO
  2024                           ;!   _LCD_DATO
  2025                           ;!   _LCD_STRING
  2026                           ;!     _LCD_CHAR
  2027                           ;!   _PasoCompSimple
  2028                           ;!   _atoi
  2029                           ;!     ___wmul
  2030                           ;!     _isdigit
  2031                           ;!   _config
  2032                           ;!   _delay
  2033                           ;!   _lcd_init
  2034                           ;!     _lcd_cmd
  2035                           ;!       _lcd_lat
  2036                           ;!         _delay
  2037                           ;!       _lcd_ready
  2038                           ;!         _delay
  2039                           ;!   _mandar
  2040                           ;!   _read_ds1307
  2041                           ;!     _I2C_Master_Read
  2042                           ;!       _I2C_Master_Wait
  2043                           ;!     _I2C_Master_RepeatedStart
  2044                           ;!       _I2C_Master_Wait
  2045                           ;!     _I2C_Master_Start
  2046                           ;!       _I2C_Master_Wait
  2047                           ;!     _I2C_Master_Stop
  2048                           ;!       _I2C_Master_Wait
  2049                           ;!     _I2C_Master_Write
  2050                           ;!       _I2C_Master_Wait
  2051                           ;!   _servo0
  2052                           ;!   _servo180
  2053                           ;!   _sprintf
  2054                           ;!     ___bmul
  2055                           ;!     ___lwdiv
  2056                           ;!     ___lwmod
  2057                           ;!       ___lwdiv (ARG)
  2058                           ;!     _isdigit
  2059                           ;!
  2060                           
  2061                           ;! Address spaces:
  2062                           
  2063                           ;!Name               Size   Autos  Total    Cost      Usage
  2064                           ;!BANK3               60      0       0       9        0.0%
  2065                           ;!BITBANK3            60      0       0       8        0.0%
  2066                           ;!SFR3                 0      0       0       4        0.0%
  2067                           ;!BITSFR3              0      0       0       4        0.0%
  2068                           ;!BANK2               60      0       0      11        0.0%
  2069                           ;!BITBANK2            60      0       0      10        0.0%
  2070                           ;!SFR2                 0      0       0       5        0.0%
  2071                           ;!BITSFR2              0      0       0       5        0.0%
  2072                           ;!BANK1               50      0      3A       7       72.5%
  2073                           ;!BITBANK1            50      0       0       6        0.0%
  2074                           ;!SFR1                 0      0       0       2        0.0%
  2075                           ;!BITSFR1              0      0       0       2        0.0%
  2076                           ;!BANK0               50     19      4E       5       97.5%
  2077                           ;!BITBANK0            50      0       0       4        0.0%
  2078                           ;!SFR0                 0      0       0       1        0.0%
  2079                           ;!BITSFR0              0      0       0       1        0.0%
  2080                           ;!COMMON               E      E       E       1      100.0%
  2081                           ;!BITCOMMON            E      0       0       0        0.0%
  2082                           ;!CODE                 0      0       0       0        0.0%
  2083                           ;!DATA                 0      0      96      12        0.0%
  2084                           ;!ABS                  0      0      96       3        0.0%
  2085                           ;!NULL                 0      0       0       0        0.0%
  2086                           ;!STACK                0      0       0       2        0.0%
  2087                           ;!EEDATA             100      0       0       0        0.0%
  2088                           
  2089                           	global	_main
  2090                           
  2091 ;; *************** function _main *****************
  2092 ;; Defined at:
  2093 ;;		line 80 in file "Pri-Master.c"
  2094 ;; Parameters:    Size  Location     Type
  2095 ;;		None
  2096 ;; Auto vars:     Size  Location     Type
  2097 ;;  cont            2   23[BANK0 ] int 
  2098 ;; Return value:  Size  Location     Type
  2099 ;;                  1    wreg      void 
  2100 ;; Registers used:
  2101 ;;		wreg, fsr0l, fsr0h, status,2, status,0, btemp+1, pclath, cstack
  2102 ;; Tracked objects:
  2103 ;;		On entry : B00/0
  2104 ;;		On exit  : 0/0
  2105 ;;		Unchanged: 0/0
  2106 ;; Data sizes:     COMMON   BANK0   BANK1   BANK3   BANK2
  2107 ;;      Params:         0       0       0       0       0
  2108 ;;      Locals:         0       2       0       0       0
  2109 ;;      Temps:          0       2       0       0       0
  2110 ;;      Totals:         0       4       0       0       0
  2111 ;;Total ram usage:        4 bytes
  2112 ;; Hardware stack levels required when called:    4
  2113 ;; This function calls:
  2114 ;;		_BCD2LowerCh
  2115 ;;		_BCD2UpperCh
  2116 ;;		_I2C_Master_Init
  2117 ;;		_I2C_Master_Read
  2118 ;;		_I2C_Master_Start
  2119 ;;		_I2C_Master_Stop
  2120 ;;		_I2C_Master_Write
  2121 ;;		_LCD_CURSOR
  2122 ;;		_LCD_DATO
  2123 ;;		_LCD_STRING
  2124 ;;		_PasoCompSimple
  2125 ;;		_atoi
  2126 ;;		_config
  2127 ;;		_delay
  2128 ;;		_lcd_init
  2129 ;;		_mandar
  2130 ;;		_read_ds1307
  2131 ;;		_servo0
  2132 ;;		_servo180
  2133 ;;		_sprintf
  2134 ;; This function is called by:
  2135 ;;		Startup code after reset
  2136 ;; This function uses a non-reentrant model
  2137 ;;
  2138                           psect	maintext,global,class=CODE,delta=2,split=1,group=0
  2139                           	file	"Pri-Master.c"
  2140                           	line	80
  2141                           global __pmaintext
  2142                           __pmaintext:	;psect for function _main
  2143  042C                     psect	maintext
  2144                           	file	"Pri-Master.c"
  2145                           	line	80
  2146                           	global	__size_of_main
  2147                           	__size_of_main	equ	__end_of_main-_main
  2148  03A5                     	
  2149                           _main:	
  2150  042C                     ;incstack = 0
  2151                           	opt	stack 4
  2152                           ; Regs used in _main: [wreg-fsr0h+status,2+status,0+btemp+1+pclath+cstack]
  2153                           	line	81
  2154                           	
  2155                           l2445:	
  2156  042C                     ;Pri-Master.c: 81:     TRISD = 0x00;
  2157                           	bsf	status, 5	;RP0=1, select bank1
  2158  042C  1683               	bcf	status, 6	;RP1=0, select bank1
  2159  042D  1303               	clrf	(136)^080h	;volatile
  2160  042E  0188               	line	82
  2161                           ;Pri-Master.c: 82:     TRISB = 0x00;
  2162                           	clrf	(134)^080h	;volatile
  2163  042F  0186               	line	83
  2164                           ;Pri-Master.c: 83:     TRISA = 0X00;
  2165                           	clrf	(133)^080h	;volatile
  2166  0430  0185               	line	84
  2167                           	
  2168                           l2447:	
  2169  0431                     ;Pri-Master.c: 84:     TRISCbits.TRISC0 = 1;
  2170                           	bsf	(135)^080h,0	;volatile
  2171  0431  1407               	line	85
  2172                           ;Pri-Master.c: 85:     ANSEL = 0;
  2173                           	bsf	status, 5	;RP0=1, select bank3
  2174  0432  1683               	bsf	status, 6	;RP1=1, select bank3
  2175  0433  1703               	clrf	(392)^0180h	;volatile
  2176  0434  0188               	line	86
  2177                           ;Pri-Master.c: 86:     ANSELH = 0;
  2178                           	clrf	(393)^0180h	;volatile
  2179  0435  0189               	line	87
  2180                           ;Pri-Master.c: 87:     PORTB = 0;
  2181                           	bcf	status, 5	;RP0=0, select bank0
  2182  0436  1283               	bcf	status, 6	;RP1=0, select bank0
  2183  0437  1303               	clrf	(6)	;volatile
  2184  0438  0186               	line	88
  2185                           ;Pri-Master.c: 88:     PORTA = 0;
  2186                           	clrf	(5)	;volatile
  2187  0439  0185               	line	89
  2188                           ;Pri-Master.c: 89:     PORTD = 0;
  2189                           	clrf	(8)	;volatile
  2190  043A  0188               	line	90
  2191                           	
  2192                           l2449:	
  2193  043B                     ;Pri-Master.c: 90:     PORTAbits.RA2 = 1;
  2194                           	bsf	(5),2	;volatile
  2195  043B  1505               	line	91
  2196                           	
  2197                           l2451:	
  2198  043C                     ;Pri-Master.c: 91:     I2C_Master_Init(100000);
  2199                           	movlw	0
  2200  043C  3000               	movwf	(I2C_Master_Init@c+3)
  2201  043D  00CC               	movlw	01h
  2202  043E  3001               	movwf	(I2C_Master_Init@c+2)
  2203  043F  00CB               	movlw	086h
  2204  0440  3086               	movwf	(I2C_Master_Init@c+1)
  2205  0441  00CA               	movlw	0A0h
  2206  0442  30A0               	movwf	(I2C_Master_Init@c)
  2207  0443  00C9               
  2208                           	fcall	_I2C_Master_Init
  2209  0444  120A  158A  27C8  120A  118A  	line	92
  2210                           	
  2211                           l2453:	
  2212  0449                     ;Pri-Master.c: 92:     config();
  2213                           	fcall	_config
  2214  0449  120A  118A  2052  120A  118A  	line	93
  2215                           	
  2216                           l2455:	
  2217  044E                     ;Pri-Master.c: 93:     lcd_init();
  2218                           	fcall	_lcd_init
  2219  044E  120A  158A  2609  120A  118A  	line	94
  2220                           	
  2221                           l2457:	
  2222  0453                     ;Pri-Master.c: 94:     LCD_STRING("JOSE JAVIER");
  2223                           	movlw	(low((((STR_1)-__stringbase)|8000h)))&0ffh
  2224  0453  3034               	movwf	(LCD_STRING@a)
  2225  0454  00F2               	movlw	80h
  2226  0455  3080               	movwf	(LCD_STRING@a+1)
  2227  0456  00F3               	fcall	_LCD_STRING
  2228  0457  120A  118A  2120  120A  118A  	line	95
  2229                           	
  2230                           l2459:	
  2231  045C                     ;Pri-Master.c: 95:     LCD_DATO(0xC0);
  2232                           	movlw	0C0h
  2233  045C  30C0               	movwf	(LCD_DATO@var)
  2234  045D  00F0               	movlw	0
  2235  045E  3000               	movwf	((LCD_DATO@var))+1
  2236  045F  00F1               	fcall	_LCD_DATO
  2237  0460  120A  158A  2628  120A  118A  	line	96
  2238                           	
  2239                           l2461:	
  2240  0465                     ;Pri-Master.c: 96:     LCD_STRING("ESTRADA  #17078");
  2241                           	movlw	(low((((STR_2)-__stringbase)|8000h)))&0ffh
  2242  0465  3024               	movwf	(LCD_STRING@a)
  2243  0466  00F2               	movlw	80h
  2244  0467  3080               	movwf	(LCD_STRING@a+1)
  2245  0468  00F3               	fcall	_LCD_STRING
  2246  0469  120A  118A  2120  120A  118A  	line	97
  2247                           	
  2248                           l2463:	
  2249  046E                     ;Pri-Master.c: 97:     delay(500);
  2250                           	movlw	0F4h
  2251  046E  30F4               	movwf	(delay@ms)
  2252  046F  00F0               	movlw	01h
  2253  0470  3001               	movwf	((delay@ms))+1
  2254  0471  00F1               	fcall	_delay
  2255  0472  120A  158A  26FA  120A  118A  	line	98
  2256                           	
  2257                           l2465:	
  2258  0477                     ;Pri-Master.c: 98:     LCD_DATO(0x01);
  2259                           	movlw	01h
  2260  0477  3001               	movwf	(LCD_DATO@var)
  2261  0478  00F0               	movlw	0
  2262  0479  3000               	movwf	((LCD_DATO@var))+1
  2263  047A  00F1               	fcall	_LCD_DATO
  2264  047B  120A  158A  2628  120A  118A  	goto	l2467
  2265  0480  2C81               	line	99
  2266                           ;Pri-Master.c: 99:     while(1)
  2267                           	
  2268                           l374:	
  2269  0481                     	line	102
  2270                           	
  2271                           l2467:	
  2272  0481                     ;Pri-Master.c: 100:     {;Pri-Master.c: 102:         I2C_Master_Start();
  2273                           	fcall	_I2C_Master_Start
  2274  0481  120A  158A  2547  120A  118A  	line	103
  2275                           	
  2276                           l2469:	
  2277  0486                     ;Pri-Master.c: 103:         I2C_Master_Write(0x51);
  2278                           	movlw	051h
  2279  0486  3051               	movwf	(I2C_Master_Write@d)
  2280  0487  00F0               	movlw	0
  2281  0488  3000               	movwf	((I2C_Master_Write@d))+1
  2282  0489  00F1               	fcall	_I2C_Master_Write
  2283  048A  120A  158A  2559  120A  118A  	line	104
  2284                           	
  2285                           l2471:	
  2286  048F                     ;Pri-Master.c: 104:         valor1 = I2C_Master_Read(0);
  2287                           	movlw	0
  2288  048F  3000               	movwf	(I2C_Master_Read@a)
  2289  0490  00F0               	movwf	(I2C_Master_Read@a+1)
  2290  0491  00F1               	fcall	_I2C_Master_Read
  2291  0492  120A  158A  26CB  120A  118A  	movf	(1+(?_I2C_Master_Read)),w
  2292  0497  0871               	bcf	status, 5	;RP0=0, select bank0
  2293  0498  1283               	bcf	status, 6	;RP1=0, select bank0
  2294  0499  1303               	movwf	(_valor1+1)
  2295  049A  00C5               	movf	(0+(?_I2C_Master_Read)),w
  2296  049B  0870               	movwf	(_valor1)
  2297  049C  00C4               	line	105
  2298                           	
  2299                           l2473:	
  2300  049D                     ;Pri-Master.c: 105:         I2C_Master_Stop();
  2301                           	fcall	_I2C_Master_Stop
  2302  049D  120A  158A  2550  120A  118A  	line	106
  2303                           	
  2304                           l2475:	
  2305  04A2                     ;Pri-Master.c: 106:         _delay((unsigned long)((20)*(4000000/4000.0)));
  2306                           	opt asmopt_push
  2307                           opt asmopt_off
  2308                           movlw	26
  2309  04A2  301A               	bcf	status, 5	;RP0=0, select bank0
  2310  04A3  1283               	bcf	status, 6	;RP1=0, select bank0
  2311  04A4  1303               movwf	((??_main+0)+0+1),f
  2312  04A5  00DF               	movlw	247
  2313  04A6  30F7               movwf	((??_main+0)+0),f
  2314  04A7  00DE               	u1847:
  2315  04A8                     decfsz	((??_main+0)+0),f
  2316  04A8  0BDE               	goto	u1847
  2317  04A9  2CA8               	decfsz	((??_main+0)+0+1),f
  2318  04AA  0BDF               	goto	u1847
  2319  04AB  2CA8               	nop2
  2320  04AC  2CAD               opt asmopt_pop
  2321                           
  2322                           	line	108
  2323                           	
  2324                           l2477:	
  2325  04AD                     ;Pri-Master.c: 108:         I2C_Master_Start();
  2326                           	fcall	_I2C_Master_Start
  2327  04AD  120A  158A  2547  120A  118A  	line	109
  2328                           	
  2329                           l2479:	
  2330  04B2                     ;Pri-Master.c: 109:         I2C_Master_Write(0x61);
  2331                           	movlw	061h
  2332  04B2  3061               	movwf	(I2C_Master_Write@d)
  2333  04B3  00F0               	movlw	0
  2334  04B4  3000               	movwf	((I2C_Master_Write@d))+1
  2335  04B5  00F1               	fcall	_I2C_Master_Write
  2336  04B6  120A  158A  2559  120A  118A  	line	110
  2337                           	
  2338                           l2481:	
  2339  04BB                     ;Pri-Master.c: 110:         valor2 = I2C_Master_Read(0);
  2340                           	movlw	0
  2341  04BB  3000               	movwf	(I2C_Master_Read@a)
  2342  04BC  00F0               	movwf	(I2C_Master_Read@a+1)
  2343  04BD  00F1               	fcall	_I2C_Master_Read
  2344  04BE  120A  158A  26CB  120A  118A  	movf	(1+(?_I2C_Master_Read)),w
  2345  04C3  0871               	bcf	status, 5	;RP0=0, select bank0
  2346  04C4  1283               	bcf	status, 6	;RP1=0, select bank0
  2347  04C5  1303               	movwf	(_valor2+1)
  2348  04C6  00C3               	movf	(0+(?_I2C_Master_Read)),w
  2349  04C7  0870               	movwf	(_valor2)
  2350  04C8  00C2               	line	111
  2351                           	
  2352                           l2483:	
  2353  04C9                     ;Pri-Master.c: 111:         I2C_Master_Stop();
  2354                           	fcall	_I2C_Master_Stop
  2355  04C9  120A  158A  2550  120A  118A  	line	112
  2356                           	
  2357                           l2485:	
  2358  04CE                     ;Pri-Master.c: 112:         _delay((unsigned long)((20)*(4000000/4000.0)));
  2359                           	opt asmopt_push
  2360                           opt asmopt_off
  2361                           movlw	26
  2362  04CE  301A               	bcf	status, 5	;RP0=0, select bank0
  2363  04CF  1283               	bcf	status, 6	;RP1=0, select bank0
  2364  04D0  1303               movwf	((??_main+0)+0+1),f
  2365  04D1  00DF               	movlw	247
  2366  04D2  30F7               movwf	((??_main+0)+0),f
  2367  04D3  00DE               	u1857:
  2368  04D4                     decfsz	((??_main+0)+0),f
  2369  04D4  0BDE               	goto	u1857
  2370  04D5  2CD4               	decfsz	((??_main+0)+0+1),f
  2371  04D6  0BDF               	goto	u1857
  2372  04D7  2CD4               	nop2
  2373  04D8  2CD9               opt asmopt_pop
  2374                           
  2375                           	line	115
  2376                           	
  2377                           l2487:	
  2378  04D9                     ;Pri-Master.c: 115:         I2C_Master_Start();
  2379                           	fcall	_I2C_Master_Start
  2380  04D9  120A  158A  2547  120A  118A  	line	116
  2381                           	
  2382                           l2489:	
  2383  04DE                     ;Pri-Master.c: 116:         I2C_Master_Write(0x71);
  2384                           	movlw	071h
  2385  04DE  3071               	movwf	(I2C_Master_Write@d)
  2386  04DF  00F0               	movlw	0
  2387  04E0  3000               	movwf	((I2C_Master_Write@d))+1
  2388  04E1  00F1               	fcall	_I2C_Master_Write
  2389  04E2  120A  158A  2559  120A  118A  	line	117
  2390                           	
  2391                           l2491:	
  2392  04E7                     ;Pri-Master.c: 117:         valor3 = I2C_Master_Read(0);
  2393                           	movlw	0
  2394  04E7  3000               	movwf	(I2C_Master_Read@a)
  2395  04E8  00F0               	movwf	(I2C_Master_Read@a+1)
  2396  04E9  00F1               	fcall	_I2C_Master_Read
  2397  04EA  120A  158A  26CB  120A  118A  	movf	(1+(?_I2C_Master_Read)),w
  2398  04EF  0871               	bcf	status, 5	;RP0=0, select bank0
  2399  04F0  1283               	bcf	status, 6	;RP1=0, select bank0
  2400  04F1  1303               	movwf	(_valor3+1)
  2401  04F2  00C1               	movf	(0+(?_I2C_Master_Read)),w
  2402  04F3  0870               	movwf	(_valor3)
  2403  04F4  00C0               	line	118
  2404                           	
  2405                           l2493:	
  2406  04F5                     ;Pri-Master.c: 118:         I2C_Master_Stop();
  2407                           	fcall	_I2C_Master_Stop
  2408  04F5  120A  158A  2550  120A  118A  	line	119
  2409                           	
  2410                           l2495:	
  2411  04FA                     ;Pri-Master.c: 119:         _delay((unsigned long)((20)*(4000000/4000.0)));
  2412                           	opt asmopt_push
  2413                           opt asmopt_off
  2414                           movlw	26
  2415  04FA  301A               	bcf	status, 5	;RP0=0, select bank0
  2416  04FB  1283               	bcf	status, 6	;RP1=0, select bank0
  2417  04FC  1303               movwf	((??_main+0)+0+1),f
  2418  04FD  00DF               	movlw	247
  2419  04FE  30F7               movwf	((??_main+0)+0),f
  2420  04FF  00DE               	u1867:
  2421  0500                     decfsz	((??_main+0)+0),f
  2422  0500  0BDE               	goto	u1867
  2423  0501  2D00               	decfsz	((??_main+0)+0+1),f
  2424  0502  0BDF               	goto	u1867
  2425  0503  2D00               	nop2
  2426  0504  2D05               opt asmopt_pop
  2427                           
  2428                           	line	122
  2429                           	
  2430                           l2497:	
  2431  0505                     ;Pri-Master.c: 122:         second = read_ds1307(0);
  2432                           	movlw	0
  2433  0505  3000               	movwf	(read_ds1307@address)
  2434  0506  00F6               	movwf	(read_ds1307@address+1)
  2435  0507  00F7               	fcall	_read_ds1307
  2436  0508  120A  118A  2066  120A  118A  	movf	(1+(?_read_ds1307)),w
  2437  050D  0877               	bcf	status, 5	;RP0=0, select bank0
  2438  050E  1283               	bcf	status, 6	;RP1=0, select bank0
  2439  050F  1303               	movwf	(_second+1)
  2440  0510  00B1               	movf	(0+(?_read_ds1307)),w
  2441  0511  0876               	movwf	(_second)
  2442  0512  00B0               	line	123
  2443                           	
  2444                           l2499:	
  2445  0513                     ;Pri-Master.c: 123:         minute = read_ds1307(1);
  2446                           	movlw	01h
  2447  0513  3001               	movwf	(read_ds1307@address)
  2448  0514  00F6               	movlw	0
  2449  0515  3000               	movwf	((read_ds1307@address))+1
  2450  0516  00F7               	fcall	_read_ds1307
  2451  0517  120A  118A  2066  120A  118A  	movf	(1+(?_read_ds1307)),w
  2452  051C  0877               	bcf	status, 5	;RP0=0, select bank0
  2453  051D  1283               	bcf	status, 6	;RP1=0, select bank0
  2454  051E  1303               	movwf	(_minute+1)
  2455  051F  00AF               	movf	(0+(?_read_ds1307)),w
  2456  0520  0876               	movwf	(_minute)
  2457  0521  00AE               	line	124
  2458                           	
  2459                           l2501:	
  2460  0522                     ;Pri-Master.c: 124:         hour = read_ds1307(2);
  2461                           	movlw	02h
  2462  0522  3002               	movwf	(read_ds1307@address)
  2463  0523  00F6               	movlw	0
  2464  0524  3000               	movwf	((read_ds1307@address))+1
  2465  0525  00F7               	fcall	_read_ds1307
  2466  0526  120A  118A  2066  120A  118A  	movf	(1+(?_read_ds1307)),w
  2467  052B  0877               	bcf	status, 5	;RP0=0, select bank0
  2468  052C  1283               	bcf	status, 6	;RP1=0, select bank0
  2469  052D  1303               	movwf	(_hour+1)
  2470  052E  00AD               	movf	(0+(?_read_ds1307)),w
  2471  052F  0876               	movwf	(_hour)
  2472  0530  00AC               	line	125
  2473                           	
  2474                           l2503:	
  2475  0531                     ;Pri-Master.c: 125:         hr = hour & 0b00011111;
  2476                           	movlw	01Fh
  2477  0531  301F               	andwf	(_hour),w
  2478  0532  052C               	movwf	(_hr)
  2479  0533  00AA               	movlw	0
  2480  0534  3000               	andwf	(_hour+1),w
  2481  0535  052D               	movwf	1+(_hr)
  2482  0536  00AB               	line	126
  2483                           	
  2484                           l2505:	
  2485  0537                     ;Pri-Master.c: 126:         ap = hour & 0b00100000;
  2486                           	movlw	020h
  2487  0537  3020               	andwf	(_hour),w
  2488  0538  052C               	movwf	(_ap)
  2489  0539  00A0               	movlw	0
  2490  053A  3000               	andwf	(_hour+1),w
  2491  053B  052D               	movwf	1+(_ap)
  2492  053C  00A1               	line	127
  2493                           	
  2494                           l2507:	
  2495  053D                     ;Pri-Master.c: 127:         day = read_ds1307(3);
  2496                           	movlw	03h
  2497  053D  3003               	movwf	(read_ds1307@address)
  2498  053E  00F6               	movlw	0
  2499  053F  3000               	movwf	((read_ds1307@address))+1
  2500  0540  00F7               	fcall	_read_ds1307
  2501  0541  120A  118A  2066  120A  118A  	movf	(1+(?_read_ds1307)),w
  2502  0546  0877               	bcf	status, 5	;RP0=0, select bank0
  2503  0547  1283               	bcf	status, 6	;RP1=0, select bank0
  2504  0548  1303               	movwf	(_day+1)
  2505  0549  00A9               	movf	(0+(?_read_ds1307)),w
  2506  054A  0876               	movwf	(_day)
  2507  054B  00A8               	line	128
  2508                           	
  2509                           l2509:	
  2510  054C                     ;Pri-Master.c: 128:         day = read_ds1307(4);
  2511                           	movlw	04h
  2512  054C  3004               	movwf	(read_ds1307@address)
  2513  054D  00F6               	movlw	0
  2514  054E  3000               	movwf	((read_ds1307@address))+1
  2515  054F  00F7               	fcall	_read_ds1307
  2516  0550  120A  118A  2066  120A  118A  	movf	(1+(?_read_ds1307)),w
  2517  0555  0877               	bcf	status, 5	;RP0=0, select bank0
  2518  0556  1283               	bcf	status, 6	;RP1=0, select bank0
  2519  0557  1303               	movwf	(_day+1)
  2520  0558  00A9               	movf	(0+(?_read_ds1307)),w
  2521  0559  0876               	movwf	(_day)
  2522  055A  00A8               	line	129
  2523                           	
  2524                           l2511:	
  2525  055B                     ;Pri-Master.c: 129:         month = read_ds1307(5);
  2526                           	movlw	05h
  2527  055B  3005               	movwf	(read_ds1307@address)
  2528  055C  00F6               	movlw	0
  2529  055D  3000               	movwf	((read_ds1307@address))+1
  2530  055E  00F7               	fcall	_read_ds1307
  2531  055F  120A  118A  2066  120A  118A  	movf	(1+(?_read_ds1307)),w
  2532  0564  0877               	bcf	status, 5	;RP0=0, select bank0
  2533  0565  1283               	bcf	status, 6	;RP1=0, select bank0
  2534  0566  1303               	movwf	(_month+1)
  2535  0567  00A5               	movf	(0+(?_read_ds1307)),w
  2536  0568  0876               	movwf	(_month)
  2537  0569  00A4               	line	130
  2538                           	
  2539                           l2513:	
  2540  056A                     ;Pri-Master.c: 130:         year = read_ds1307(6);
  2541                           	movlw	06h
  2542  056A  3006               	movwf	(read_ds1307@address)
  2543  056B  00F6               	movlw	0
  2544  056C  3000               	movwf	((read_ds1307@address))+1
  2545  056D  00F7               	fcall	_read_ds1307
  2546  056E  120A  118A  2066  120A  118A  	movf	(1+(?_read_ds1307)),w
  2547  0573  0877               	bcf	status, 5	;RP0=0, select bank0
  2548  0574  1283               	bcf	status, 6	;RP1=0, select bank0
  2549  0575  1303               	movwf	(_year+1)
  2550  0576  00A3               	movf	(0+(?_read_ds1307)),w
  2551  0577  0876               	movwf	(_year)
  2552  0578  00A2               	line	131
  2553                           	
  2554                           l2515:	
  2555  0579                     ;Pri-Master.c: 131:         time[0] = BCD2UpperCh(hr);
  2556                           	movf	(_hr),w
  2557  0579  082A               	fcall	_BCD2UpperCh
  2558  057A  120A  158A  256F  120A  118A  	bcf	status, 5	;RP0=0, select bank0
  2559  057F  1283               	bcf	status, 6	;RP1=0, select bank0
  2560  0580  1303               	movwf	(??_main+0)+0
  2561  0581  00DE               	movf	(??_main+0)+0,w
  2562  0582  085E               	movwf	(_time)
  2563  0583  00E2               	line	132
  2564                           	
  2565                           l2517:	
  2566  0584                     ;Pri-Master.c: 132:         time[1] = BCD2LowerCh(hr);
  2567                           	movf	(_hr),w
  2568  0584  082A               	fcall	_BCD2LowerCh
  2569  0585  120A  158A  2530  120A  118A  	bcf	status, 5	;RP0=0, select bank0
  2570  058A  1283               	bcf	status, 6	;RP1=0, select bank0
  2571  058B  1303               	movwf	(??_main+0)+0
  2572  058C  00DE               	movf	(??_main+0)+0,w
  2573  058D  085E               	movwf	0+(_time)+01h
  2574  058E  00E3               	line	133
  2575                           	
  2576                           l2519:	
  2577  058F                     ;Pri-Master.c: 133:         time[3] = BCD2UpperCh(minute);
  2578                           	movf	(_minute),w
  2579  058F  082E               	fcall	_BCD2UpperCh
  2580  0590  120A  158A  256F  120A  118A  	bcf	status, 5	;RP0=0, select bank0
  2581  0595  1283               	bcf	status, 6	;RP1=0, select bank0
  2582  0596  1303               	movwf	(??_main+0)+0
  2583  0597  00DE               	movf	(??_main+0)+0,w
  2584  0598  085E               	movwf	0+(_time)+03h
  2585  0599  00E5               	line	134
  2586                           	
  2587                           l2521:	
  2588  059A                     ;Pri-Master.c: 134:         time[4] = BCD2LowerCh(minute);
  2589                           	movf	(_minute),w
  2590  059A  082E               	fcall	_BCD2LowerCh
  2591  059B  120A  158A  2530  120A  118A  	bcf	status, 5	;RP0=0, select bank0
  2592  05A0  1283               	bcf	status, 6	;RP1=0, select bank0
  2593  05A1  1303               	movwf	(??_main+0)+0
  2594  05A2  00DE               	movf	(??_main+0)+0,w
  2595  05A3  085E               	movwf	0+(_time)+04h
  2596  05A4  00E6               	line	135
  2597                           	
  2598                           l2523:	
  2599  05A5                     ;Pri-Master.c: 135:         time[6] = BCD2UpperCh(second);
  2600                           	movf	(_second),w
  2601  05A5  0830               	fcall	_BCD2UpperCh
  2602  05A6  120A  158A  256F  120A  118A  	bcf	status, 5	;RP0=0, select bank0
  2603  05AB  1283               	bcf	status, 6	;RP1=0, select bank0
  2604  05AC  1303               	movwf	(??_main+0)+0
  2605  05AD  00DE               	movf	(??_main+0)+0,w
  2606  05AE  085E               	movwf	0+(_time)+06h
  2607  05AF  00E8               	line	136
  2608                           	
  2609                           l2525:	
  2610  05B0                     ;Pri-Master.c: 136:         time[7] = BCD2LowerCh(second);
  2611                           	movf	(_second),w
  2612  05B0  0830               	fcall	_BCD2LowerCh
  2613  05B1  120A  158A  2530  120A  118A  	bcf	status, 5	;RP0=0, select bank0
  2614  05B6  1283               	bcf	status, 6	;RP1=0, select bank0
  2615  05B7  1303               	movwf	(??_main+0)+0
  2616  05B8  00DE               	movf	(??_main+0)+0,w
  2617  05B9  085E               	movwf	0+(_time)+07h
  2618  05BA  00E9               	line	137
  2619                           	
  2620                           l2527:	
  2621  05BB                     ;Pri-Master.c: 137:         date[0] = BCD2UpperCh(day);
  2622                           	movf	(_day),w
  2623  05BB  0828               	fcall	_BCD2UpperCh
  2624  05BC  120A  158A  256F  120A  118A  	bcf	status, 5	;RP0=0, select bank0
  2625  05C1  1283               	bcf	status, 6	;RP1=0, select bank0
  2626  05C2  1303               	movwf	(??_main+0)+0
  2627  05C3  00DE               	movf	(??_main+0)+0,w
  2628  05C4  085E               	bsf	status, 5	;RP0=1, select bank1
  2629  05C5  1683               	bcf	status, 6	;RP1=0, select bank1
  2630  05C6  1303               	movwf	(_date)^080h
  2631  05C7  00C1               	line	138
  2632                           	
  2633                           l2529:	
  2634  05C8                     ;Pri-Master.c: 138:         date[1] = BCD2LowerCh(day);
  2635                           	bcf	status, 5	;RP0=0, select bank0
  2636  05C8  1283               	bcf	status, 6	;RP1=0, select bank0
  2637  05C9  1303               	movf	(_day),w
  2638  05CA  0828               	fcall	_BCD2LowerCh
  2639  05CB  120A  158A  2530  120A  118A  	bcf	status, 5	;RP0=0, select bank0
  2640  05D0  1283               	bcf	status, 6	;RP1=0, select bank0
  2641  05D1  1303               	movwf	(??_main+0)+0
  2642  05D2  00DE               	movf	(??_main+0)+0,w
  2643  05D3  085E               	bsf	status, 5	;RP0=1, select bank1
  2644  05D4  1683               	bcf	status, 6	;RP1=0, select bank1
  2645  05D5  1303               	movwf	0+(_date)^080h+01h
  2646  05D6  00C2               	line	139
  2647                           	
  2648                           l2531:	
  2649  05D7                     ;Pri-Master.c: 139:         date[3] = BCD2UpperCh(month);
  2650                           	bcf	status, 5	;RP0=0, select bank0
  2651  05D7  1283               	bcf	status, 6	;RP1=0, select bank0
  2652  05D8  1303               	movf	(_month),w
  2653  05D9  0824               	fcall	_BCD2UpperCh
  2654  05DA  120A  158A  256F  120A  118A  	bcf	status, 5	;RP0=0, select bank0
  2655  05DF  1283               	bcf	status, 6	;RP1=0, select bank0
  2656  05E0  1303               	movwf	(??_main+0)+0
  2657  05E1  00DE               	movf	(??_main+0)+0,w
  2658  05E2  085E               	bsf	status, 5	;RP0=1, select bank1
  2659  05E3  1683               	bcf	status, 6	;RP1=0, select bank1
  2660  05E4  1303               	movwf	0+(_date)^080h+03h
  2661  05E5  00C4               	line	140
  2662                           	
  2663                           l2533:	
  2664  05E6                     ;Pri-Master.c: 140:         date[4] = BCD2LowerCh(month);
  2665                           	bcf	status, 5	;RP0=0, select bank0
  2666  05E6  1283               	bcf	status, 6	;RP1=0, select bank0
  2667  05E7  1303               	movf	(_month),w
  2668  05E8  0824               	fcall	_BCD2LowerCh
  2669  05E9  120A  158A  2530  120A  118A  	bcf	status, 5	;RP0=0, select bank0
  2670  05EE  1283               	bcf	status, 6	;RP1=0, select bank0
  2671  05EF  1303               	movwf	(??_main+0)+0
  2672  05F0  00DE               	movf	(??_main+0)+0,w
  2673  05F1  085E               	bsf	status, 5	;RP0=1, select bank1
  2674  05F2  1683               	bcf	status, 6	;RP1=0, select bank1
  2675  05F3  1303               	movwf	0+(_date)^080h+04h
  2676  05F4  00C5               	line	141
  2677                           	
  2678                           l2535:	
  2679  05F5                     ;Pri-Master.c: 141:         date[6] = BCD2UpperCh(year);
  2680                           	bcf	status, 5	;RP0=0, select bank0
  2681  05F5  1283               	bcf	status, 6	;RP1=0, select bank0
  2682  05F6  1303               	movf	(_year),w
  2683  05F7  0822               	fcall	_BCD2UpperCh
  2684  05F8  120A  158A  256F  120A  118A  	bcf	status, 5	;RP0=0, select bank0
  2685  05FD  1283               	bcf	status, 6	;RP1=0, select bank0
  2686  05FE  1303               	movwf	(??_main+0)+0
  2687  05FF  00DE               	movf	(??_main+0)+0,w
  2688  0600  085E               	bsf	status, 5	;RP0=1, select bank1
  2689  0601  1683               	bcf	status, 6	;RP1=0, select bank1
  2690  0602  1303               	movwf	0+(_date)^080h+06h
  2691  0603  00C7               	line	142
  2692                           	
  2693                           l2537:	
  2694  0604                     ;Pri-Master.c: 142:         date[7] = BCD2LowerCh(year);
  2695                           	bcf	status, 5	;RP0=0, select bank0
  2696  0604  1283               	bcf	status, 6	;RP1=0, select bank0
  2697  0605  1303               	movf	(_year),w
  2698  0606  0822               	fcall	_BCD2LowerCh
  2699  0607  120A  158A  2530  120A  118A  	bcf	status, 5	;RP0=0, select bank0
  2700  060C  1283               	bcf	status, 6	;RP1=0, select bank0
  2701  060D  1303               	movwf	(??_main+0)+0
  2702  060E  00DE               	movf	(??_main+0)+0,w
  2703  060F  085E               	bsf	status, 5	;RP0=1, select bank1
  2704  0610  1683               	bcf	status, 6	;RP1=0, select bank1
  2705  0611  1303               	movwf	0+(_date)^080h+07h
  2706  0612  00C8               	line	143
  2707                           	
  2708                           l2539:	
  2709  0613                     ;Pri-Master.c: 143:         valorf[1] = BCD2LowerCh(second);
  2710                           	bcf	status, 5	;RP0=0, select bank0
  2711  0613  1283               	bcf	status, 6	;RP1=0, select bank0
  2712  0614  1303               	movf	(_second),w
  2713  0615  0830               	fcall	_BCD2LowerCh
  2714  0616  120A  158A  2530  120A  118A  	bcf	status, 5	;RP0=0, select bank0
  2715  061B  1283               	bcf	status, 6	;RP1=0, select bank0
  2716  061C  1303               	movwf	(??_main+0)+0
  2717  061D  00DE               	movf	(??_main+0)+0,w
  2718  061E  085E               	movwf	0+(_valorf)+01h
  2719  061F  00C9               	line	144
  2720                           	
  2721                           l2541:	
  2722  0620                     ;Pri-Master.c: 144:         valorf[0] = BCD2UpperCh(second);
  2723                           	movf	(_second),w
  2724  0620  0830               	fcall	_BCD2UpperCh
  2725  0621  120A  158A  256F  120A  118A  	bcf	status, 5	;RP0=0, select bank0
  2726  0626  1283               	bcf	status, 6	;RP1=0, select bank0
  2727  0627  1303               	movwf	(??_main+0)+0
  2728  0628  00DE               	movf	(??_main+0)+0,w
  2729  0629  085E               	movwf	(_valorf)
  2730  062A  00C8               	line	145
  2731                           	
  2732                           l2543:	
  2733  062B                     ;Pri-Master.c: 145:         valor5 = atoi(valorf);
  2734                           	movlw	(low(_valorf|((0x0)<<8)))&0ffh
  2735  062B  3048               	fcall	_atoi
  2736  062C  120A  118A  221C  120A  118A  	movf	(1+(?_atoi)),w
  2737  0631  0877               	bcf	status, 5	;RP0=0, select bank0
  2738  0632  1283               	bcf	status, 6	;RP1=0, select bank0
  2739  0633  1303               	movwf	(_valor5+1)
  2740  0634  00BD               	movf	(0+(?_atoi)),w
  2741  0635  0876               	movwf	(_valor5)
  2742  0636  00BC               	line	146
  2743                           	
  2744                           l2545:	
  2745  0637                     ;Pri-Master.c: 146:         if(ap)
  2746                           	movf	((_ap)),w
  2747  0637  0820               iorwf	((_ap+1)),w
  2748  0638  0421               	btfsc	status,2
  2749  0639  1903               	goto	u1731
  2750  063A  2E3C               	goto	u1730
  2751  063B  2E3D               u1731:
  2752  063C                     	goto	l2549
  2753  063C  2E46               u1730:
  2754  063D                     	line	148
  2755                           	
  2756                           l2547:	
  2757  063D                     ;Pri-Master.c: 147:         {;Pri-Master.c: 148:           time[9] = 'P';
  2758                           	movlw	low(050h)
  2759  063D  3050               	movwf	(??_main+0)+0
  2760  063E  00DE               	movf	(??_main+0)+0,w
  2761  063F  085E               	movwf	0+(_time)+09h
  2762  0640  00EB               	line	149
  2763                           ;Pri-Master.c: 149:           time[10] = 'M';
  2764                           	movlw	low(04Dh)
  2765  0641  304D               	movwf	(??_main+0)+0
  2766  0642  00DE               	movf	(??_main+0)+0,w
  2767  0643  085E               	movwf	0+(_time)+0Ah
  2768  0644  00EC               	line	150
  2769                           ;Pri-Master.c: 150:         }
  2770                           	goto	l2551
  2771  0645  2E4F               	line	151
  2772                           ;Pri-Master.c: 151:         else
  2773                           	
  2774                           l375:	
  2775  0646                     	line	153
  2776                           	
  2777                           l2549:	
  2778  0646                     ;Pri-Master.c: 152:         {;Pri-Master.c: 153:           time[9] = 'A';
  2779                           	movlw	low(041h)
  2780  0646  3041               	movwf	(??_main+0)+0
  2781  0647  00DE               	movf	(??_main+0)+0,w
  2782  0648  085E               	movwf	0+(_time)+09h
  2783  0649  00EB               	line	154
  2784                           ;Pri-Master.c: 154:           time[10] = 'M';
  2785                           	movlw	low(04Dh)
  2786  064A  304D               	movwf	(??_main+0)+0
  2787  064B  00DE               	movf	(??_main+0)+0,w
  2788  064C  085E               	movwf	0+(_time)+0Ah
  2789  064D  00EC               	goto	l2551
  2790  064E  2E4F               	line	155
  2791                           ;Pri-Master.c: 155:         }
  2792                           	
  2793                           l376:	
  2794  064F                     	line	156
  2795                           	
  2796                           l2551:	
  2797  064F                     ;Pri-Master.c: 156:         sprintf(valor, "%.1d %.1d %.3d %.1d %.2d", valor1, valor3, v
                                 alor2, valor4, valor5);
  2798                           	movlw	(low((((STR_3)-__stringbase)|8000h)))&0ffh
  2799  064F  300B               	movwf	(??_main+0)+0
  2800  0650  00DE               	movf	(??_main+0)+0,w
  2801  0651  085E               	movwf	(sprintf@f)
  2802  0652  00C9               	movf	(_valor1+1),w
  2803  0653  0845               	movwf	1+(?_sprintf)+01h
  2804  0654  00CB               	movf	(_valor1),w
  2805  0655  0844               	movwf	0+(?_sprintf)+01h
  2806  0656  00CA               	movf	(_valor3+1),w
  2807  0657  0841               	movwf	1+(?_sprintf)+03h
  2808  0658  00CD               	movf	(_valor3),w
  2809  0659  0840               	movwf	0+(?_sprintf)+03h
  2810  065A  00CC               	movf	(_valor2+1),w
  2811  065B  0843               	movwf	1+(?_sprintf)+05h
  2812  065C  00CF               	movf	(_valor2),w
  2813  065D  0842               	movwf	0+(?_sprintf)+05h
  2814  065E  00CE               	movf	(_valor4+1),w
  2815  065F  083F               	movwf	1+(?_sprintf)+07h
  2816  0660  00D1               	movf	(_valor4),w
  2817  0661  083E               	movwf	0+(?_sprintf)+07h
  2818  0662  00D0               	movf	(_valor5+1),w
  2819  0663  083D               	movwf	1+(?_sprintf)+09h
  2820  0664  00D3               	movf	(_valor5),w
  2821  0665  083C               	movwf	0+(?_sprintf)+09h
  2822  0666  00D2               	movlw	(low(_valor|((0x0)<<8)))&0ffh
  2823  0667  30CA               	fcall	_sprintf
  2824  0668  120A  118A  22A1  120A  118A  	line	157
  2825                           	
  2826                           l2553:	
  2827  066D                     ;Pri-Master.c: 157:         LCD_CURSOR(2,1);
  2828                           	movlw	02h
  2829  066D  3002               	movwf	(LCD_CURSOR@a)
  2830  066E  00F4               	movlw	0
  2831  066F  3000               	movwf	((LCD_CURSOR@a))+1
  2832  0670  00F5               	movlw	01h
  2833  0671  3001               	movwf	(LCD_CURSOR@b)
  2834  0672  00F6               	movlw	0
  2835  0673  3000               	movwf	((LCD_CURSOR@b))+1
  2836  0674  00F7               	fcall	_LCD_CURSOR
  2837  0675  120A  158A  272C  120A  118A  	line	158
  2838                           	
  2839                           l2555:	
  2840  067A                     ;Pri-Master.c: 158:         LCD_STRING(valor);
  2841                           	movlw	(low(_valor|((0x0)<<8))&0ffh)
  2842  067A  30CA               	movwf	(LCD_STRING@a)
  2843  067B  00F2               	movlw	(0x0)
  2844  067C  3000               	movwf	(LCD_STRING@a+1)
  2845  067D  00F3               	fcall	_LCD_STRING
  2846  067E  120A  118A  2120  120A  118A  	line	159
  2847                           	
  2848                           l2557:	
  2849  0683                     ;Pri-Master.c: 159:         LCD_CURSOR(1,1);
  2850                           	movlw	01h
  2851  0683  3001               	movwf	(LCD_CURSOR@a)
  2852  0684  00F4               	movlw	0
  2853  0685  3000               	movwf	((LCD_CURSOR@a))+1
  2854  0686  00F5               	movlw	01h
  2855  0687  3001               	movwf	(LCD_CURSOR@b)
  2856  0688  00F6               	movlw	0
  2857  0689  3000               	movwf	((LCD_CURSOR@b))+1
  2858  068A  00F7               	fcall	_LCD_CURSOR
  2859  068B  120A  158A  272C  120A  118A  	line	160
  2860                           	
  2861                           l2559:	
  2862  0690                     ;Pri-Master.c: 160:         LCD_STRING(time);
  2863                           	movlw	(low(_time|((0x0)<<8))&0ffh)
  2864  0690  3062               	movwf	(LCD_STRING@a)
  2865  0691  00F2               	movlw	(0x0)
  2866  0692  3000               	movwf	(LCD_STRING@a+1)
  2867  0693  00F3               	fcall	_LCD_STRING
  2868  0694  120A  118A  2120  120A  118A  	line	163
  2869                           	
  2870                           l2561:	
  2871  0699                     ;Pri-Master.c: 163:         if (RCIF){
  2872                           	bcf	status, 5	;RP0=0, select bank0
  2873  0699  1283               	bcf	status, 6	;RP1=0, select bank0
  2874  069A  1303               	btfss	(101/8),(101)&7	;volatile
  2875  069B  1E8C               	goto	u1741
  2876  069C  2E9E               	goto	u1740
  2877  069D  2E9F               u1741:
  2878  069E                     	goto	l2591
  2879  069E  2F2B               u1740:
  2880  069F                     	line	164
  2881                           	
  2882                           l2563:	
  2883  069F                     ;Pri-Master.c: 164:             deter = RCREG;
  2884                           	movf	(26),w	;volatile
  2885  069F  081A               	movwf	(??_main+0)+0
  2886  06A0  00DE               	clrf	(??_main+0)+0+1
  2887  06A1  01DF               	movf	0+(??_main+0)+0,w
  2888  06A2  085E               	movwf	(_deter)
  2889  06A3  00C6               	movf	1+(??_main+0)+0,w
  2890  06A4  085F               	movwf	(_deter+1)
  2891  06A5  00C7               	goto	l2591
  2892  06A6  2F2B               	line	165
  2893                           ;Pri-Master.c: 165:         }
  2894                           	
  2895                           l377:	
  2896  06A7                     	line	166
  2897                           ;Pri-Master.c: 166:         switch(deter){
  2898                           	goto	l2591
  2899  06A7  2F2B               	line	167
  2900                           ;Pri-Master.c: 167:         case 1:
  2901                           	
  2902                           l379:	
  2903  06A8                     	line	168
  2904                           	
  2905                           l2565:	
  2906  06A8                     ;Pri-Master.c: 168:             mandar(valor1);
  2907                           	movf	(_valor1+1),w
  2908  06A8  0845               	movwf	(mandar@dato+1)
  2909  06A9  00F1               	movf	(_valor1),w
  2910  06AA  0844               	movwf	(mandar@dato)
  2911  06AB  00F0               	fcall	_mandar
  2912  06AC  120A  158A  257C  120A  118A  	line	169
  2913                           	
  2914                           l2567:	
  2915  06B1                     ;Pri-Master.c: 169:             _delay((unsigned long)((10)*(4000000/4000.0)));
  2916                           	opt asmopt_push
  2917                           opt asmopt_off
  2918                           movlw	13
  2919  06B1  300D               	bcf	status, 5	;RP0=0, select bank0
  2920  06B2  1283               	bcf	status, 6	;RP1=0, select bank0
  2921  06B3  1303               movwf	((??_main+0)+0+1),f
  2922  06B4  00DF               	movlw	251
  2923  06B5  30FB               movwf	((??_main+0)+0),f
  2924  06B6  00DE               	u1877:
  2925  06B7                     decfsz	((??_main+0)+0),f
  2926  06B7  0BDE               	goto	u1877
  2927  06B8  2EB7               	decfsz	((??_main+0)+0+1),f
  2928  06B9  0BDF               	goto	u1877
  2929  06BA  2EB7               opt asmopt_pop
  2930                           
  2931                           	line	170
  2932                           ;Pri-Master.c: 170:             break;
  2933                           	goto	l2593
  2934  06BB  2F43               	line	171
  2935                           ;Pri-Master.c: 171:         case 2:
  2936                           	
  2937                           l381:	
  2938  06BC                     	line	172
  2939                           	
  2940                           l2569:	
  2941  06BC                     ;Pri-Master.c: 172:             mandar(valor2);
  2942                           	bcf	status, 5	;RP0=0, select bank0
  2943  06BC  1283               	bcf	status, 6	;RP1=0, select bank0
  2944  06BD  1303               	movf	(_valor2+1),w
  2945  06BE  0843               	movwf	(mandar@dato+1)
  2946  06BF  00F1               	movf	(_valor2),w
  2947  06C0  0842               	movwf	(mandar@dato)
  2948  06C1  00F0               	fcall	_mandar
  2949  06C2  120A  158A  257C  120A  118A  	line	173
  2950                           	
  2951                           l2571:	
  2952  06C7                     ;Pri-Master.c: 173:             _delay((unsigned long)((10)*(4000000/4000.0)));
  2953                           	opt asmopt_push
  2954                           opt asmopt_off
  2955                           movlw	13
  2956  06C7  300D               	bcf	status, 5	;RP0=0, select bank0
  2957  06C8  1283               	bcf	status, 6	;RP1=0, select bank0
  2958  06C9  1303               movwf	((??_main+0)+0+1),f
  2959  06CA  00DF               	movlw	251
  2960  06CB  30FB               movwf	((??_main+0)+0),f
  2961  06CC  00DE               	u1887:
  2962  06CD                     decfsz	((??_main+0)+0),f
  2963  06CD  0BDE               	goto	u1887
  2964  06CE  2ECD               	decfsz	((??_main+0)+0+1),f
  2965  06CF  0BDF               	goto	u1887
  2966  06D0  2ECD               opt asmopt_pop
  2967                           
  2968                           	line	174
  2969                           ;Pri-Master.c: 174:             break;
  2970                           	goto	l2593
  2971  06D1  2F43               	line	175
  2972                           ;Pri-Master.c: 175:         case 3:
  2973                           	
  2974                           l382:	
  2975  06D2                     	line	176
  2976                           	
  2977                           l2573:	
  2978  06D2                     ;Pri-Master.c: 176:             mandar(valor3);
  2979                           	bcf	status, 5	;RP0=0, select bank0
  2980  06D2  1283               	bcf	status, 6	;RP1=0, select bank0
  2981  06D3  1303               	movf	(_valor3+1),w
  2982  06D4  0841               	movwf	(mandar@dato+1)
  2983  06D5  00F1               	movf	(_valor3),w
  2984  06D6  0840               	movwf	(mandar@dato)
  2985  06D7  00F0               	fcall	_mandar
  2986  06D8  120A  158A  257C  120A  118A  	line	177
  2987                           	
  2988                           l2575:	
  2989  06DD                     ;Pri-Master.c: 177:             _delay((unsigned long)((10)*(4000000/4000.0)));
  2990                           	opt asmopt_push
  2991                           opt asmopt_off
  2992                           movlw	13
  2993  06DD  300D               	bcf	status, 5	;RP0=0, select bank0
  2994  06DE  1283               	bcf	status, 6	;RP1=0, select bank0
  2995  06DF  1303               movwf	((??_main+0)+0+1),f
  2996  06E0  00DF               	movlw	251
  2997  06E1  30FB               movwf	((??_main+0)+0),f
  2998  06E2  00DE               	u1897:
  2999  06E3                     decfsz	((??_main+0)+0),f
  3000  06E3  0BDE               	goto	u1897
  3001  06E4  2EE3               	decfsz	((??_main+0)+0+1),f
  3002  06E5  0BDF               	goto	u1897
  3003  06E6  2EE3               opt asmopt_pop
  3004                           
  3005                           	line	178
  3006                           ;Pri-Master.c: 178:             break;
  3007                           	goto	l2593
  3008  06E7  2F43               	line	179
  3009                           ;Pri-Master.c: 179:         case 4:
  3010                           	
  3011                           l383:	
  3012  06E8                     	line	180
  3013                           	
  3014                           l2577:	
  3015  06E8                     ;Pri-Master.c: 180:             mandar(valor4);
  3016                           	bcf	status, 5	;RP0=0, select bank0
  3017  06E8  1283               	bcf	status, 6	;RP1=0, select bank0
  3018  06E9  1303               	movf	(_valor4+1),w
  3019  06EA  083F               	movwf	(mandar@dato+1)
  3020  06EB  00F1               	movf	(_valor4),w
  3021  06EC  083E               	movwf	(mandar@dato)
  3022  06ED  00F0               	fcall	_mandar
  3023  06EE  120A  158A  257C  120A  118A  	line	181
  3024                           	
  3025                           l2579:	
  3026  06F3                     ;Pri-Master.c: 181:             _delay((unsigned long)((10)*(4000000/4000.0)));
  3027                           	opt asmopt_push
  3028                           opt asmopt_off
  3029                           movlw	13
  3030  06F3  300D               	bcf	status, 5	;RP0=0, select bank0
  3031  06F4  1283               	bcf	status, 6	;RP1=0, select bank0
  3032  06F5  1303               movwf	((??_main+0)+0+1),f
  3033  06F6  00DF               	movlw	251
  3034  06F7  30FB               movwf	((??_main+0)+0),f
  3035  06F8  00DE               	u1907:
  3036  06F9                     decfsz	((??_main+0)+0),f
  3037  06F9  0BDE               	goto	u1907
  3038  06FA  2EF9               	decfsz	((??_main+0)+0+1),f
  3039  06FB  0BDF               	goto	u1907
  3040  06FC  2EF9               opt asmopt_pop
  3041                           
  3042                           	line	182
  3043                           ;Pri-Master.c: 182:             break;
  3044                           	goto	l2593
  3045  06FD  2F43               	line	183
  3046                           ;Pri-Master.c: 183:         case 5:
  3047                           	
  3048                           l384:	
  3049  06FE                     	line	184
  3050                           	
  3051                           l2581:	
  3052  06FE                     ;Pri-Master.c: 184:             mandar(valor5);
  3053                           	bcf	status, 5	;RP0=0, select bank0
  3054  06FE  1283               	bcf	status, 6	;RP1=0, select bank0
  3055  06FF  1303               	movf	(_valor5+1),w
  3056  0700  083D               	movwf	(mandar@dato+1)
  3057  0701  00F1               	movf	(_valor5),w
  3058  0702  083C               	movwf	(mandar@dato)
  3059  0703  00F0               	fcall	_mandar
  3060  0704  120A  158A  257C  120A  118A  	line	185
  3061                           	
  3062                           l2583:	
  3063  0709                     ;Pri-Master.c: 185:             _delay((unsigned long)((10)*(4000000/4000.0)));
  3064                           	opt asmopt_push
  3065                           opt asmopt_off
  3066                           movlw	13
  3067  0709  300D               	bcf	status, 5	;RP0=0, select bank0
  3068  070A  1283               	bcf	status, 6	;RP1=0, select bank0
  3069  070B  1303               movwf	((??_main+0)+0+1),f
  3070  070C  00DF               	movlw	251
  3071  070D  30FB               movwf	((??_main+0)+0),f
  3072  070E  00DE               	u1917:
  3073  070F                     decfsz	((??_main+0)+0),f
  3074  070F  0BDE               	goto	u1917
  3075  0710  2F0F               	decfsz	((??_main+0)+0+1),f
  3076  0711  0BDF               	goto	u1917
  3077  0712  2F0F               opt asmopt_pop
  3078                           
  3079                           	line	186
  3080                           ;Pri-Master.c: 186:             break;
  3081                           	goto	l2593
  3082  0713  2F43               	line	187
  3083                           ;Pri-Master.c: 187:         default:
  3084                           	
  3085                           l385:	
  3086  0714                     	line	188
  3087                           	
  3088                           l2585:	
  3089  0714                     ;Pri-Master.c: 188:             mandar(valor5);
  3090                           	bcf	status, 5	;RP0=0, select bank0
  3091  0714  1283               	bcf	status, 6	;RP1=0, select bank0
  3092  0715  1303               	movf	(_valor5+1),w
  3093  0716  083D               	movwf	(mandar@dato+1)
  3094  0717  00F1               	movf	(_valor5),w
  3095  0718  083C               	movwf	(mandar@dato)
  3096  0719  00F0               	fcall	_mandar
  3097  071A  120A  158A  257C  120A  118A  	line	189
  3098                           	
  3099                           l2587:	
  3100  071F                     ;Pri-Master.c: 189:             _delay((unsigned long)((10)*(4000000/4000.0)));
  3101                           	opt asmopt_push
  3102                           opt asmopt_off
  3103                           movlw	13
  3104  071F  300D               	bcf	status, 5	;RP0=0, select bank0
  3105  0720  1283               	bcf	status, 6	;RP1=0, select bank0
  3106  0721  1303               movwf	((??_main+0)+0+1),f
  3107  0722  00DF               	movlw	251
  3108  0723  30FB               movwf	((??_main+0)+0),f
  3109  0724  00DE               	u1927:
  3110  0725                     decfsz	((??_main+0)+0),f
  3111  0725  0BDE               	goto	u1927
  3112  0726  2F25               	decfsz	((??_main+0)+0+1),f
  3113  0727  0BDF               	goto	u1927
  3114  0728  2F25               opt asmopt_pop
  3115                           
  3116                           	line	190
  3117                           ;Pri-Master.c: 190:             break;
  3118                           	goto	l2593
  3119  0729  2F43               	line	191
  3120                           	
  3121                           l2589:	
  3122  072A                     ;Pri-Master.c: 191:     }
  3123                           	goto	l2593
  3124  072A  2F43               	
  3125                           l378:	
  3126  072B                     	
  3127                           l2591:	
  3128  072B                     	; Switch on 2 bytes has been partitioned into a top level switch of size 1, and 1 sub-s
                                 witches
  3129                           ; Switch size 1, requested type "space"
  3130                           ; Number of cases is 1, Range of values is 0 to 0
  3131                           ; switch strategies available:
  3132                           ; Name         Instructions Cycles
  3133                           ; simple_byte            4     3 (average)
  3134                           ; direct_byte           11     8 (fixed)
  3135                           ; jumptable            260     6 (fixed)
  3136                           ;	Chosen strategy is simple_byte
  3137                           
  3138                           	bcf	status, 5	;RP0=0, select bank0
  3139  072B  1283               	bcf	status, 6	;RP1=0, select bank0
  3140  072C  1303               	movf (_deter+1),w
  3141  072D  0847               	opt asmopt_push
  3142                           	opt asmopt_off
  3143                           	xorlw	0^0	; case 0
  3144  072E  3A00               	skipnz
  3145  072F  1903               	goto	l2777
  3146  0730  2F32               	goto	l2585
  3147  0731  2F14               	opt asmopt_pop
  3148                           	
  3149                           l2777:	
  3150  0732                     ; Switch size 1, requested type "space"
  3151                           ; Number of cases is 5, Range of values is 1 to 5
  3152                           ; switch strategies available:
  3153                           ; Name         Instructions Cycles
  3154                           ; simple_byte           16     9 (average)
  3155                           ; direct_byte           26    11 (fixed)
  3156                           ; jumptable            263     9 (fixed)
  3157                           ;	Chosen strategy is simple_byte
  3158                           
  3159                           	movf (_deter),w
  3160  0732  0846               	opt asmopt_push
  3161                           	opt asmopt_off
  3162                           	xorlw	1^0	; case 1
  3163  0733  3A01               	skipnz
  3164  0734  1903               	goto	l2565
  3165  0735  2EA8               	xorlw	2^1	; case 2
  3166  0736  3A03               	skipnz
  3167  0737  1903               	goto	l2569
  3168  0738  2EBC               	xorlw	3^2	; case 3
  3169  0739  3A01               	skipnz
  3170  073A  1903               	goto	l2573
  3171  073B  2ED2               	xorlw	4^3	; case 4
  3172  073C  3A07               	skipnz
  3173  073D  1903               	goto	l2577
  3174  073E  2EE8               	xorlw	5^4	; case 5
  3175  073F  3A01               	skipnz
  3176  0740  1903               	goto	l2581
  3177  0741  2EFE               	goto	l2585
  3178  0742  2F14               	opt asmopt_pop
  3179                           
  3180                           	
  3181                           l380:	
  3182  0743                     	line	195
  3183                           	
  3184                           l2593:	
  3185  0743                     ;Pri-Master.c: 195:         if (valor1 == 1){
  3186                           	bcf	status, 5	;RP0=0, select bank0
  3187  0743  1283               	bcf	status, 6	;RP1=0, select bank0
  3188  0744  1303               		decf	((_valor1)),w
  3189  0745  0344               iorwf	((_valor1+1)),w
  3190  0746  0445               	btfss	status,2
  3191  0747  1D03               	goto	u1751
  3192  0748  2F4A               	goto	u1750
  3193  0749  2F4B               u1751:
  3194  074A                     	goto	l386
  3195  074A  2F56               u1750:
  3196  074B                     	line	196
  3197                           	
  3198                           l2595:	
  3199  074B                     ;Pri-Master.c: 196:             servo0();
  3200                           	fcall	_servo0
  3201  074B  120A  158A  275F  120A  118A  	line	197
  3202                           ;Pri-Master.c: 197:             servo180();
  3203                           	fcall	_servo180
  3204  0750  120A  158A  2793  120A  118A  	line	198
  3205                           ;Pri-Master.c: 198:         }else{
  3206                           	goto	l387
  3207  0755  2F57               	
  3208                           l386:	
  3209  0756                     	line	199
  3210                           ;Pri-Master.c: 199:             PORTAbits.RA0 = 0;
  3211                           	bcf	(5),0	;volatile
  3212  0756  1005               	line	200
  3213                           ;Pri-Master.c: 200:         }
  3214                           	
  3215                           l387:	
  3216  0757                     	line	203
  3217                           ;Pri-Master.c: 203:         if (PORTCbits.RC0==1){
  3218                           	bcf	status, 5	;RP0=0, select bank0
  3219  0757  1283               	bcf	status, 6	;RP1=0, select bank0
  3220  0758  1303               	btfss	(7),0	;volatile
  3221  0759  1C07               	goto	u1761
  3222  075A  2F5C               	goto	u1760
  3223  075B  2F5D               u1761:
  3224  075C                     	goto	l2599
  3225  075C  2F62               u1760:
  3226  075D                     	line	204
  3227                           	
  3228                           l2597:	
  3229  075D                     ;Pri-Master.c: 204:             var = 1;
  3230                           	movlw	01h
  3231  075D  3001               	movwf	(_var)
  3232  075E  00B2               	movlw	0
  3233  075F  3000               	movwf	((_var))+1
  3234  0760  00B3               	line	205
  3235                           ;Pri-Master.c: 205:         }else {
  3236                           	goto	l2601
  3237  0761  2F65               	
  3238                           l388:	
  3239  0762                     	line	206
  3240                           	
  3241                           l2599:	
  3242  0762                     ;Pri-Master.c: 206:             var = 0;
  3243                           	clrf	(_var)
  3244  0762  01B2               	clrf	(_var+1)
  3245  0763  01B3               	goto	l2601
  3246  0764  2F65               	line	207
  3247                           ;Pri-Master.c: 207:         }
  3248                           	
  3249                           l389:	
  3250  0765                     	line	208
  3251                           	
  3252                           l2601:	
  3253  0765                     ;Pri-Master.c: 208:         if (PORTCbits.RC0==0){
  3254                           	btfsc	(7),0	;volatile
  3255  0765  1807               	goto	u1771
  3256  0766  2F68               	goto	u1770
  3257  0767  2F69               u1771:
  3258  0768                     	goto	l2605
  3259  0768  2F6C               u1770:
  3260  0769                     	line	209
  3261                           	
  3262                           l2603:	
  3263  0769                     ;Pri-Master.c: 209:             valor4 = 0;
  3264                           	clrf	(_valor4)
  3265  0769  01BE               	clrf	(_valor4+1)
  3266  076A  01BF               	line	210
  3267                           ;Pri-Master.c: 210:         }else{
  3268                           	goto	l2607
  3269  076B  2F71               	
  3270                           l390:	
  3271  076C                     	line	211
  3272                           	
  3273                           l2605:	
  3274  076C                     ;Pri-Master.c: 211:             valor4 = 1;
  3275                           	movlw	01h
  3276  076C  3001               	movwf	(_valor4)
  3277  076D  00BE               	movlw	0
  3278  076E  3000               	movwf	((_valor4))+1
  3279  076F  00BF               	goto	l2607
  3280  0770  2F71               	line	212
  3281                           ;Pri-Master.c: 212:         }
  3282                           	
  3283                           l391:	
  3284  0771                     	line	213
  3285                           	
  3286                           l2607:	
  3287  0771                     ;Pri-Master.c: 213:         if (valor2 <=10 || PORTCbits.RC0==0){
  3288                           	movf	(_valor2+1),w
  3289  0771  0843               	xorlw	80h
  3290  0772  3A80               	movwf	btemp+1
  3291  0773  00FF               	movlw	(0)^80h
  3292  0774  3080               	subwf	btemp+1,w
  3293  0775  027F               	skipz
  3294  0776  1D03               	goto	u1785
  3295  0777  2F7A               	movlw	0Bh
  3296  0778  300B               	subwf	(_valor2),w
  3297  0779  0242               u1785:
  3298  077A                     
  3299                           	skipc
  3300  077A  1C03               	goto	u1781
  3301  077B  2F7D               	goto	u1780
  3302  077C  2F7E               u1781:
  3303  077D                     	goto	l2611
  3304  077D  2F85               u1780:
  3305  077E                     	
  3306                           l2609:	
  3307  077E                     	bcf	status, 5	;RP0=0, select bank0
  3308  077E  1283               	bcf	status, 6	;RP1=0, select bank0
  3309  077F  1303               	btfsc	(7),0	;volatile
  3310  0780  1807               	goto	u1791
  3311  0781  2F83               	goto	u1790
  3312  0782  2F84               u1791:
  3313  0783                     	goto	l2613
  3314  0783  2F8A               u1790:
  3315  0784                     	goto	l2611
  3316  0784  2F85               	
  3317                           l394:	
  3318  0785                     	line	214
  3319                           	
  3320                           l2611:	
  3321  0785                     ;Pri-Master.c: 214:            var = 0;
  3322                           	bcf	status, 5	;RP0=0, select bank0
  3323  0785  1283               	bcf	status, 6	;RP1=0, select bank0
  3324  0786  1303               	clrf	(_var)
  3325  0787  01B2               	clrf	(_var+1)
  3326  0788  01B3               	line	215
  3327                           ;Pri-Master.c: 215:         }else{
  3328                           	goto	l2615
  3329  0789  2F8F               	
  3330                           l392:	
  3331  078A                     	line	216
  3332                           	
  3333                           l2613:	
  3334  078A                     ;Pri-Master.c: 216:             var = 1;
  3335                           	movlw	01h
  3336  078A  3001               	movwf	(_var)
  3337  078B  00B2               	movlw	0
  3338  078C  3000               	movwf	((_var))+1
  3339  078D  00B3               	goto	l2615
  3340  078E  2F8F               	line	217
  3341                           ;Pri-Master.c: 217:         }
  3342                           	
  3343                           l395:	
  3344  078F                     	line	218
  3345                           	
  3346                           l2615:	
  3347  078F                     ;Pri-Master.c: 218:         if (var ==1){
  3348                           		decf	((_var)),w
  3349  078F  0332               iorwf	((_var+1)),w
  3350  0790  0433               	btfss	status,2
  3351  0791  1D03               	goto	u1801
  3352  0792  2F94               	goto	u1800
  3353  0793  2F95               u1801:
  3354  0794                     	goto	l396
  3355  0794  2F97               u1800:
  3356  0795                     	line	219
  3357                           	
  3358                           l2617:	
  3359  0795                     ;Pri-Master.c: 219:             PORTAbits.RA2 = 1;
  3360                           	bsf	(5),2	;volatile
  3361  0795  1505               	line	220
  3362                           ;Pri-Master.c: 220:         }else{
  3363                           	goto	l2619
  3364  0796  2F99               	
  3365                           l396:	
  3366  0797                     	line	221
  3367                           ;Pri-Master.c: 221:             PORTAbits.RA2 = 0;
  3368                           	bcf	(5),2	;volatile
  3369  0797  1105               	goto	l2619
  3370  0798  2F99               	line	222
  3371                           ;Pri-Master.c: 222:         }
  3372                           	
  3373                           l397:	
  3374  0799                     	line	226
  3375                           	
  3376                           l2619:	
  3377  0799                     ;Pri-Master.c: 226:         if (valor3 == 1){
  3378                           		decf	((_valor3)),w
  3379  0799  0340               iorwf	((_valor3+1)),w
  3380  079A  0441               	btfss	status,2
  3381  079B  1D03               	goto	u1811
  3382  079C  2F9E               	goto	u1810
  3383  079D  2F9F               u1811:
  3384  079E                     	goto	l2467
  3385  079E  2C81               u1810:
  3386  079F                     	line	227
  3387                           	
  3388                           l2621:	
  3389  079F                     ;Pri-Master.c: 227:             for (int cont = 0; cont < 256; cont++){
  3390                           	clrf	(main@cont)
  3391  079F  01E0               	clrf	(main@cont+1)
  3392  07A0  01E1               	
  3393                           l2623:	
  3394  07A1                     	movf	(main@cont+1),w
  3395  07A1  0861               	xorlw	80h
  3396  07A2  3A80               	movwf	btemp+1
  3397  07A3  00FF               	movlw	(01h)^80h
  3398  07A4  3081               	subwf	btemp+1,w
  3399  07A5  027F               	skipz
  3400  07A6  1D03               	goto	u1825
  3401  07A7  2FAA               	movlw	0
  3402  07A8  3000               	subwf	(main@cont),w
  3403  07A9  0260               u1825:
  3404  07AA                     
  3405                           	skipc
  3406  07AA  1C03               	goto	u1821
  3407  07AB  2FAD               	goto	u1820
  3408  07AC  2FAE               u1821:
  3409  07AD                     	goto	l2627
  3410  07AD  2FB0               u1820:
  3411  07AE                     	goto	l2467
  3412  07AE  2C81               	
  3413                           l2625:	
  3414  07AF                     	goto	l2467
  3415  07AF  2C81               	
  3416                           l399:	
  3417  07B0                     	line	228
  3418                           	
  3419                           l2627:	
  3420  07B0                     ;Pri-Master.c: 228:                 PasoCompSimple();
  3421                           	fcall	_PasoCompSimple
  3422  07B0  120A  118A  20A2  120A  118A  	line	229
  3423                           	
  3424                           l2629:	
  3425  07B5                     ;Pri-Master.c: 229:             }
  3426                           	movlw	01h
  3427  07B5  3001               	bcf	status, 5	;RP0=0, select bank0
  3428  07B6  1283               	bcf	status, 6	;RP1=0, select bank0
  3429  07B7  1303               	addwf	(main@cont),f
  3430  07B8  07E0               	skipnc
  3431  07B9  1803               	incf	(main@cont+1),f
  3432  07BA  0AE1               	movlw	0
  3433  07BB  3000               	addwf	(main@cont+1),f
  3434  07BC  07E1               	
  3435                           l2631:	
  3436  07BD                     	movf	(main@cont+1),w
  3437  07BD  0861               	xorlw	80h
  3438  07BE  3A80               	movwf	btemp+1
  3439  07BF  00FF               	movlw	(01h)^80h
  3440  07C0  3081               	subwf	btemp+1,w
  3441  07C1  027F               	skipz
  3442  07C2  1D03               	goto	u1835
  3443  07C3  2FC6               	movlw	0
  3444  07C4  3000               	subwf	(main@cont),w
  3445  07C5  0260               u1835:
  3446  07C6                     
  3447                           	skipc
  3448  07C6  1C03               	goto	u1831
  3449  07C7  2FC9               	goto	u1830
  3450  07C8  2FCA               u1831:
  3451  07C9                     	goto	l2627
  3452  07C9  2FB0               u1830:
  3453  07CA                     	goto	l2467
  3454  07CA  2C81               	
  3455                           l400:	
  3456  07CB                     	goto	l2467
  3457  07CB  2C81               	line	230
  3458                           ;Pri-Master.c: 230:         }
  3459                           	
  3460                           l398:	
  3461  07CC                     	goto	l2467
  3462  07CC  2C81               	line	231
  3463                           ;Pri-Master.c: 231:     }
  3464                           	
  3465                           l401:	
  3466  07CD                     	goto	l2467
  3467  07CD  2C81               	
  3468                           l402:	
  3469  07CE                     	line	232
  3470                           	
  3471                           l403:	
  3472  07CE                     	global	start
  3473                           	ljmp	start
  3474  07CE  120A  118A  2800   	opt stack 0
  3475                           GLOBAL	__end_of_main
  3476                           	__end_of_main:
  3477  07D1                     	signat	_main,89
  3478                           	global	_sprintf
  3479                           
  3480 ;; *************** function _sprintf *****************
  3481 ;; Defined at:
  3482 ;;		line 500 in file "C:\Program Files (x86)\Microchip\xc8\v2.00\pic\sources\c90\common\doprnt.c"
  3483 ;; Parameters:    Size  Location     Type
  3484 ;;  sp              1    wreg     PTR unsigned char 
  3485 ;;		 -> valor(16), 
  3486 ;;  f               1    0[BANK0 ] PTR const unsigned char 
  3487 ;;		 -> STR_3(25), 
  3488 ;; Auto vars:     Size  Location     Type
  3489 ;;  sp              1   16[BANK0 ] PTR unsigned char 
  3490 ;;		 -> valor(16), 
  3491 ;;  tmpval          4    0        struct .
  3492 ;;  val             2   17[BANK0 ] unsigned int 
  3493 ;;  cp              2    0        PTR const unsigned char 
  3494 ;;  len             2    0        unsigned int 
  3495 ;;  c               1   20[BANK0 ] unsigned char 
  3496 ;;  prec            1   19[BANK0 ] char 
  3497 ;;  flag            1   15[BANK0 ] unsigned char 
  3498 ;;  ap              1   14[BANK0 ] PTR void [1]
  3499 ;;		 -> ?_sprintf(2), 
  3500 ;; Return value:  Size  Location     Type
  3501 ;;                  2    0[BANK0 ] int 
  3502 ;; Registers used:
  3503 ;;		wreg, fsr0l, fsr0h, status,2, status,0, btemp+1, pclath, cstack
  3504 ;; Tracked objects:
  3505 ;;		On entry : 0/0
  3506 ;;		On exit  : 0/0
  3507 ;;		Unchanged: 0/0
  3508 ;; Data sizes:     COMMON   BANK0   BANK1   BANK3   BANK2
  3509 ;;      Params:         0      11       0       0       0
  3510 ;;      Locals:         0       7       0       0       0
  3511 ;;      Temps:          0       3       0       0       0
  3512 ;;      Totals:         0      21       0       0       0
  3513 ;;Total ram usage:       21 bytes
  3514 ;; Hardware stack levels used:    1
  3515 ;; Hardware stack levels required when called:    1
  3516 ;; This function calls:
  3517 ;;		___bmul
  3518 ;;		___lwdiv
  3519 ;;		___lwmod
  3520 ;;		_isdigit
  3521 ;; This function is called by:
  3522 ;;		_main
  3523 ;; This function uses a non-reentrant model
  3524 ;;
  3525                           psect	text1,local,class=CODE,delta=2,merge=1,group=0
  3526                           	file	"C:\Program Files (x86)\Microchip\xc8\v2.00\pic\sources\c90\common\doprnt.c"
  3527                           	line	500
  3528                           global __ptext1
  3529                           __ptext1:	;psect for function _sprintf
  3530  02A1                     psect	text1
  3531                           	file	"C:\Program Files (x86)\Microchip\xc8\v2.00\pic\sources\c90\common\doprnt.c"
  3532                           	line	500
  3533                           	global	__size_of_sprintf
  3534                           	__size_of_sprintf	equ	__end_of_sprintf-_sprintf
  3535  018B                     	
  3536                           _sprintf:	
  3537  02A1                     ;incstack = 0
  3538                           	opt	stack 6
  3539                           ; Regs used in _sprintf: [wreg-fsr0h+status,2+status,0+btemp+1+pclath+cstack]
  3540                           ;sprintf@sp stored from wreg
  3541                           	bcf	status, 5	;RP0=0, select bank0
  3542  02A1  1283               	bcf	status, 6	;RP1=0, select bank0
  3543  02A2  1303               	movwf	(sprintf@sp)
  3544  02A3  00D9               	line	545
  3545                           	
  3546                           l2303:	
  3547  02A4                     ;C:\Program Files (x86)\Microchip\xc8\v2.00\pic\sources\c90\common\doprnt.c: 500: sprint
                                 f(char * sp, const char * f, ...);C:\Program Files (x86)\Microchip\xc8\v2.00\pic\sources
                                 \c90\common\doprnt.c: 501: {;C:\Program Files (x86)\Microchip\xc8\v2.00\pic\sources\c90\
                                 common\doprnt.c: 502:  va_list ap;;C:\Program Files (x86)\Microchip\xc8\v2.00\pic\source
                                 s\c90\common\doprnt.c: 507:  char c;;C:\Program Files (x86)\Microchip\xc8\v2.00\pic\sour
                                 ces\c90\common\doprnt.c: 516:  signed char prec;;C:\Program Files (x86)\Microchip\xc8\v2
                                 .00\pic\sources\c90\common\doprnt.c: 520:  unsigned char flag;
  3548                           	movlw	(low(?_sprintf|((0x0)<<8)+01h))&0ffh
  3549  02A4  304A               	movwf	(??_sprintf+0)+0
  3550  02A5  00D4               	movf	(??_sprintf+0)+0,w
  3551  02A6  0854               	movwf	(sprintf@ap)
  3552  02A7  00D7               	line	548
  3553                           ;C:\Program Files (x86)\Microchip\xc8\v2.00\pic\sources\c90\common\doprnt.c: 548:  while
                                 ((c = *f++)) {
  3554                           	goto	l2379
  3555  02A8  2C12               	
  3556                           l551:	
  3557  02A9                     	line	550
  3558                           	
  3559                           l2305:	
  3560  02A9                     ;C:\Program Files (x86)\Microchip\xc8\v2.00\pic\sources\c90\common\doprnt.c: 550:   if(c
                                  != '%')
  3561                           		movlw	37
  3562  02A9  3025               	xorwf	((sprintf@c)),w
  3563  02AA  065D               	btfsc	status,2
  3564  02AB  1903               	goto	u1541
  3565  02AC  2AAE               	goto	u1540
  3566  02AD  2AAF               u1541:
  3567  02AE                     	goto	l2311
  3568  02AE  2ABB               u1540:
  3569  02AF                     	line	553
  3570                           	
  3571                           l2307:	
  3572  02AF                     ;C:\Program Files (x86)\Microchip\xc8\v2.00\pic\sources\c90\common\doprnt.c: 552:   {;C:
                                 \Program Files (x86)\Microchip\xc8\v2.00\pic\sources\c90\common\doprnt.c: 553:    ((*sp+
                                 + = (c)));
  3573                           	movf	(sprintf@c),w
  3574  02AF  085D               	movwf	(??_sprintf+0)+0
  3575  02B0  00D4               	movf	(sprintf@sp),w
  3576  02B1  0859               	movwf	fsr0
  3577  02B2  0084               	movf	(??_sprintf+0)+0,w
  3578  02B3  0854               	bcf	status, 7	;select IRP bank0
  3579  02B4  1383               	movwf	indf
  3580  02B5  0080               	
  3581                           l2309:	
  3582  02B6                     	movlw	low(01h)
  3583  02B6  3001               	movwf	(??_sprintf+0)+0
  3584  02B7  00D4               	movf	(??_sprintf+0)+0,w
  3585  02B8  0854               	addwf	(sprintf@sp),f
  3586  02B9  07D9               	line	554
  3587                           ;C:\Program Files (x86)\Microchip\xc8\v2.00\pic\sources\c90\common\doprnt.c: 554:    con
                                 tinue;
  3588                           	goto	l2379
  3589  02BA  2C12               	line	555
  3590                           ;C:\Program Files (x86)\Microchip\xc8\v2.00\pic\sources\c90\common\doprnt.c: 555:   }
  3591                           	
  3592                           l552:	
  3593  02BB                     	line	560
  3594                           	
  3595                           l2311:	
  3596  02BB                     ;C:\Program Files (x86)\Microchip\xc8\v2.00\pic\sources\c90\common\doprnt.c: 560:   flag
                                  = 0;
  3597                           	clrf	(sprintf@flag)
  3598  02BB  01D8               	line	623
  3599                           	
  3600                           l2313:	
  3601  02BC                     ;C:\Program Files (x86)\Microchip\xc8\v2.00\pic\sources\c90\common\doprnt.c: 623:   if(*
                                 f == '.') {
  3602                           	movf	(sprintf@f),w
  3603  02BC  0849               	movwf	fsr0
  3604  02BD  0084               	fcall	stringdir
  3605  02BE  120A  118A  200D  120A  118A  	xorlw	02Eh
  3606  02C3  3A2E               	skipz
  3607  02C4  1D03               	goto	u1551
  3608  02C5  2AC7               	goto	u1550
  3609  02C6  2AC8               u1551:
  3610  02C7                     	goto	l2325
  3611  02C7  2B00               u1550:
  3612  02C8                     	line	625
  3613                           	
  3614                           l2315:	
  3615  02C8                     ;C:\Program Files (x86)\Microchip\xc8\v2.00\pic\sources\c90\common\doprnt.c: 625:    f++
                                 ;
  3616                           	movlw	low(01h)
  3617  02C8  3001               	movwf	(??_sprintf+0)+0
  3618  02C9  00D4               	movf	(??_sprintf+0)+0,w
  3619  02CA  0854               	addwf	(sprintf@f),f
  3620  02CB  07C9               	line	640
  3621                           	
  3622                           l2317:	
  3623  02CC                     ;C:\Program Files (x86)\Microchip\xc8\v2.00\pic\sources\c90\common\doprnt.c: 639:    {;C
                                 :\Program Files (x86)\Microchip\xc8\v2.00\pic\sources\c90\common\doprnt.c: 640:     prec
                                  = 0;
  3624                           	clrf	(sprintf@prec)
  3625  02CC  01DC               	line	641
  3626                           ;C:\Program Files (x86)\Microchip\xc8\v2.00\pic\sources\c90\common\doprnt.c: 641:     wh
                                 ile(isdigit((unsigned)*f))
  3627                           	goto	l2323
  3628  02CD  2AEE               	
  3629                           l555:	
  3630  02CE                     	line	642
  3631                           	
  3632                           l2319:	
  3633  02CE                     ;C:\Program Files (x86)\Microchip\xc8\v2.00\pic\sources\c90\common\doprnt.c: 642:      p
                                 rec = prec*10 + *f++ - '0';
  3634                           	bcf	status, 5	;RP0=0, select bank0
  3635  02CE  1283               	bcf	status, 6	;RP1=0, select bank0
  3636  02CF  1303               	movf	(sprintf@f),w
  3637  02D0  0849               	movwf	fsr0
  3638  02D1  0084               	fcall	stringdir
  3639  02D2  120A  118A  200D  120A  118A  	movwf	(??_sprintf+0)+0
  3640  02D7  00D4               	movlw	low(0Ah)
  3641  02D8  300A               	movwf	(??_sprintf+1)+0
  3642  02D9  00D5               	movf	(??_sprintf+1)+0,w
  3643  02DA  0855               	movwf	(___bmul@multiplicand)
  3644  02DB  00F0               	movf	(sprintf@prec),w
  3645  02DC  085C               	fcall	___bmul
  3646  02DD  120A  158A  25F0  120A  118A  	bcf	status, 5	;RP0=0, select bank0
  3647  02E2  1283               	bcf	status, 6	;RP1=0, select bank0
  3648  02E3  1303               	addwf	(??_sprintf+0)+0,w
  3649  02E4  0754               	addlw	-48
  3650  02E5  3ED0               	movwf	(??_sprintf+2)+0
  3651  02E6  00D6               	movf	(??_sprintf+2)+0,w
  3652  02E7  0856               	movwf	(sprintf@prec)
  3653  02E8  00DC               	
  3654                           l2321:	
  3655  02E9                     	movlw	low(01h)
  3656  02E9  3001               	movwf	(??_sprintf+0)+0
  3657  02EA  00D4               	movf	(??_sprintf+0)+0,w
  3658  02EB  0854               	addwf	(sprintf@f),f
  3659  02EC  07C9               	goto	l2323
  3660  02ED  2AEE               	
  3661                           l554:	
  3662  02EE                     	line	641
  3663                           	
  3664                           l2323:	
  3665  02EE                     ;C:\Program Files (x86)\Microchip\xc8\v2.00\pic\sources\c90\common\doprnt.c: 641:     wh
                                 ile(isdigit((unsigned)*f))
  3666                           	movf	(sprintf@f),w
  3667  02EE  0849               	movwf	fsr0
  3668  02EF  0084               	fcall	stringdir
  3669  02F0  120A  118A  200D  120A  118A  	fcall	_isdigit
  3670  02F5  120A  158A  25DC  120A  118A  	btfsc	status,0
  3671  02FA  1803               	goto	u1561
  3672  02FB  2AFD               	goto	u1560
  3673  02FC  2AFE               u1561:
  3674  02FD                     	goto	l2319
  3675  02FD  2ACE               u1560:
  3676  02FE                     	goto	l2329
  3677  02FE  2B0A               	
  3678                           l556:	
  3679  02FF                     	line	644
  3680                           ;C:\Program Files (x86)\Microchip\xc8\v2.00\pic\sources\c90\common\doprnt.c: 643:    };C
                                 :\Program Files (x86)\Microchip\xc8\v2.00\pic\sources\c90\common\doprnt.c: 644:   } else
                                  {
  3681                           	goto	l2329
  3682  02FF  2B0A               	
  3683                           l553:	
  3684  0300                     	line	645
  3685                           	
  3686                           l2325:	
  3687  0300                     ;C:\Program Files (x86)\Microchip\xc8\v2.00\pic\sources\c90\common\doprnt.c: 645:    pre
                                 c = 0;
  3688                           	bcf	status, 5	;RP0=0, select bank0
  3689  0300  1283               	bcf	status, 6	;RP1=0, select bank0
  3690  0301  1303               	clrf	(sprintf@prec)
  3691  0302  01DC               	goto	l2329
  3692  0303  2B0A               	line	649
  3693                           ;C:\Program Files (x86)\Microchip\xc8\v2.00\pic\sources\c90\common\doprnt.c: 649:   }
  3694                           	
  3695                           l557:	
  3696  0304                     	line	654
  3697                           ;C:\Program Files (x86)\Microchip\xc8\v2.00\pic\sources\c90\common\doprnt.c: 654:   swit
                                 ch(c = *f++) {
  3698                           	goto	l2329
  3699  0304  2B0A               	line	656
  3700                           ;C:\Program Files (x86)\Microchip\xc8\v2.00\pic\sources\c90\common\doprnt.c: 656:   case
                                  0:
  3701                           	
  3702                           l559:	
  3703  0305                     	line	657
  3704                           ;C:\Program Files (x86)\Microchip\xc8\v2.00\pic\sources\c90\common\doprnt.c: 657:    got
                                 o alldone;
  3705                           	goto	l2381
  3706  0305  2C26               	line	716
  3707                           ;C:\Program Files (x86)\Microchip\xc8\v2.00\pic\sources\c90\common\doprnt.c: 716:   case
                                  'd':
  3708                           	
  3709                           l561:	
  3710  0306                     	goto	l2331
  3711  0306  2B29               	line	717
  3712                           ;C:\Program Files (x86)\Microchip\xc8\v2.00\pic\sources\c90\common\doprnt.c: 717:   case
                                  'i':
  3713                           	
  3714                           l562:	
  3715  0307                     	line	718
  3716                           ;C:\Program Files (x86)\Microchip\xc8\v2.00\pic\sources\c90\common\doprnt.c: 718:    bre
                                 ak;
  3717                           	goto	l2331
  3718  0307  2B29               	line	821
  3719                           ;C:\Program Files (x86)\Microchip\xc8\v2.00\pic\sources\c90\common\doprnt.c: 821:   defa
                                 ult:
  3720                           	
  3721                           l564:	
  3722  0308                     	line	832
  3723                           ;C:\Program Files (x86)\Microchip\xc8\v2.00\pic\sources\c90\common\doprnt.c: 832:    con
                                 tinue;
  3724                           	goto	l2379
  3725  0308  2C12               	line	841
  3726                           	
  3727                           l2327:	
  3728  0309                     ;C:\Program Files (x86)\Microchip\xc8\v2.00\pic\sources\c90\common\doprnt.c: 841:   }
  3729                           	goto	l2331
  3730  0309  2B29               	
  3731                           l558:	
  3732  030A                     	
  3733                           l2329:	
  3734  030A                     	movlw	01h
  3735  030A  3001               	bcf	status, 5	;RP0=0, select bank0
  3736  030B  1283               	bcf	status, 6	;RP1=0, select bank0
  3737  030C  1303               	addwf	(sprintf@f),f
  3738  030D  07C9               	movlw	-01h
  3739  030E  30FF               	addwf	(sprintf@f),w
  3740  030F  0749               	movwf	fsr0
  3741  0310  0084               	fcall	stringdir
  3742  0311  120A  118A  200D  120A  118A  	movwf	(sprintf@c)
  3743  0316  00DD               	movwf	(??_sprintf+0)+0
  3744  0317  00D4               	clrf	(??_sprintf+0)+0+1
  3745  0318  01D5               	; Switch on 2 bytes has been partitioned into a top level switch of size 1, and 1 sub-s
                                 witches
  3746                           ; Switch size 1, requested type "space"
  3747                           ; Number of cases is 1, Range of values is 0 to 0
  3748                           ; switch strategies available:
  3749                           ; Name         Instructions Cycles
  3750                           ; simple_byte            4     3 (average)
  3751                           ; direct_byte           11     8 (fixed)
  3752                           ; jumptable            260     6 (fixed)
  3753                           ;	Chosen strategy is simple_byte
  3754                           
  3755                           	movf 1+(??_sprintf+0)+0,w
  3756  0319  0855               	opt asmopt_push
  3757                           	opt asmopt_off
  3758                           	xorlw	0^0	; case 0
  3759  031A  3A00               	skipnz
  3760  031B  1903               	goto	l2779
  3761  031C  2B1E               	goto	l2379
  3762  031D  2C12               	opt asmopt_pop
  3763                           	
  3764                           l2779:	
  3765  031E                     ; Switch size 1, requested type "space"
  3766                           ; Number of cases is 3, Range of values is 0 to 105
  3767                           ; switch strategies available:
  3768                           ; Name         Instructions Cycles
  3769                           ; simple_byte           10     6 (average)
  3770                           ; jumptable            260     6 (fixed)
  3771                           ;	Chosen strategy is simple_byte
  3772                           
  3773                           	movf 0+(??_sprintf+0)+0,w
  3774  031E  0854               	opt asmopt_push
  3775                           	opt asmopt_off
  3776                           	xorlw	0^0	; case 0
  3777  031F  3A00               	skipnz
  3778  0320  1903               	goto	l2381
  3779  0321  2C26               	xorlw	100^0	; case 100
  3780  0322  3A64               	skipnz
  3781  0323  1903               	goto	l2331
  3782  0324  2B29               	xorlw	105^100	; case 105
  3783  0325  3A0D               	skipnz
  3784  0326  1903               	goto	l2331
  3785  0327  2B29               	goto	l2379
  3786  0328  2C12               	opt asmopt_pop
  3787                           
  3788                           	
  3789                           l563:	
  3790  0329                     	line	1278
  3791                           	
  3792                           l2331:	
  3793  0329                     ;C:\Program Files (x86)\Microchip\xc8\v2.00\pic\sources\c90\common\doprnt.c: 1272:   {;C
                                 :\Program Files (x86)\Microchip\xc8\v2.00\pic\sources\c90\common\doprnt.c: 1278:     val
                                  = (int)(*(int *)__va_arg((*(int **)ap), (int)0));
  3794                           	movf	(sprintf@ap),w
  3795  0329  0857               	movwf	fsr0
  3796  032A  0084               	bcf	status, 7	;select IRP bank0
  3797  032B  1383               	movf	indf,w
  3798  032C  0800               	movwf	(sprintf@val)
  3799  032D  00DA               	incf	fsr0,f
  3800  032E  0A84               	movf	indf,w
  3801  032F  0800               	movwf	(sprintf@val+1)
  3802  0330  00DB               	
  3803                           l2333:	
  3804  0331                     	movlw	low(02h)
  3805  0331  3002               	movwf	(??_sprintf+0)+0
  3806  0332  00D4               	movf	(??_sprintf+0)+0,w
  3807  0333  0854               	addwf	(sprintf@ap),f
  3808  0334  07D7               	line	1280
  3809                           	
  3810                           l2335:	
  3811  0335                     ;C:\Program Files (x86)\Microchip\xc8\v2.00\pic\sources\c90\common\doprnt.c: 1280:    if
                                 ((int)val < 0) {
  3812                           	btfss	(sprintf@val+1),7
  3813  0335  1FDB               	goto	u1571
  3814  0336  2B38               	goto	u1570
  3815  0337  2B39               u1571:
  3816  0338                     	goto	l2341
  3817  0338  2B43               u1570:
  3818  0339                     	line	1281
  3819                           	
  3820                           l2337:	
  3821  0339                     ;C:\Program Files (x86)\Microchip\xc8\v2.00\pic\sources\c90\common\doprnt.c: 1281:     f
                                 lag |= 0x03;
  3822                           	movlw	low(03h)
  3823  0339  3003               	movwf	(??_sprintf+0)+0
  3824  033A  00D4               	movf	(??_sprintf+0)+0,w
  3825  033B  0854               	iorwf	(sprintf@flag),f
  3826  033C  04D8               	line	1282
  3827                           	
  3828                           l2339:	
  3829  033D                     ;C:\Program Files (x86)\Microchip\xc8\v2.00\pic\sources\c90\common\doprnt.c: 1282:     v
                                 al = -val;
  3830                           	comf	(sprintf@val),f
  3831  033D  09DA               	comf	(sprintf@val+1),f
  3832  033E  09DB               	incf	(sprintf@val),f
  3833  033F  0ADA               	skipnz
  3834  0340  1903               	incf	(sprintf@val+1),f
  3835  0341  0ADB               	goto	l2341
  3836  0342  2B43               	line	1283
  3837                           ;C:\Program Files (x86)\Microchip\xc8\v2.00\pic\sources\c90\common\doprnt.c: 1283:    }

  3838                           	
  3839                           l565:	
  3840  0343                     	line	1309
  3841                           	
  3842                           l2341:	
  3843  0343                     ;C:\Program Files (x86)\Microchip\xc8\v2.00\pic\sources\c90\common\doprnt.c: 1285:   };C
                                 :\Program Files (x86)\Microchip\xc8\v2.00\pic\sources\c90\common\doprnt.c: 1309:   if(pr
                                 ec == 0 && val == 0)
  3844                           	movf	((sprintf@prec)),w
  3845  0343  085C               	btfss	status,2
  3846  0344  1D03               	goto	u1581
  3847  0345  2B47               	goto	u1580
  3848  0346  2B48               u1581:
  3849  0347                     	goto	l2347
  3850  0347  2B53               u1580:
  3851  0348                     	
  3852                           l2343:	
  3853  0348                     	movf	((sprintf@val)),w
  3854  0348  085A               iorwf	((sprintf@val+1)),w
  3855  0349  045B               	btfss	status,2
  3856  034A  1D03               	goto	u1591
  3857  034B  2B4D               	goto	u1590
  3858  034C  2B4E               u1591:
  3859  034D                     	goto	l2347
  3860  034D  2B53               u1590:
  3861  034E                     	line	1310
  3862                           	
  3863                           l2345:	
  3864  034E                     ;C:\Program Files (x86)\Microchip\xc8\v2.00\pic\sources\c90\common\doprnt.c: 1310:    pr
                                 ec++;
  3865                           	movlw	low(01h)
  3866  034E  3001               	movwf	(??_sprintf+0)+0
  3867  034F  00D4               	movf	(??_sprintf+0)+0,w
  3868  0350  0854               	addwf	(sprintf@prec),f
  3869  0351  07DC               	goto	l2347
  3870  0352  2B53               	
  3871                           l566:	
  3872  0353                     	line	1324
  3873                           	
  3874                           l2347:	
  3875  0353                     ;C:\Program Files (x86)\Microchip\xc8\v2.00\pic\sources\c90\common\doprnt.c: 1324:    fo
                                 r(c = 1 ; c != sizeof dpowers/sizeof dpowers[0] ; c++)
  3876                           	clrf	(sprintf@c)
  3877  0353  01DD               	incf	(sprintf@c),f
  3878  0354  0ADD               		movlw	5
  3879  0355  3005               	xorwf	((sprintf@c)),w
  3880  0356  065D               	btfss	status,2
  3881  0357  1D03               	goto	u1601
  3882  0358  2B5A               	goto	u1600
  3883  0359  2B5B               u1601:
  3884  035A                     	goto	l2351
  3885  035A  2B5D               u1600:
  3886  035B                     	goto	l2357
  3887  035B  2B85               	
  3888                           l2349:	
  3889  035C                     	goto	l2357
  3890  035C  2B85               	
  3891                           l567:	
  3892  035D                     	line	1325
  3893                           	
  3894                           l2351:	
  3895  035D                     ;C:\Program Files (x86)\Microchip\xc8\v2.00\pic\sources\c90\common\doprnt.c: 1325:     i
                                 f(val < dpowers[c])
  3896                           	movf	(sprintf@c),w
  3897  035D  085D               	movwf	(??_sprintf+0)+0
  3898  035E  00D4               	addwf	(??_sprintf+0)+0,w
  3899  035F  0754               	addlw	low((((_dpowers)-__stringbase)|8000h))
  3900  0360  3E01               	movwf	fsr0
  3901  0361  0084               	fcall	stringdir
  3902  0362  120A  118A  200D  120A  118A  	movwf	(??_sprintf+1)+0
  3903  0367  00D5               	fcall	stringdir
  3904  0368  120A  118A  200D  120A  118A  	movwf	(??_sprintf+1)+0+1
  3905  036D  00D6               	movf	1+(??_sprintf+1)+0,w
  3906  036E  0856               	subwf	(sprintf@val+1),w
  3907  036F  025B               	skipz
  3908  0370  1D03               	goto	u1615
  3909  0371  2B74               	movf	0+(??_sprintf+1)+0,w
  3910  0372  0855               	subwf	(sprintf@val),w
  3911  0373  025A               u1615:
  3912  0374                     	skipnc
  3913  0374  1803               	goto	u1611
  3914  0375  2B77               	goto	u1610
  3915  0376  2B78               u1611:
  3916  0377                     	goto	l2355
  3917  0377  2B7A               u1610:
  3918  0378                     	goto	l2357
  3919  0378  2B85               	line	1326
  3920                           	
  3921                           l2353:	
  3922  0379                     ;C:\Program Files (x86)\Microchip\xc8\v2.00\pic\sources\c90\common\doprnt.c: 1326:      
                                 break;
  3923                           	goto	l2357
  3924  0379  2B85               	
  3925                           l569:	
  3926  037A                     	
  3927                           l2355:	
  3928  037A                     	movlw	low(01h)
  3929  037A  3001               	movwf	(??_sprintf+0)+0
  3930  037B  00D4               	movf	(??_sprintf+0)+0,w
  3931  037C  0854               	addwf	(sprintf@c),f
  3932  037D  07DD               		movlw	5
  3933  037E  3005               	xorwf	((sprintf@c)),w
  3934  037F  065D               	btfss	status,2
  3935  0380  1D03               	goto	u1621
  3936  0381  2B83               	goto	u1620
  3937  0382  2B84               u1621:
  3938  0383                     	goto	l2351
  3939  0383  2B5D               u1620:
  3940  0384                     	goto	l2357
  3941  0384  2B85               	
  3942                           l568:	
  3943  0385                     	line	1358
  3944                           	
  3945                           l2357:	
  3946  0385                     ;C:\Program Files (x86)\Microchip\xc8\v2.00\pic\sources\c90\common\doprnt.c: 1358:   if(
                                 c < prec)
  3947                           	movf	(sprintf@prec),w
  3948  0385  085C               	movwf	(??_sprintf+0)+0
  3949  0386  00D4               	clrf	(??_sprintf+0)+0+1
  3950  0387  01D5               	btfsc	(??_sprintf+0)+0,7
  3951  0388  1BD4               	decf	(??_sprintf+0)+0+1,f
  3952  0389  03D5               	movf	1+(??_sprintf+0)+0,w
  3953  038A  0855               	xorlw	80h
  3954  038B  3A80               	sublw	080h
  3955  038C  3C80               	skipz
  3956  038D  1D03               	goto	u1635
  3957  038E  2B91               	movf	0+(??_sprintf+0)+0,w
  3958  038F  0854               	subwf	(sprintf@c),w
  3959  0390  025D               u1635:
  3960  0391                     
  3961                           	skipnc
  3962  0391  1803               	goto	u1631
  3963  0392  2B94               	goto	u1630
  3964  0393  2B95               u1631:
  3965  0394                     	goto	l2361
  3966  0394  2B9C               u1630:
  3967  0395                     	line	1359
  3968                           	
  3969                           l2359:	
  3970  0395                     ;C:\Program Files (x86)\Microchip\xc8\v2.00\pic\sources\c90\common\doprnt.c: 1359:    c 
                                 = prec;
  3971                           	bcf	status, 5	;RP0=0, select bank0
  3972  0395  1283               	bcf	status, 6	;RP1=0, select bank0
  3973  0396  1303               	movf	(sprintf@prec),w
  3974  0397  085C               	movwf	(??_sprintf+0)+0
  3975  0398  00D4               	movf	(??_sprintf+0)+0,w
  3976  0399  0854               	movwf	(sprintf@c)
  3977  039A  00DD               	goto	l2365
  3978  039B  2BB8               	line	1360
  3979                           ;C:\Program Files (x86)\Microchip\xc8\v2.00\pic\sources\c90\common\doprnt.c: 1360:   els
                                 e if(prec < c)
  3980                           	
  3981                           l570:	
  3982  039C                     	
  3983                           l2361:	
  3984  039C                     	bcf	status, 5	;RP0=0, select bank0
  3985  039C  1283               	bcf	status, 6	;RP1=0, select bank0
  3986  039D  1303               	movf	(sprintf@prec),w
  3987  039E  085C               	movwf	(??_sprintf+0)+0
  3988  039F  00D4               	clrf	(??_sprintf+0)+0+1
  3989  03A0  01D5               	btfsc	(??_sprintf+0)+0,7
  3990  03A1  1BD4               	decf	(??_sprintf+0)+0+1,f
  3991  03A2  03D5               	movf	1+(??_sprintf+0)+0,w
  3992  03A3  0855               	xorlw	80h
  3993  03A4  3A80               	movwf	(??_sprintf+2)+0
  3994  03A5  00D6               	movlw	80h
  3995  03A6  3080               	subwf	(??_sprintf+2)+0,w
  3996  03A7  0256               	skipz
  3997  03A8  1D03               	goto	u1645
  3998  03A9  2BAC               	movf	(sprintf@c),w
  3999  03AA  085D               	subwf	0+(??_sprintf+0)+0,w
  4000  03AB  0254               u1645:
  4001  03AC                     
  4002                           	skipnc
  4003  03AC  1803               	goto	u1641
  4004  03AD  2BAF               	goto	u1640
  4005  03AE  2BB0               u1641:
  4006  03AF                     	goto	l2365
  4007  03AF  2BB8               u1640:
  4008  03B0                     	line	1361
  4009                           	
  4010                           l2363:	
  4011  03B0                     ;C:\Program Files (x86)\Microchip\xc8\v2.00\pic\sources\c90\common\doprnt.c: 1361:    pr
                                 ec = c;
  4012                           	bcf	status, 5	;RP0=0, select bank0
  4013  03B0  1283               	bcf	status, 6	;RP1=0, select bank0
  4014  03B1  1303               	movf	(sprintf@c),w
  4015  03B2  085D               	movwf	(??_sprintf+0)+0
  4016  03B3  00D4               	movf	(??_sprintf+0)+0,w
  4017  03B4  0854               	movwf	(sprintf@prec)
  4018  03B5  00DC               	goto	l2365
  4019  03B6  2BB8               	
  4020                           l572:	
  4021  03B7                     	goto	l2365
  4022  03B7  2BB8               	
  4023                           l571:	
  4024  03B8                     	line	1457
  4025                           	
  4026                           l2365:	
  4027  03B8                     ;C:\Program Files (x86)\Microchip\xc8\v2.00\pic\sources\c90\common\doprnt.c: 1441:   {;C
                                 :\Program Files (x86)\Microchip\xc8\v2.00\pic\sources\c90\common\doprnt.c: 1457:    if(f
                                 lag & 0x03)
  4028                           	bcf	status, 5	;RP0=0, select bank0
  4029  03B8  1283               	bcf	status, 6	;RP1=0, select bank0
  4030  03B9  1303               	movf	(sprintf@flag),w
  4031  03BA  0858               	andlw	03h
  4032  03BB  3903               	btfsc	status,2
  4033  03BC  1903               	goto	u1651
  4034  03BD  2BBF               	goto	u1650
  4035  03BE  2BC0               u1651:
  4036  03BF                     	goto	l2377
  4037  03BF  2C07               u1650:
  4038  03C0                     	line	1458
  4039                           	
  4040                           l2367:	
  4041  03C0                     ;C:\Program Files (x86)\Microchip\xc8\v2.00\pic\sources\c90\common\doprnt.c: 1458:     (
                                 (*sp++ = ('-')));
  4042                           	movlw	low(02Dh)
  4043  03C0  302D               	movwf	(??_sprintf+0)+0
  4044  03C1  00D4               	movf	(sprintf@sp),w
  4045  03C2  0859               	movwf	fsr0
  4046  03C3  0084               	movf	(??_sprintf+0)+0,w
  4047  03C4  0854               	bcf	status, 7	;select IRP bank0
  4048  03C5  1383               	movwf	indf
  4049  03C6  0080               	
  4050                           l2369:	
  4051  03C7                     	movlw	low(01h)
  4052  03C7  3001               	movwf	(??_sprintf+0)+0
  4053  03C8  00D4               	movf	(??_sprintf+0)+0,w
  4054  03C9  0854               	addwf	(sprintf@sp),f
  4055  03CA  07D9               	goto	l2377
  4056  03CB  2C07               	
  4057                           l573:	
  4058  03CC                     	line	1493
  4059                           ;C:\Program Files (x86)\Microchip\xc8\v2.00\pic\sources\c90\common\doprnt.c: 1488:   };C
                                 :\Program Files (x86)\Microchip\xc8\v2.00\pic\sources\c90\common\doprnt.c: 1493:   while
                                 (prec--) {
  4060                           	goto	l2377
  4061  03CC  2C07               	
  4062                           l575:	
  4063  03CD                     	line	1508
  4064                           	
  4065                           l2371:	
  4066  03CD                     ;C:\Program Files (x86)\Microchip\xc8\v2.00\pic\sources\c90\common\doprnt.c: 1497:    {;
                                 C:\Program Files (x86)\Microchip\xc8\v2.00\pic\sources\c90\common\doprnt.c: 1508:     c 
                                 = (val / dpowers[prec]) % 10 + '0';
  4067                           	movlw	0Ah
  4068  03CD  300A               	movwf	(___lwmod@divisor)
  4069  03CE  00F8               	movlw	0
  4070  03CF  3000               	movwf	((___lwmod@divisor))+1
  4071  03D0  00F9               	movf	(sprintf@prec),w
  4072  03D1  085C               	movwf	(??_sprintf+0)+0
  4073  03D2  00D4               	addwf	(??_sprintf+0)+0,w
  4074  03D3  0754               	addlw	low((((_dpowers)-__stringbase)|8000h))
  4075  03D4  3E01               	movwf	fsr0
  4076  03D5  0084               	fcall	stringdir
  4077  03D6  120A  118A  200D  120A  118A  	movwf	(___lwdiv@divisor)
  4078  03DB  00F0               	fcall	stringdir
  4079  03DC  120A  118A  200D  120A  118A  	movwf	(___lwdiv@divisor+1)
  4080  03E1  00F1               	movf	(sprintf@val+1),w
  4081  03E2  085B               	movwf	(___lwdiv@dividend+1)
  4082  03E3  00F3               	movf	(sprintf@val),w
  4083  03E4  085A               	movwf	(___lwdiv@dividend)
  4084  03E5  00F2               	fcall	___lwdiv
  4085  03E6  120A  118A  2164  120A  118A  	movf	(1+(?___lwdiv)),w
  4086  03EB  0871               	movwf	(___lwmod@dividend+1)
  4087  03EC  00FB               	movf	(0+(?___lwdiv)),w
  4088  03ED  0870               	movwf	(___lwmod@dividend)
  4089  03EE  00FA               	fcall	___lwmod
  4090  03EF  120A  118A  20DF  120A  118A  	movf	(0+(?___lwmod)),w
  4091  03F4  0878               	addlw	030h
  4092  03F5  3E30               	bcf	status, 5	;RP0=0, select bank0
  4093  03F6  1283               	bcf	status, 6	;RP1=0, select bank0
  4094  03F7  1303               	movwf	(??_sprintf+1)+0
  4095  03F8  00D5               	movf	(??_sprintf+1)+0,w
  4096  03F9  0855               	movwf	(sprintf@c)
  4097  03FA  00DD               	line	1543
  4098                           	
  4099                           l2373:	
  4100  03FB                     ;C:\Program Files (x86)\Microchip\xc8\v2.00\pic\sources\c90\common\doprnt.c: 1542:    };
                                 C:\Program Files (x86)\Microchip\xc8\v2.00\pic\sources\c90\common\doprnt.c: 1543:    ((*
                                 sp++ = (c)));
  4101                           	movf	(sprintf@c),w
  4102  03FB  085D               	movwf	(??_sprintf+0)+0
  4103  03FC  00D4               	movf	(sprintf@sp),w
  4104  03FD  0859               	movwf	fsr0
  4105  03FE  0084               	movf	(??_sprintf+0)+0,w
  4106  03FF  0854               	bcf	status, 7	;select IRP bank0
  4107  0400  1383               	movwf	indf
  4108  0401  0080               	
  4109                           l2375:	
  4110  0402                     	movlw	low(01h)
  4111  0402  3001               	movwf	(??_sprintf+0)+0
  4112  0403  00D4               	movf	(??_sprintf+0)+0,w
  4113  0404  0854               	addwf	(sprintf@sp),f
  4114  0405  07D9               	goto	l2377
  4115  0406  2C07               	line	1544
  4116                           ;C:\Program Files (x86)\Microchip\xc8\v2.00\pic\sources\c90\common\doprnt.c: 1544:   }
  4117                           	
  4118                           l574:	
  4119  0407                     	line	1493
  4120                           	
  4121                           l2377:	
  4122  0407                     ;C:\Program Files (x86)\Microchip\xc8\v2.00\pic\sources\c90\common\doprnt.c: 1493:   whi
                                 le(prec--) {
  4123                           	movlw	low(-1)
  4124  0407  30FF               	movwf	(??_sprintf+0)+0
  4125  0408  00D4               	movf	(??_sprintf+0)+0,w
  4126  0409  0854               	addwf	(sprintf@prec),f
  4127  040A  07DC               		incf	(((sprintf@prec))),w
  4128  040B  0A5C               	btfss	status,2
  4129  040C  1D03               	goto	u1661
  4130  040D  2C0F               	goto	u1660
  4131  040E  2C10               u1661:
  4132  040F                     	goto	l2371
  4133  040F  2BCD               u1660:
  4134  0410                     	goto	l2379
  4135  0410  2C12               	
  4136                           l576:	
  4137  0411                     	goto	l2379
  4138  0411  2C12               	line	1552
  4139                           ;C:\Program Files (x86)\Microchip\xc8\v2.00\pic\sources\c90\common\doprnt.c: 1552:  }
  4140                           	
  4141                           l550:	
  4142  0412                     	line	548
  4143                           	
  4144                           l2379:	
  4145  0412                     ;C:\Program Files (x86)\Microchip\xc8\v2.00\pic\sources\c90\common\doprnt.c: 548:  while
                                 ((c = *f++)) {
  4146                           	movlw	01h
  4147  0412  3001               	addwf	(sprintf@f),f
  4148  0413  07C9               	movlw	-01h
  4149  0414  30FF               	addwf	(sprintf@f),w
  4150  0415  0749               	movwf	fsr0
  4151  0416  0084               	fcall	stringdir
  4152  0417  120A  118A  200D  120A  118A  	movwf	(??_sprintf+0)+0
  4153  041C  00D4               	movf	(??_sprintf+0)+0,w
  4154  041D  0854               	movwf	(sprintf@c)
  4155  041E  00DD               	movf	(((sprintf@c))),w
  4156  041F  085D               	btfss	status,2
  4157  0420  1D03               	goto	u1671
  4158  0421  2C23               	goto	u1670
  4159  0422  2C24               u1671:
  4160  0423                     	goto	l2305
  4161  0423  2AA9               u1670:
  4162  0424                     	goto	l2381
  4163  0424  2C26               	
  4164                           l577:	
  4165  0425                     	goto	l2381
  4166  0425  2C26               	line	1554
  4167                           ;C:\Program Files (x86)\Microchip\xc8\v2.00\pic\sources\c90\common\doprnt.c: 1554: alldo
                                 ne:
  4168                           	
  4169                           l560:	
  4170  0426                     	line	1557
  4171                           	
  4172                           l2381:	
  4173  0426                     ;C:\Program Files (x86)\Microchip\xc8\v2.00\pic\sources\c90\common\doprnt.c: 1557:  *sp 
                                 = 0;
  4174                           	movf	(sprintf@sp),w
  4175  0426  0859               	movwf	fsr0
  4176  0427  0084               	bcf	status, 7	;select IRP bank0
  4177  0428  1383               	clrf	indf
  4178  0429  0180               	goto	l578
  4179  042A  2C2B               	line	1559
  4180                           	
  4181                           l2383:	
  4182  042B                     	line	1560
  4183                           ;C:\Program Files (x86)\Microchip\xc8\v2.00\pic\sources\c90\common\doprnt.c: 1559:  retu
                                 rn 0;;	Return value of _sprintf is never used
  4184                           	
  4185                           l578:	
  4186  042B                     	return
  4187  042B  0008               	opt stack 0
  4188                           GLOBAL	__end_of_sprintf
  4189                           	__end_of_sprintf:
  4190  042C                     	signat	_sprintf,4698
  4191                           	global	___lwmod
  4192                           
  4193 ;; *************** function ___lwmod *****************
  4194 ;; Defined at:
  4195 ;;		line 5 in file "C:\Program Files (x86)\Microchip\xc8\v2.00\pic\sources\c90\common\lwmod.c"
  4196 ;; Parameters:    Size  Location     Type
  4197 ;;  divisor         2    8[COMMON] unsigned int 
  4198 ;;  dividend        2   10[COMMON] unsigned int 
  4199 ;; Auto vars:     Size  Location     Type
  4200 ;;  counter         1   13[COMMON] unsigned char 
  4201 ;; Return value:  Size  Location     Type
  4202 ;;                  2    8[COMMON] unsigned int 
  4203 ;; Registers used:
  4204 ;;		wreg, status,2, status,0
  4205 ;; Tracked objects:
  4206 ;;		On entry : 0/0
  4207 ;;		On exit  : 0/0
  4208 ;;		Unchanged: 0/0
  4209 ;; Data sizes:     COMMON   BANK0   BANK1   BANK3   BANK2
  4210 ;;      Params:         4       0       0       0       0
  4211 ;;      Locals:         1       0       0       0       0
  4212 ;;      Temps:          1       0       0       0       0
  4213 ;;      Totals:         6       0       0       0       0
  4214 ;;Total ram usage:        6 bytes
  4215 ;; Hardware stack levels used:    1
  4216 ;; This function calls:
  4217 ;;		Nothing
  4218 ;; This function is called by:
  4219 ;;		_sprintf
  4220 ;; This function uses a non-reentrant model
  4221 ;;
  4222                           psect	text2,local,class=CODE,delta=2,merge=1,group=1
  4223                           	file	"C:\Program Files (x86)\Microchip\xc8\v2.00\pic\sources\c90\common\lwmod.c"
  4224                           	line	5
  4225                           global __ptext2
  4226                           __ptext2:	;psect for function ___lwmod
  4227  00DF                     psect	text2
  4228                           	file	"C:\Program Files (x86)\Microchip\xc8\v2.00\pic\sources\c90\common\lwmod.c"
  4229                           	line	5
  4230                           	global	__size_of___lwmod
  4231                           	__size_of___lwmod	equ	__end_of___lwmod-___lwmod
  4232  0041                     	
  4233                           ___lwmod:	
  4234  00DF                     ;incstack = 0
  4235                           	opt	stack 6
  4236                           ; Regs used in ___lwmod: [wreg+status,2+status,0]
  4237                           	line	12
  4238                           	
  4239                           l2179:	
  4240  00DF                     	movf	((___lwmod@divisor)),w
  4241  00DF  0878               iorwf	((___lwmod@divisor+1)),w
  4242  00E0  0479               	btfsc	status,2
  4243  00E1  1903               	goto	u1341
  4244  00E2  28E4               	goto	u1340
  4245  00E3  28E5               u1341:
  4246  00E4                     	goto	l2197
  4247  00E4  291A               u1340:
  4248  00E5                     	line	13
  4249                           	
  4250                           l2181:	
  4251  00E5                     	clrf	(___lwmod@counter)
  4252  00E5  01FD               	incf	(___lwmod@counter),f
  4253  00E6  0AFD               	line	14
  4254                           	goto	l2187
  4255  00E7  28F4               	
  4256                           l859:	
  4257  00E8                     	line	15
  4258                           	
  4259                           l2183:	
  4260  00E8                     	movlw	01h
  4261  00E8  3001               	
  4262                           u1355:
  4263  00E9                     	clrc
  4264  00E9  1003               	rlf	(___lwmod@divisor),f
  4265  00EA  0DF8               	rlf	(___lwmod@divisor+1),f
  4266  00EB  0DF9               	addlw	-1
  4267  00EC  3EFF               	skipz
  4268  00ED  1D03               	goto	u1355
  4269  00EE  28E9               	line	16
  4270                           	
  4271                           l2185:	
  4272  00EF                     	movlw	low(01h)
  4273  00EF  3001               	movwf	(??___lwmod+0)+0
  4274  00F0  00FC               	movf	(??___lwmod+0)+0,w
  4275  00F1  087C               	addwf	(___lwmod@counter),f
  4276  00F2  07FD               	goto	l2187
  4277  00F3  28F4               	line	17
  4278                           	
  4279                           l858:	
  4280  00F4                     	line	14
  4281                           	
  4282                           l2187:	
  4283  00F4                     	btfss	(___lwmod@divisor+1),(15)&7
  4284  00F4  1FF9               	goto	u1361
  4285  00F5  28F7               	goto	u1360
  4286  00F6  28F8               u1361:
  4287  00F7                     	goto	l2183
  4288  00F7  28E8               u1360:
  4289  00F8                     	goto	l2189
  4290  00F8  28FA               	
  4291                           l860:	
  4292  00F9                     	goto	l2189
  4293  00F9  28FA               	line	18
  4294                           	
  4295                           l861:	
  4296  00FA                     	line	19
  4297                           	
  4298                           l2189:	
  4299  00FA                     	movf	(___lwmod@divisor+1),w
  4300  00FA  0879               	subwf	(___lwmod@dividend+1),w
  4301  00FB  027B               	skipz
  4302  00FC  1D03               	goto	u1375
  4303  00FD  2900               	movf	(___lwmod@divisor),w
  4304  00FE  0878               	subwf	(___lwmod@dividend),w
  4305  00FF  027A               u1375:
  4306  0100                     	skipc
  4307  0100  1C03               	goto	u1371
  4308  0101  2903               	goto	u1370
  4309  0102  2904               u1371:
  4310  0103                     	goto	l2193
  4311  0103  290B               u1370:
  4312  0104                     	line	20
  4313                           	
  4314                           l2191:	
  4315  0104                     	movf	(___lwmod@divisor),w
  4316  0104  0878               	subwf	(___lwmod@dividend),f
  4317  0105  02FA               	movf	(___lwmod@divisor+1),w
  4318  0106  0879               	skipc
  4319  0107  1C03               	decf	(___lwmod@dividend+1),f
  4320  0108  03FB               	subwf	(___lwmod@dividend+1),f
  4321  0109  02FB               	goto	l2193
  4322  010A  290B               	
  4323                           l862:	
  4324  010B                     	line	21
  4325                           	
  4326                           l2193:	
  4327  010B                     	movlw	01h
  4328  010B  3001               	
  4329                           u1385:
  4330  010C                     	clrc
  4331  010C  1003               	rrf	(___lwmod@divisor+1),f
  4332  010D  0CF9               	rrf	(___lwmod@divisor),f
  4333  010E  0CF8               	addlw	-1
  4334  010F  3EFF               	skipz
  4335  0110  1D03               	goto	u1385
  4336  0111  290C               	line	22
  4337                           	
  4338                           l2195:	
  4339  0112                     	movlw	01h
  4340  0112  3001               	subwf	(___lwmod@counter),f
  4341  0113  02FD               	btfss	status,2
  4342  0114  1D03               	goto	u1391
  4343  0115  2917               	goto	u1390
  4344  0116  2918               u1391:
  4345  0117                     	goto	l2189
  4346  0117  28FA               u1390:
  4347  0118                     	goto	l2197
  4348  0118  291A               	
  4349                           l863:	
  4350  0119                     	goto	l2197
  4351  0119  291A               	line	23
  4352                           	
  4353                           l857:	
  4354  011A                     	line	24
  4355                           	
  4356                           l2197:	
  4357  011A                     	movf	(___lwmod@dividend+1),w
  4358  011A  087B               	movwf	(?___lwmod+1)
  4359  011B  00F9               	movf	(___lwmod@dividend),w
  4360  011C  087A               	movwf	(?___lwmod)
  4361  011D  00F8               	goto	l864
  4362  011E  291F               	
  4363                           l2199:	
  4364  011F                     	line	25
  4365                           	
  4366                           l864:	
  4367  011F                     	return
  4368  011F  0008               	opt stack 0
  4369                           GLOBAL	__end_of___lwmod
  4370                           	__end_of___lwmod:
  4371  0120                     	signat	___lwmod,8314
  4372                           	global	___lwdiv
  4373                           
  4374 ;; *************** function ___lwdiv *****************
  4375 ;; Defined at:
  4376 ;;		line 5 in file "C:\Program Files (x86)\Microchip\xc8\v2.00\pic\sources\c90\common\lwdiv.c"
  4377 ;; Parameters:    Size  Location     Type
  4378 ;;  divisor         2    0[COMMON] unsigned int 
  4379 ;;  dividend        2    2[COMMON] unsigned int 
  4380 ;; Auto vars:     Size  Location     Type
  4381 ;;  quotient        2    5[COMMON] unsigned int 
  4382 ;;  counter         1    7[COMMON] unsigned char 
  4383 ;; Return value:  Size  Location     Type
  4384 ;;                  2    0[COMMON] unsigned int 
  4385 ;; Registers used:
  4386 ;;		wreg, status,2, status,0
  4387 ;; Tracked objects:
  4388 ;;		On entry : 0/0
  4389 ;;		On exit  : 0/0
  4390 ;;		Unchanged: 0/0
  4391 ;; Data sizes:     COMMON   BANK0   BANK1   BANK3   BANK2
  4392 ;;      Params:         4       0       0       0       0
  4393 ;;      Locals:         3       0       0       0       0
  4394 ;;      Temps:          1       0       0       0       0
  4395 ;;      Totals:         8       0       0       0       0
  4396 ;;Total ram usage:        8 bytes
  4397 ;; Hardware stack levels used:    1
  4398 ;; This function calls:
  4399 ;;		Nothing
  4400 ;; This function is called by:
  4401 ;;		_sprintf
  4402 ;; This function uses a non-reentrant model
  4403 ;;
  4404                           psect	text3,local,class=CODE,delta=2,merge=1,group=1
  4405                           	file	"C:\Program Files (x86)\Microchip\xc8\v2.00\pic\sources\c90\common\lwdiv.c"
  4406                           	line	5
  4407                           global __ptext3
  4408                           __ptext3:	;psect for function ___lwdiv
  4409  0164                     psect	text3
  4410                           	file	"C:\Program Files (x86)\Microchip\xc8\v2.00\pic\sources\c90\common\lwdiv.c"
  4411                           	line	5
  4412                           	global	__size_of___lwdiv
  4413                           	__size_of___lwdiv	equ	__end_of___lwdiv-___lwdiv
  4414  004B                     	
  4415                           ___lwdiv:	
  4416  0164                     ;incstack = 0
  4417                           	opt	stack 6
  4418                           ; Regs used in ___lwdiv: [wreg+status,2+status,0]
  4419                           	line	13
  4420                           	
  4421                           l2153:	
  4422  0164                     	clrf	(___lwdiv@quotient)
  4423  0164  01F5               	clrf	(___lwdiv@quotient+1)
  4424  0165  01F6               	line	14
  4425                           	
  4426                           l2155:	
  4427  0166                     	movf	((___lwdiv@divisor)),w
  4428  0166  0870               iorwf	((___lwdiv@divisor+1)),w
  4429  0167  0471               	btfsc	status,2
  4430  0168  1903               	goto	u1271
  4431  0169  296B               	goto	u1270
  4432  016A  296C               u1271:
  4433  016B                     	goto	l2175
  4434  016B  29A9               u1270:
  4435  016C                     	line	15
  4436                           	
  4437                           l2157:	
  4438  016C                     	clrf	(___lwdiv@counter)
  4439  016C  01F7               	incf	(___lwdiv@counter),f
  4440  016D  0AF7               	line	16
  4441                           	goto	l2163
  4442  016E  297B               	
  4443                           l849:	
  4444  016F                     	line	17
  4445                           	
  4446                           l2159:	
  4447  016F                     	movlw	01h
  4448  016F  3001               	
  4449                           u1285:
  4450  0170                     	clrc
  4451  0170  1003               	rlf	(___lwdiv@divisor),f
  4452  0171  0DF0               	rlf	(___lwdiv@divisor+1),f
  4453  0172  0DF1               	addlw	-1
  4454  0173  3EFF               	skipz
  4455  0174  1D03               	goto	u1285
  4456  0175  2970               	line	18
  4457                           	
  4458                           l2161:	
  4459  0176                     	movlw	low(01h)
  4460  0176  3001               	movwf	(??___lwdiv+0)+0
  4461  0177  00F4               	movf	(??___lwdiv+0)+0,w
  4462  0178  0874               	addwf	(___lwdiv@counter),f
  4463  0179  07F7               	goto	l2163
  4464  017A  297B               	line	19
  4465                           	
  4466                           l848:	
  4467  017B                     	line	16
  4468                           	
  4469                           l2163:	
  4470  017B                     	btfss	(___lwdiv@divisor+1),(15)&7
  4471  017B  1FF1               	goto	u1291
  4472  017C  297E               	goto	u1290
  4473  017D  297F               u1291:
  4474  017E                     	goto	l2159
  4475  017E  296F               u1290:
  4476  017F                     	goto	l2165
  4477  017F  2981               	
  4478                           l850:	
  4479  0180                     	goto	l2165
  4480  0180  2981               	line	20
  4481                           	
  4482                           l851:	
  4483  0181                     	line	21
  4484                           	
  4485                           l2165:	
  4486  0181                     	movlw	01h
  4487  0181  3001               	
  4488                           u1305:
  4489  0182                     	clrc
  4490  0182  1003               	rlf	(___lwdiv@quotient),f
  4491  0183  0DF5               	rlf	(___lwdiv@quotient+1),f
  4492  0184  0DF6               	addlw	-1
  4493  0185  3EFF               	skipz
  4494  0186  1D03               	goto	u1305
  4495  0187  2982               	line	22
  4496                           	movf	(___lwdiv@divisor+1),w
  4497  0188  0871               	subwf	(___lwdiv@dividend+1),w
  4498  0189  0273               	skipz
  4499  018A  1D03               	goto	u1315
  4500  018B  298E               	movf	(___lwdiv@divisor),w
  4501  018C  0870               	subwf	(___lwdiv@dividend),w
  4502  018D  0272               u1315:
  4503  018E                     	skipc
  4504  018E  1C03               	goto	u1311
  4505  018F  2991               	goto	u1310
  4506  0190  2992               u1311:
  4507  0191                     	goto	l2171
  4508  0191  299A               u1310:
  4509  0192                     	line	23
  4510                           	
  4511                           l2167:	
  4512  0192                     	movf	(___lwdiv@divisor),w
  4513  0192  0870               	subwf	(___lwdiv@dividend),f
  4514  0193  02F2               	movf	(___lwdiv@divisor+1),w
  4515  0194  0871               	skipc
  4516  0195  1C03               	decf	(___lwdiv@dividend+1),f
  4517  0196  03F3               	subwf	(___lwdiv@dividend+1),f
  4518  0197  02F3               	line	24
  4519                           	
  4520                           l2169:	
  4521  0198                     	bsf	(___lwdiv@quotient)+(0/8),(0)&7
  4522  0198  1475               	goto	l2171
  4523  0199  299A               	line	25
  4524                           	
  4525                           l852:	
  4526  019A                     	line	26
  4527                           	
  4528                           l2171:	
  4529  019A                     	movlw	01h
  4530  019A  3001               	
  4531                           u1325:
  4532  019B                     	clrc
  4533  019B  1003               	rrf	(___lwdiv@divisor+1),f
  4534  019C  0CF1               	rrf	(___lwdiv@divisor),f
  4535  019D  0CF0               	addlw	-1
  4536  019E  3EFF               	skipz
  4537  019F  1D03               	goto	u1325
  4538  01A0  299B               	line	27
  4539                           	
  4540                           l2173:	
  4541  01A1                     	movlw	01h
  4542  01A1  3001               	subwf	(___lwdiv@counter),f
  4543  01A2  02F7               	btfss	status,2
  4544  01A3  1D03               	goto	u1331
  4545  01A4  29A6               	goto	u1330
  4546  01A5  29A7               u1331:
  4547  01A6                     	goto	l2165
  4548  01A6  2981               u1330:
  4549  01A7                     	goto	l2175
  4550  01A7  29A9               	
  4551                           l853:	
  4552  01A8                     	goto	l2175
  4553  01A8  29A9               	line	28
  4554                           	
  4555                           l847:	
  4556  01A9                     	line	29
  4557                           	
  4558                           l2175:	
  4559  01A9                     	movf	(___lwdiv@quotient+1),w
  4560  01A9  0876               	movwf	(?___lwdiv+1)
  4561  01AA  00F1               	movf	(___lwdiv@quotient),w
  4562  01AB  0875               	movwf	(?___lwdiv)
  4563  01AC  00F0               	goto	l854
  4564  01AD  29AE               	
  4565                           l2177:	
  4566  01AE                     	line	30
  4567                           	
  4568                           l854:	
  4569  01AE                     	return
  4570  01AE  0008               	opt stack 0
  4571                           GLOBAL	__end_of___lwdiv
  4572                           	__end_of___lwdiv:
  4573  01AF                     	signat	___lwdiv,8314
  4574                           	global	___bmul
  4575                           
  4576 ;; *************** function ___bmul *****************
  4577 ;; Defined at:
  4578 ;;		line 4 in file "C:\Program Files (x86)\Microchip\xc8\v2.00\pic\sources\c90\common\Umul8.c"
  4579 ;; Parameters:    Size  Location     Type
  4580 ;;  multiplier      1    wreg     unsigned char 
  4581 ;;  multiplicand    1    0[COMMON] unsigned char 
  4582 ;; Auto vars:     Size  Location     Type
  4583 ;;  multiplier      1    3[COMMON] unsigned char 
  4584 ;;  product         1    2[COMMON] unsigned char 
  4585 ;; Return value:  Size  Location     Type
  4586 ;;                  1    wreg      unsigned char 
  4587 ;; Registers used:
  4588 ;;		wreg, status,2, status,0
  4589 ;; Tracked objects:
  4590 ;;		On entry : 0/0
  4591 ;;		On exit  : 0/0
  4592 ;;		Unchanged: 0/0
  4593 ;; Data sizes:     COMMON   BANK0   BANK1   BANK3   BANK2
  4594 ;;      Params:         1       0       0       0       0
  4595 ;;      Locals:         2       0       0       0       0
  4596 ;;      Temps:          1       0       0       0       0
  4597 ;;      Totals:         4       0       0       0       0
  4598 ;;Total ram usage:        4 bytes
  4599 ;; Hardware stack levels used:    1
  4600 ;; This function calls:
  4601 ;;		Nothing
  4602 ;; This function is called by:
  4603 ;;		_sprintf
  4604 ;; This function uses a non-reentrant model
  4605 ;;
  4606                           psect	text4,local,class=CODE,delta=2,merge=1,group=1
  4607                           	file	"C:\Program Files (x86)\Microchip\xc8\v2.00\pic\sources\c90\common\Umul8.c"
  4608                           	line	4
  4609                           global __ptext4
  4610                           __ptext4:	;psect for function ___bmul
  4611  0DF0                     psect	text4
  4612                           	file	"C:\Program Files (x86)\Microchip\xc8\v2.00\pic\sources\c90\common\Umul8.c"
  4613                           	line	4
  4614                           	global	__size_of___bmul
  4615                           	__size_of___bmul	equ	__end_of___bmul-___bmul
  4616  0019                     	
  4617                           ___bmul:	
  4618  0DF0                     ;incstack = 0
  4619                           	opt	stack 6
  4620                           ; Regs used in ___bmul: [wreg+status,2+status,0]
  4621                           ;___bmul@multiplier stored from wreg
  4622                           	movwf	(___bmul@multiplier)
  4623  0DF0  00F3               	line	6
  4624                           	
  4625                           l2115:	
  4626  0DF1                     	clrf	(___bmul@product)
  4627  0DF1  01F2               	goto	l2117
  4628  0DF2  2DF3               	line	42
  4629                           	
  4630                           l605:	
  4631  0DF3                     	line	43
  4632                           	
  4633                           l2117:	
  4634  0DF3                     	btfss	(___bmul@multiplier),(0)&7
  4635  0DF3  1C73               	goto	u1181
  4636  0DF4  2DF6               	goto	u1180
  4637  0DF5  2DF7               u1181:
  4638  0DF6                     	goto	l2121
  4639  0DF6  2DFC               u1180:
  4640  0DF7                     	line	44
  4641                           	
  4642                           l2119:	
  4643  0DF7                     	movf	(___bmul@multiplicand),w
  4644  0DF7  0870               	movwf	(??___bmul+0)+0
  4645  0DF8  00F1               	movf	(??___bmul+0)+0,w
  4646  0DF9  0871               	addwf	(___bmul@product),f
  4647  0DFA  07F2               	goto	l2121
  4648  0DFB  2DFC               	
  4649                           l606:	
  4650  0DFC                     	line	45
  4651                           	
  4652                           l2121:	
  4653  0DFC                     	clrc
  4654  0DFC  1003               	rlf	(___bmul@multiplicand),f
  4655  0DFD  0DF0               
  4656                           	line	46
  4657                           	
  4658                           l2123:	
  4659  0DFE                     	clrc
  4660  0DFE  1003               	rrf	(___bmul@multiplier),f
  4661  0DFF  0CF3               
  4662                           	line	47
  4663                           	movf	((___bmul@multiplier)),w
  4664  0E00  0873               	btfss	status,2
  4665  0E01  1D03               	goto	u1191
  4666  0E02  2E04               	goto	u1190
  4667  0E03  2E05               u1191:
  4668  0E04                     	goto	l2117
  4669  0E04  2DF3               u1190:
  4670  0E05                     	goto	l2125
  4671  0E05  2E06               	
  4672                           l607:	
  4673  0E06                     	line	50
  4674                           	
  4675                           l2125:	
  4676  0E06                     	movf	(___bmul@product),w
  4677  0E06  0872               	goto	l608
  4678  0E07  2E08               	
  4679                           l2127:	
  4680  0E08                     	line	51
  4681                           	
  4682                           l608:	
  4683  0E08                     	return
  4684  0E08  0008               	opt stack 0
  4685                           GLOBAL	__end_of___bmul
  4686                           	__end_of___bmul:
  4687  0E09                     	signat	___bmul,8313
  4688                           	global	_servo180
  4689                           
  4690 ;; *************** function _servo180 *****************
  4691 ;; Defined at:
  4692 ;;		line 247 in file "Pri-Master.c"
  4693 ;; Parameters:    Size  Location     Type
  4694 ;;		None
  4695 ;; Auto vars:     Size  Location     Type
  4696 ;;  i               2    2[COMMON] unsigned int 
  4697 ;; Return value:  Size  Location     Type
  4698 ;;                  1    wreg      void 
  4699 ;; Registers used:
  4700 ;;		wreg, status,2
  4701 ;; Tracked objects:
  4702 ;;		On entry : 0/0
  4703 ;;		On exit  : 0/0
  4704 ;;		Unchanged: 0/0
  4705 ;; Data sizes:     COMMON   BANK0   BANK1   BANK3   BANK2
  4706 ;;      Params:         0       0       0       0       0
  4707 ;;      Locals:         2       0       0       0       0
  4708 ;;      Temps:          2       0       0       0       0
  4709 ;;      Totals:         4       0       0       0       0
  4710 ;;Total ram usage:        4 bytes
  4711 ;; Hardware stack levels used:    1
  4712 ;; This function calls:
  4713 ;;		Nothing
  4714 ;; This function is called by:
  4715 ;;		_main
  4716 ;; This function uses a non-reentrant model
  4717 ;;
  4718                           psect	text5,local,class=CODE,delta=2,merge=1,group=0
  4719                           	file	"Pri-Master.c"
  4720                           	line	247
  4721                           global __ptext5
  4722                           __ptext5:	;psect for function _servo180
  4723  0F93                     psect	text5
  4724                           	file	"Pri-Master.c"
  4725                           	line	247
  4726                           	global	__size_of_servo180
  4727                           	__size_of_servo180	equ	__end_of_servo180-_servo180
  4728  0035                     	
  4729                           _servo180:	
  4730  0F93                     ;incstack = 0
  4731                           	opt	stack 7
  4732                           ; Regs used in _servo180: [wreg+status,2]
  4733                           	line	250
  4734                           	
  4735                           l2403:	
  4736  0F93                     ;Pri-Master.c: 249:   unsigned int i;;Pri-Master.c: 250:   for(i=0;i<50;i++)
  4737                           	clrf	(servo180@i)
  4738  0F93  01F2               	clrf	(servo180@i+1)
  4739  0F94  01F3               	
  4740                           l2405:	
  4741  0F95                     	movlw	0
  4742  0F95  3000               	subwf	(servo180@i+1),w
  4743  0F96  0273               	movlw	032h
  4744  0F97  3032               	skipnz
  4745  0F98  1903               	subwf	(servo180@i),w
  4746  0F99  0272               	skipc
  4747  0F9A  1C03               	goto	u1711
  4748  0F9B  2F9D               	goto	u1710
  4749  0F9C  2F9E               u1711:
  4750  0F9D                     	goto	l411
  4751  0F9D  2FA0               u1710:
  4752  0F9E                     	goto	l413
  4753  0F9E  2FC7               	
  4754                           l2407:	
  4755  0F9F                     	goto	l413
  4756  0F9F  2FC7               	
  4757                           l411:	
  4758  0FA0                     	line	252
  4759                           ;Pri-Master.c: 251:   {;Pri-Master.c: 252:     PORTAbits.RA0 = 1;
  4760                           	bcf	status, 5	;RP0=0, select bank0
  4761  0FA0  1283               	bcf	status, 6	;RP1=0, select bank0
  4762  0FA1  1303               	bsf	(5),0	;volatile
  4763  0FA2  1405               	line	253
  4764                           	
  4765                           l2409:	
  4766  0FA3                     ;Pri-Master.c: 253:     _delay((unsigned long)((2000)*(4000000/4000000.0)));
  4767                           	opt asmopt_push
  4768                           opt asmopt_off
  4769                           movlw	3
  4770  0FA3  3003               movwf	((??_servo180+0)+0+1),f
  4771  0FA4  00F1               	movlw	151
  4772  0FA5  3097               movwf	((??_servo180+0)+0),f
  4773  0FA6  00F0               	u1937:
  4774  0FA7                     decfsz	((??_servo180+0)+0),f
  4775  0FA7  0BF0               	goto	u1937
  4776  0FA8  2FA7               	decfsz	((??_servo180+0)+0+1),f
  4777  0FA9  0BF1               	goto	u1937
  4778  0FAA  2FA7               	nop2
  4779  0FAB  2FAC               opt asmopt_pop
  4780                           
  4781                           	line	254
  4782                           	
  4783                           l2411:	
  4784  0FAC                     ;Pri-Master.c: 254:     PORTAbits.RA0 = 0;
  4785                           	bcf	status, 5	;RP0=0, select bank0
  4786  0FAC  1283               	bcf	status, 6	;RP1=0, select bank0
  4787  0FAD  1303               	bcf	(5),0	;volatile
  4788  0FAE  1005               	line	255
  4789                           ;Pri-Master.c: 255:     _delay((unsigned long)((18000)*(4000000/4000000.0)));
  4790                           	opt asmopt_push
  4791                           opt asmopt_off
  4792                           movlw	24
  4793  0FAF  3018               movwf	((??_servo180+0)+0+1),f
  4794  0FB0  00F1               	movlw	95
  4795  0FB1  305F               movwf	((??_servo180+0)+0),f
  4796  0FB2  00F0               	u1947:
  4797  0FB3                     decfsz	((??_servo180+0)+0),f
  4798  0FB3  0BF0               	goto	u1947
  4799  0FB4  2FB3               	decfsz	((??_servo180+0)+0+1),f
  4800  0FB5  0BF1               	goto	u1947
  4801  0FB6  2FB3               opt asmopt_pop
  4802                           
  4803                           	line	256
  4804                           ;Pri-Master.c: 256:   }
  4805                           	movlw	01h
  4806  0FB7  3001               	addwf	(servo180@i),f
  4807  0FB8  07F2               	skipnc
  4808  0FB9  1803               	incf	(servo180@i+1),f
  4809  0FBA  0AF3               	movlw	0
  4810  0FBB  3000               	addwf	(servo180@i+1),f
  4811  0FBC  07F3               	movlw	0
  4812  0FBD  3000               	subwf	(servo180@i+1),w
  4813  0FBE  0273               	movlw	032h
  4814  0FBF  3032               	skipnz
  4815  0FC0  1903               	subwf	(servo180@i),w
  4816  0FC1  0272               	skipc
  4817  0FC2  1C03               	goto	u1721
  4818  0FC3  2FC5               	goto	u1720
  4819  0FC4  2FC6               u1721:
  4820  0FC5                     	goto	l411
  4821  0FC5  2FA0               u1720:
  4822  0FC6                     	goto	l413
  4823  0FC6  2FC7               	
  4824                           l412:	
  4825  0FC7                     	line	257
  4826                           	
  4827                           l413:	
  4828  0FC7                     	return
  4829  0FC7  0008               	opt stack 0
  4830                           GLOBAL	__end_of_servo180
  4831                           	__end_of_servo180:
  4832  0FC8                     	signat	_servo180,89
  4833                           	global	_servo0
  4834                           
  4835 ;; *************** function _servo0 *****************
  4836 ;; Defined at:
  4837 ;;		line 236 in file "Pri-Master.c"
  4838 ;; Parameters:    Size  Location     Type
  4839 ;;		None
  4840 ;; Auto vars:     Size  Location     Type
  4841 ;;  i               2    2[COMMON] unsigned int 
  4842 ;; Return value:  Size  Location     Type
  4843 ;;                  1    wreg      void 
  4844 ;; Registers used:
  4845 ;;		wreg, status,2
  4846 ;; Tracked objects:
  4847 ;;		On entry : 0/0
  4848 ;;		On exit  : 0/0
  4849 ;;		Unchanged: 0/0
  4850 ;; Data sizes:     COMMON   BANK0   BANK1   BANK3   BANK2
  4851 ;;      Params:         0       0       0       0       0
  4852 ;;      Locals:         2       0       0       0       0
  4853 ;;      Temps:          2       0       0       0       0
  4854 ;;      Totals:         4       0       0       0       0
  4855 ;;Total ram usage:        4 bytes
  4856 ;; Hardware stack levels used:    1
  4857 ;; This function calls:
  4858 ;;		Nothing
  4859 ;; This function is called by:
  4860 ;;		_main
  4861 ;; This function uses a non-reentrant model
  4862 ;;
  4863                           psect	text6,local,class=CODE,delta=2,merge=1,group=0
  4864                           	line	236
  4865                           global __ptext6
  4866                           __ptext6:	;psect for function _servo0
  4867  0F5F                     psect	text6
  4868                           	file	"Pri-Master.c"
  4869                           	line	236
  4870                           	global	__size_of_servo0
  4871                           	__size_of_servo0	equ	__end_of_servo0-_servo0
  4872  0034                     	
  4873                           _servo0:	
  4874  0F5F                     ;incstack = 0
  4875                           	opt	stack 7
  4876                           ; Regs used in _servo0: [wreg+status,2]
  4877                           	line	239
  4878                           	
  4879                           l2393:	
  4880  0F5F                     ;Pri-Master.c: 238:   unsigned int i;;Pri-Master.c: 239:   for(i=0;i<50;i++)
  4881                           	clrf	(servo0@i)
  4882  0F5F  01F2               	clrf	(servo0@i+1)
  4883  0F60  01F3               	
  4884                           l2395:	
  4885  0F61                     	movlw	0
  4886  0F61  3000               	subwf	(servo0@i+1),w
  4887  0F62  0273               	movlw	032h
  4888  0F63  3032               	skipnz
  4889  0F64  1903               	subwf	(servo0@i),w
  4890  0F65  0272               	skipc
  4891  0F66  1C03               	goto	u1691
  4892  0F67  2F69               	goto	u1690
  4893  0F68  2F6A               u1691:
  4894  0F69                     	goto	l406
  4895  0F69  2F6C               u1690:
  4896  0F6A                     	goto	l408
  4897  0F6A  2F92               	
  4898                           l2397:	
  4899  0F6B                     	goto	l408
  4900  0F6B  2F92               	
  4901                           l406:	
  4902  0F6C                     	line	241
  4903                           ;Pri-Master.c: 240:   {;Pri-Master.c: 241:     PORTAbits.RA0 = 1;
  4904                           	bcf	status, 5	;RP0=0, select bank0
  4905  0F6C  1283               	bcf	status, 6	;RP1=0, select bank0
  4906  0F6D  1303               	bsf	(5),0	;volatile
  4907  0F6E  1405               	line	242
  4908                           	
  4909                           l2399:	
  4910  0F6F                     ;Pri-Master.c: 242:     _delay((unsigned long)((1000)*(4000000/4000000.0)));
  4911                           	opt asmopt_push
  4912                           opt asmopt_off
  4913                           	movlw	199
  4914  0F6F  30C7               movwf	((??_servo0+0)+0),f
  4915  0F70  00F0               	u1957:
  4916  0F71                     	nop2
  4917  0F71  2F72               decfsz	(??_servo0+0)+0,f
  4918  0F72  0BF0               	goto	u1957
  4919  0F73  2F71               	nop2
  4920  0F74  2F75               	nop2
  4921  0F75  2F76               opt asmopt_pop
  4922                           
  4923                           	line	243
  4924                           	
  4925                           l2401:	
  4926  0F76                     ;Pri-Master.c: 243:     PORTAbits.RA0 = 0;
  4927                           	bcf	status, 5	;RP0=0, select bank0
  4928  0F76  1283               	bcf	status, 6	;RP1=0, select bank0
  4929  0F77  1303               	bcf	(5),0	;volatile
  4930  0F78  1005               	line	244
  4931                           ;Pri-Master.c: 244:     _delay((unsigned long)((19000)*(4000000/4000000.0)));
  4932                           	opt asmopt_push
  4933                           opt asmopt_off
  4934                           movlw	25
  4935  0F79  3019               movwf	((??_servo0+0)+0+1),f
  4936  0F7A  00F1               	movlw	171
  4937  0F7B  30AB               movwf	((??_servo0+0)+0),f
  4938  0F7C  00F0               	u1967:
  4939  0F7D                     decfsz	((??_servo0+0)+0),f
  4940  0F7D  0BF0               	goto	u1967
  4941  0F7E  2F7D               	decfsz	((??_servo0+0)+0+1),f
  4942  0F7F  0BF1               	goto	u1967
  4943  0F80  2F7D               	nop2
  4944  0F81  2F82               opt asmopt_pop
  4945                           
  4946                           	line	245
  4947                           ;Pri-Master.c: 245:   }
  4948                           	movlw	01h
  4949  0F82  3001               	addwf	(servo0@i),f
  4950  0F83  07F2               	skipnc
  4951  0F84  1803               	incf	(servo0@i+1),f
  4952  0F85  0AF3               	movlw	0
  4953  0F86  3000               	addwf	(servo0@i+1),f
  4954  0F87  07F3               	movlw	0
  4955  0F88  3000               	subwf	(servo0@i+1),w
  4956  0F89  0273               	movlw	032h
  4957  0F8A  3032               	skipnz
  4958  0F8B  1903               	subwf	(servo0@i),w
  4959  0F8C  0272               	skipc
  4960  0F8D  1C03               	goto	u1701
  4961  0F8E  2F90               	goto	u1700
  4962  0F8F  2F91               u1701:
  4963  0F90                     	goto	l406
  4964  0F90  2F6C               u1700:
  4965  0F91                     	goto	l408
  4966  0F91  2F92               	
  4967                           l407:	
  4968  0F92                     	line	246
  4969                           	
  4970                           l408:	
  4971  0F92                     	return
  4972  0F92  0008               	opt stack 0
  4973                           GLOBAL	__end_of_servo0
  4974                           	__end_of_servo0:
  4975  0F93                     	signat	_servo0,89
  4976                           	global	_read_ds1307
  4977                           
  4978 ;; *************** function _read_ds1307 *****************
  4979 ;; Defined at:
  4980 ;;		line 43 in file "Pri-Master.c"
  4981 ;; Parameters:    Size  Location     Type
  4982 ;;  address         2    6[COMMON] unsigned short 
  4983 ;; Auto vars:     Size  Location     Type
  4984 ;;  r_data          2    8[COMMON] unsigned short 
  4985 ;; Return value:  Size  Location     Type
  4986 ;;                  2    6[COMMON] unsigned short 
  4987 ;; Registers used:
  4988 ;;		wreg, status,2, status,0, pclath, cstack
  4989 ;; Tracked objects:
  4990 ;;		On entry : 0/0
  4991 ;;		On exit  : 0/0
  4992 ;;		Unchanged: 0/0
  4993 ;; Data sizes:     COMMON   BANK0   BANK1   BANK3   BANK2
  4994 ;;      Params:         2       0       0       0       0
  4995 ;;      Locals:         2       0       0       0       0
  4996 ;;      Temps:          0       0       0       0       0
  4997 ;;      Totals:         4       0       0       0       0
  4998 ;;Total ram usage:        4 bytes
  4999 ;; Hardware stack levels used:    1
  5000 ;; Hardware stack levels required when called:    2
  5001 ;; This function calls:
  5002 ;;		_I2C_Master_Read
  5003 ;;		_I2C_Master_RepeatedStart
  5004 ;;		_I2C_Master_Start
  5005 ;;		_I2C_Master_Stop
  5006 ;;		_I2C_Master_Write
  5007 ;; This function is called by:
  5008 ;;		_main
  5009 ;; This function uses a non-reentrant model
  5010 ;;
  5011                           psect	text7,local,class=CODE,delta=2,merge=1,group=0
  5012                           	line	43
  5013                           global __ptext7
  5014                           __ptext7:	;psect for function _read_ds1307
  5015  0066                     psect	text7
  5016                           	file	"Pri-Master.c"
  5017                           	line	43
  5018                           	global	__size_of_read_ds1307
  5019                           	__size_of_read_ds1307	equ	__end_of_read_ds1307-_read_ds1307
  5020  003C                     	
  5021                           _read_ds1307:	
  5022  0066                     ;incstack = 0
  5023                           	opt	stack 5
  5024                           ; Regs used in _read_ds1307: [wreg+status,2+status,0+pclath+cstack]
  5025                           	line	45
  5026                           	
  5027                           l2243:	
  5028  0066                     ;Pri-Master.c: 44: unsigned short r_data;;Pri-Master.c: 45:   I2C_Master_Start();
  5029                           	fcall	_I2C_Master_Start
  5030  0066  120A  158A  2547  120A  118A  	line	46
  5031                           ;Pri-Master.c: 46:   I2C_Master_Write(0xD0);
  5032                           	movlw	0D0h
  5033  006B  30D0               	movwf	(I2C_Master_Write@d)
  5034  006C  00F0               	movlw	0
  5035  006D  3000               	movwf	((I2C_Master_Write@d))+1
  5036  006E  00F1               	fcall	_I2C_Master_Write
  5037  006F  120A  158A  2559  120A  118A  	line	47
  5038                           ;Pri-Master.c: 47:   I2C_Master_Write(address);
  5039                           	movf	(read_ds1307@address+1),w
  5040  0074  0877               	movwf	(I2C_Master_Write@d+1)
  5041  0075  00F1               	movf	(read_ds1307@address),w
  5042  0076  0876               	movwf	(I2C_Master_Write@d)
  5043  0077  00F0               	fcall	_I2C_Master_Write
  5044  0078  120A  158A  2559  120A  118A  	line	48
  5045                           ;Pri-Master.c: 48:   I2C_Master_RepeatedStart();
  5046                           	fcall	_I2C_Master_RepeatedStart
  5047  007D  120A  158A  253E  120A  118A  	line	49
  5048                           ;Pri-Master.c: 49:   I2C_Master_Write(0xD1);
  5049                           	movlw	0D1h
  5050  0082  30D1               	movwf	(I2C_Master_Write@d)
  5051  0083  00F0               	movlw	0
  5052  0084  3000               	movwf	((I2C_Master_Write@d))+1
  5053  0085  00F1               	fcall	_I2C_Master_Write
  5054  0086  120A  158A  2559  120A  118A  	line	50
  5055                           ;Pri-Master.c: 50:   r_data=I2C_Master_Read(0);
  5056                           	movlw	0
  5057  008B  3000               	movwf	(I2C_Master_Read@a)
  5058  008C  00F0               	movwf	(I2C_Master_Read@a+1)
  5059  008D  00F1               	fcall	_I2C_Master_Read
  5060  008E  120A  158A  26CB  120A  118A  	movf	(1+(?_I2C_Master_Read)),w
  5061  0093  0871               	movwf	(read_ds1307@r_data+1)
  5062  0094  00F9               	movf	(0+(?_I2C_Master_Read)),w
  5063  0095  0870               	movwf	(read_ds1307@r_data)
  5064  0096  00F8               	line	51
  5065                           ;Pri-Master.c: 51:   I2C_Master_Stop();
  5066                           	fcall	_I2C_Master_Stop
  5067  0097  120A  158A  2550  120A  118A  	line	52
  5068                           	
  5069                           l2245:	
  5070  009C                     ;Pri-Master.c: 52:   return(r_data);
  5071                           	movf	(read_ds1307@r_data+1),w
  5072  009C  0879               	movwf	(?_read_ds1307+1)
  5073  009D  00F7               	movf	(read_ds1307@r_data),w
  5074  009E  0878               	movwf	(?_read_ds1307)
  5075  009F  00F6               	goto	l311
  5076  00A0  28A1               	
  5077                           l2247:	
  5078  00A1                     	line	53
  5079                           	
  5080                           l311:	
  5081  00A1                     	return
  5082  00A1  0008               	opt stack 0
  5083                           GLOBAL	__end_of_read_ds1307
  5084                           	__end_of_read_ds1307:
  5085  00A2                     	signat	_read_ds1307,4218
  5086                           	global	_I2C_Master_Write
  5087                           
  5088 ;; *************** function _I2C_Master_Write *****************
  5089 ;; Defined at:
  5090 ;;		line 70 in file "I2C.c"
  5091 ;; Parameters:    Size  Location     Type
  5092 ;;  d               2    0[COMMON] unsigned int 
  5093 ;; Auto vars:     Size  Location     Type
  5094 ;;		None
  5095 ;; Return value:  Size  Location     Type
  5096 ;;                  1    wreg      void 
  5097 ;; Registers used:
  5098 ;;		wreg, status,2, status,0, pclath, cstack
  5099 ;; Tracked objects:
  5100 ;;		On entry : 0/0
  5101 ;;		On exit  : 0/0
  5102 ;;		Unchanged: 0/0
  5103 ;; Data sizes:     COMMON   BANK0   BANK1   BANK3   BANK2
  5104 ;;      Params:         2       0       0       0       0
  5105 ;;      Locals:         0       0       0       0       0
  5106 ;;      Temps:          0       0       0       0       0
  5107 ;;      Totals:         2       0       0       0       0
  5108 ;;Total ram usage:        2 bytes
  5109 ;; Hardware stack levels used:    1
  5110 ;; Hardware stack levels required when called:    1
  5111 ;; This function calls:
  5112 ;;		_I2C_Master_Wait
  5113 ;; This function is called by:
  5114 ;;		_read_ds1307
  5115 ;;		_main
  5116 ;;		_I2C_Start
  5117 ;;		_MPU6050_Init
  5118 ;; This function uses a non-reentrant model
  5119 ;;
  5120                           psect	text8,local,class=CODE,delta=2,merge=1,group=0
  5121                           	file	"I2C.c"
  5122                           	line	70
  5123                           global __ptext8
  5124                           __ptext8:	;psect for function _I2C_Master_Write
  5125  0D59                     psect	text8
  5126                           	file	"I2C.c"
  5127                           	line	70
  5128                           	global	__size_of_I2C_Master_Write
  5129                           	__size_of_I2C_Master_Write	equ	__end_of_I2C_Master_Write-_I2C_Master_Write
  5130  000A                     	
  5131                           _I2C_Master_Write:	
  5132  0D59                     ;incstack = 0
  5133                           	opt	stack 5
  5134                           ; Regs used in _I2C_Master_Write: [wreg+status,2+status,0+pclath+cstack]
  5135                           	line	72
  5136                           	
  5137                           l2043:	
  5138  0D59                     ;I2C.c: 70: void I2C_Master_Write(unsigned d);I2C.c: 71: {;I2C.c: 72:     I2C_Master_Wai
                                 t();
  5139                           	fcall	_I2C_Master_Wait
  5140  0D59  120A  158A  2598  120A  158A  	line	73
  5141                           	
  5142                           l2045:	
  5143  0D5E                     ;I2C.c: 73:     SSPBUF = d;
  5144                           	movf	(I2C_Master_Write@d),w
  5145  0D5E  0870               	bcf	status, 5	;RP0=0, select bank0
  5146  0D5F  1283               	bcf	status, 6	;RP1=0, select bank0
  5147  0D60  1303               	movwf	(19)	;volatile
  5148  0D61  0093               	line	74
  5149                           	
  5150                           l67:	
  5151  0D62                     	return
  5152  0D62  0008               	opt stack 0
  5153                           GLOBAL	__end_of_I2C_Master_Write
  5154                           	__end_of_I2C_Master_Write:
  5155  0D63                     	signat	_I2C_Master_Write,4217
  5156                           	global	_I2C_Master_Stop
  5157                           
  5158 ;; *************** function _I2C_Master_Stop *****************
  5159 ;; Defined at:
  5160 ;;		line 60 in file "I2C.c"
  5161 ;; Parameters:    Size  Location     Type
  5162 ;;		None
  5163 ;; Auto vars:     Size  Location     Type
  5164 ;;		None
  5165 ;; Return value:  Size  Location     Type
  5166 ;;                  1    wreg      void 
  5167 ;; Registers used:
  5168 ;;		wreg, status,2, status,0, pclath, cstack
  5169 ;; Tracked objects:
  5170 ;;		On entry : 0/0
  5171 ;;		On exit  : 0/0
  5172 ;;		Unchanged: 0/0
  5173 ;; Data sizes:     COMMON   BANK0   BANK1   BANK3   BANK2
  5174 ;;      Params:         0       0       0       0       0
  5175 ;;      Locals:         0       0       0       0       0
  5176 ;;      Temps:          0       0       0       0       0
  5177 ;;      Totals:         0       0       0       0       0
  5178 ;;Total ram usage:        0 bytes
  5179 ;; Hardware stack levels used:    1
  5180 ;; Hardware stack levels required when called:    1
  5181 ;; This function calls:
  5182 ;;		_I2C_Master_Wait
  5183 ;; This function is called by:
  5184 ;;		_read_ds1307
  5185 ;;		_main
  5186 ;;		_MPU6050_Init
  5187 ;;		_MPU6050_Read
  5188 ;; This function uses a non-reentrant model
  5189 ;;
  5190                           psect	text9,local,class=CODE,delta=2,merge=1,group=0
  5191                           	line	60
  5192                           global __ptext9
  5193                           __ptext9:	;psect for function _I2C_Master_Stop
  5194  0D50                     psect	text9
  5195                           	file	"I2C.c"
  5196                           	line	60
  5197                           	global	__size_of_I2C_Master_Stop
  5198                           	__size_of_I2C_Master_Stop	equ	__end_of_I2C_Master_Stop-_I2C_Master_Stop
  5199  0009                     	
  5200                           _I2C_Master_Stop:	
  5201  0D50                     ;incstack = 0
  5202                           	opt	stack 5
  5203                           ; Regs used in _I2C_Master_Stop: [wreg+status,2+status,0+pclath+cstack]
  5204                           	line	62
  5205                           	
  5206                           l2039:	
  5207  0D50                     ;I2C.c: 62:     I2C_Master_Wait();
  5208                           	fcall	_I2C_Master_Wait
  5209  0D50  120A  158A  2598  120A  158A  	line	63
  5210                           	
  5211                           l2041:	
  5212  0D55                     ;I2C.c: 63:     SSPCON2bits.PEN = 1;
  5213                           	bsf	status, 5	;RP0=1, select bank1
  5214  0D55  1683               	bcf	status, 6	;RP1=0, select bank1
  5215  0D56  1303               	bsf	(145)^080h,2	;volatile
  5216  0D57  1511               	line	64
  5217                           	
  5218                           l64:	
  5219  0D58                     	return
  5220  0D58  0008               	opt stack 0
  5221                           GLOBAL	__end_of_I2C_Master_Stop
  5222                           	__end_of_I2C_Master_Stop:
  5223  0D59                     	signat	_I2C_Master_Stop,89
  5224                           	global	_I2C_Master_Start
  5225                           
  5226 ;; *************** function _I2C_Master_Start *****************
  5227 ;; Defined at:
  5228 ;;		line 44 in file "I2C.c"
  5229 ;; Parameters:    Size  Location     Type
  5230 ;;		None
  5231 ;; Auto vars:     Size  Location     Type
  5232 ;;		None
  5233 ;; Return value:  Size  Location     Type
  5234 ;;                  1    wreg      void 
  5235 ;; Registers used:
  5236 ;;		wreg, status,2, status,0, pclath, cstack
  5237 ;; Tracked objects:
  5238 ;;		On entry : 0/0
  5239 ;;		On exit  : 0/0
  5240 ;;		Unchanged: 0/0
  5241 ;; Data sizes:     COMMON   BANK0   BANK1   BANK3   BANK2
  5242 ;;      Params:         0       0       0       0       0
  5243 ;;      Locals:         0       0       0       0       0
  5244 ;;      Temps:          0       0       0       0       0
  5245 ;;      Totals:         0       0       0       0       0
  5246 ;;Total ram usage:        0 bytes
  5247 ;; Hardware stack levels used:    1
  5248 ;; Hardware stack levels required when called:    1
  5249 ;; This function calls:
  5250 ;;		_I2C_Master_Wait
  5251 ;; This function is called by:
  5252 ;;		_read_ds1307
  5253 ;;		_main
  5254 ;; This function uses a non-reentrant model
  5255 ;;
  5256                           psect	text10,local,class=CODE,delta=2,merge=1,group=0
  5257                           	line	44
  5258                           global __ptext10
  5259                           __ptext10:	;psect for function _I2C_Master_Start
  5260  0D47                     psect	text10
  5261                           	file	"I2C.c"
  5262                           	line	44
  5263                           	global	__size_of_I2C_Master_Start
  5264                           	__size_of_I2C_Master_Start	equ	__end_of_I2C_Master_Start-_I2C_Master_Start
  5265  0009                     	
  5266                           _I2C_Master_Start:	
  5267  0D47                     ;incstack = 0
  5268                           	opt	stack 5
  5269                           ; Regs used in _I2C_Master_Start: [wreg+status,2+status,0+pclath+cstack]
  5270                           	line	46
  5271                           	
  5272                           l2031:	
  5273  0D47                     ;I2C.c: 46:     I2C_Master_Wait();
  5274                           	fcall	_I2C_Master_Wait
  5275  0D47  120A  158A  2598  120A  158A  	line	47
  5276                           	
  5277                           l2033:	
  5278  0D4C                     ;I2C.c: 47:     SSPCON2bits.SEN = 1;
  5279                           	bsf	status, 5	;RP0=1, select bank1
  5280  0D4C  1683               	bcf	status, 6	;RP1=0, select bank1
  5281  0D4D  1303               	bsf	(145)^080h,0	;volatile
  5282  0D4E  1411               	line	48
  5283                           	
  5284                           l58:	
  5285  0D4F                     	return
  5286  0D4F  0008               	opt stack 0
  5287                           GLOBAL	__end_of_I2C_Master_Start
  5288                           	__end_of_I2C_Master_Start:
  5289  0D50                     	signat	_I2C_Master_Start,89
  5290                           	global	_I2C_Master_RepeatedStart
  5291                           
  5292 ;; *************** function _I2C_Master_RepeatedStart *****************
  5293 ;; Defined at:
  5294 ;;		line 52 in file "I2C.c"
  5295 ;; Parameters:    Size  Location     Type
  5296 ;;		None
  5297 ;; Auto vars:     Size  Location     Type
  5298 ;;		None
  5299 ;; Return value:  Size  Location     Type
  5300 ;;                  1    wreg      void 
  5301 ;; Registers used:
  5302 ;;		wreg, status,2, status,0, pclath, cstack
  5303 ;; Tracked objects:
  5304 ;;		On entry : 0/0
  5305 ;;		On exit  : 0/0
  5306 ;;		Unchanged: 0/0
  5307 ;; Data sizes:     COMMON   BANK0   BANK1   BANK3   BANK2
  5308 ;;      Params:         0       0       0       0       0
  5309 ;;      Locals:         0       0       0       0       0
  5310 ;;      Temps:          0       0       0       0       0
  5311 ;;      Totals:         0       0       0       0       0
  5312 ;;Total ram usage:        0 bytes
  5313 ;; Hardware stack levels used:    1
  5314 ;; Hardware stack levels required when called:    1
  5315 ;; This function calls:
  5316 ;;		_I2C_Master_Wait
  5317 ;; This function is called by:
  5318 ;;		_read_ds1307
  5319 ;; This function uses a non-reentrant model
  5320 ;;
  5321                           psect	text11,local,class=CODE,delta=2,merge=1,group=0
  5322                           	line	52
  5323                           global __ptext11
  5324                           __ptext11:	;psect for function _I2C_Master_RepeatedStart
  5325  0D3E                     psect	text11
  5326                           	file	"I2C.c"
  5327                           	line	52
  5328                           	global	__size_of_I2C_Master_RepeatedStart
  5329                           	__size_of_I2C_Master_RepeatedStart	equ	__end_of_I2C_Master_RepeatedStart-_I2C_Master_Re
                                 peatedStart
  5330  0009                     	
  5331                           _I2C_Master_RepeatedStart:	
  5332  0D3E                     ;incstack = 0
  5333                           	opt	stack 5
  5334                           ; Regs used in _I2C_Master_RepeatedStart: [wreg+status,2+status,0+pclath+cstack]
  5335                           	line	54
  5336                           	
  5337                           l2035:	
  5338  0D3E                     ;I2C.c: 54:     I2C_Master_Wait();
  5339                           	fcall	_I2C_Master_Wait
  5340  0D3E  120A  158A  2598  120A  158A  	line	55
  5341                           	
  5342                           l2037:	
  5343  0D43                     ;I2C.c: 55:     SSPCON2bits.RSEN = 1;
  5344                           	bsf	status, 5	;RP0=1, select bank1
  5345  0D43  1683               	bcf	status, 6	;RP1=0, select bank1
  5346  0D44  1303               	bsf	(145)^080h,1	;volatile
  5347  0D45  1491               	line	56
  5348                           	
  5349                           l61:	
  5350  0D46                     	return
  5351  0D46  0008               	opt stack 0
  5352                           GLOBAL	__end_of_I2C_Master_RepeatedStart
  5353                           	__end_of_I2C_Master_RepeatedStart:
  5354  0D47                     	signat	_I2C_Master_RepeatedStart,89
  5355                           	global	_I2C_Master_Read
  5356                           
  5357 ;; *************** function _I2C_Master_Read *****************
  5358 ;; Defined at:
  5359 ;;		line 79 in file "I2C.c"
  5360 ;; Parameters:    Size  Location     Type
  5361 ;;  a               2    0[COMMON] unsigned short 
  5362 ;; Auto vars:     Size  Location     Type
  5363 ;;  temp            2    4[COMMON] unsigned short 
  5364 ;; Return value:  Size  Location     Type
  5365 ;;                  2    0[COMMON] unsigned short 
  5366 ;; Registers used:
  5367 ;;		wreg, status,2, status,0, pclath, cstack
  5368 ;; Tracked objects:
  5369 ;;		On entry : 0/0
  5370 ;;		On exit  : 0/0
  5371 ;;		Unchanged: 0/0
  5372 ;; Data sizes:     COMMON   BANK0   BANK1   BANK3   BANK2
  5373 ;;      Params:         2       0       0       0       0
  5374 ;;      Locals:         2       0       0       0       0
  5375 ;;      Temps:          2       0       0       0       0
  5376 ;;      Totals:         6       0       0       0       0
  5377 ;;Total ram usage:        6 bytes
  5378 ;; Hardware stack levels used:    1
  5379 ;; Hardware stack levels required when called:    1
  5380 ;; This function calls:
  5381 ;;		_I2C_Master_Wait
  5382 ;; This function is called by:
  5383 ;;		_read_ds1307
  5384 ;;		_main
  5385 ;; This function uses a non-reentrant model
  5386 ;;
  5387                           psect	text12,local,class=CODE,delta=2,merge=1,group=0
  5388                           	line	79
  5389                           global __ptext12
  5390                           __ptext12:	;psect for function _I2C_Master_Read
  5391  0ECB                     psect	text12
  5392                           	file	"I2C.c"
  5393                           	line	79
  5394                           	global	__size_of_I2C_Master_Read
  5395                           	__size_of_I2C_Master_Read	equ	__end_of_I2C_Master_Read-_I2C_Master_Read
  5396  002F                     	
  5397                           _I2C_Master_Read:	
  5398  0ECB                     ;incstack = 0
  5399                           	opt	stack 5
  5400                           ; Regs used in _I2C_Master_Read: [wreg+status,2+status,0+pclath+cstack]
  5401                           	line	82
  5402                           	
  5403                           l2047:	
  5404  0ECB                     ;I2C.c: 79: unsigned short I2C_Master_Read(unsigned short a);I2C.c: 80: {;I2C.c: 81:    
                                  unsigned short temp;;I2C.c: 82:     I2C_Master_Wait();
  5405                           	fcall	_I2C_Master_Wait
  5406  0ECB  120A  158A  2598  120A  158A  	line	83
  5407                           	
  5408                           l2049:	
  5409  0ED0                     ;I2C.c: 83:     SSPCON2bits.RCEN = 1;
  5410                           	bsf	status, 5	;RP0=1, select bank1
  5411  0ED0  1683               	bcf	status, 6	;RP1=0, select bank1
  5412  0ED1  1303               	bsf	(145)^080h,3	;volatile
  5413  0ED2  1591               	line	84
  5414                           ;I2C.c: 84:     I2C_Master_Wait();
  5415                           	fcall	_I2C_Master_Wait
  5416  0ED3  120A  158A  2598  120A  158A  	line	85
  5417                           	
  5418                           l2051:	
  5419  0ED8                     ;I2C.c: 85:     temp = SSPBUF;
  5420                           	bcf	status, 5	;RP0=0, select bank0
  5421  0ED8  1283               	bcf	status, 6	;RP1=0, select bank0
  5422  0ED9  1303               	movf	(19),w	;volatile
  5423  0EDA  0813               	movwf	(??_I2C_Master_Read+0)+0
  5424  0EDB  00F2               	clrf	(??_I2C_Master_Read+0)+0+1
  5425  0EDC  01F3               	movf	0+(??_I2C_Master_Read+0)+0,w
  5426  0EDD  0872               	movwf	(I2C_Master_Read@temp)
  5427  0EDE  00F4               	movf	1+(??_I2C_Master_Read+0)+0,w
  5428  0EDF  0873               	movwf	(I2C_Master_Read@temp+1)
  5429  0EE0  00F5               	line	86
  5430                           	
  5431                           l2053:	
  5432  0EE1                     ;I2C.c: 86:     I2C_Master_Wait();
  5433                           	fcall	_I2C_Master_Wait
  5434  0EE1  120A  158A  2598  120A  158A  	line	87
  5435                           	
  5436                           l2055:	
  5437  0EE6                     ;I2C.c: 87:     if(a == 1){
  5438                           		decf	((I2C_Master_Read@a)),w
  5439  0EE6  0370               iorwf	((I2C_Master_Read@a+1)),w
  5440  0EE7  0471               	btfss	status,2
  5441  0EE8  1D03               	goto	u1111
  5442  0EE9  2EEB               	goto	u1110
  5443  0EEA  2EEC               u1111:
  5444  0EEB                     	goto	l70
  5445  0EEB  2EF0               u1110:
  5446  0EEC                     	line	88
  5447                           	
  5448                           l2057:	
  5449  0EEC                     ;I2C.c: 88:         SSPCON2bits.ACKDT = 0;
  5450                           	bsf	status, 5	;RP0=1, select bank1
  5451  0EEC  1683               	bcf	status, 6	;RP1=0, select bank1
  5452  0EED  1303               	bcf	(145)^080h,5	;volatile
  5453  0EEE  1291               	line	89
  5454                           ;I2C.c: 89:     }else{
  5455                           	goto	l71
  5456  0EEF  2EF3               	
  5457                           l70:	
  5458  0EF0                     	line	90
  5459                           ;I2C.c: 90:         SSPCON2bits.ACKDT = 1;
  5460                           	bsf	status, 5	;RP0=1, select bank1
  5461  0EF0  1683               	bcf	status, 6	;RP1=0, select bank1
  5462  0EF1  1303               	bsf	(145)^080h,5	;volatile
  5463  0EF2  1691               	line	91
  5464                           ;I2C.c: 91:     }
  5465                           	
  5466                           l71:	
  5467  0EF3                     	line	92
  5468                           ;I2C.c: 92:     SSPCON2bits.ACKEN = 1;
  5469                           	bsf	(145)^080h,4	;volatile
  5470  0EF3  1611               	line	93
  5471                           	
  5472                           l2059:	
  5473  0EF4                     ;I2C.c: 93:     return temp;
  5474                           	movf	(I2C_Master_Read@temp+1),w
  5475  0EF4  0875               	movwf	(?_I2C_Master_Read+1)
  5476  0EF5  00F1               	movf	(I2C_Master_Read@temp),w
  5477  0EF6  0874               	movwf	(?_I2C_Master_Read)
  5478  0EF7  00F0               	goto	l72
  5479  0EF8  2EF9               	
  5480                           l2061:	
  5481  0EF9                     	line	94
  5482                           	
  5483                           l72:	
  5484  0EF9                     	return
  5485  0EF9  0008               	opt stack 0
  5486                           GLOBAL	__end_of_I2C_Master_Read
  5487                           	__end_of_I2C_Master_Read:
  5488  0EFA                     	signat	_I2C_Master_Read,4218
  5489                           	global	_I2C_Master_Wait
  5490                           
  5491 ;; *************** function _I2C_Master_Wait *****************
  5492 ;; Defined at:
  5493 ;;		line 37 in file "I2C.c"
  5494 ;; Parameters:    Size  Location     Type
  5495 ;;		None
  5496 ;; Auto vars:     Size  Location     Type
  5497 ;;		None
  5498 ;; Return value:  Size  Location     Type
  5499 ;;                  1    wreg      void 
  5500 ;; Registers used:
  5501 ;;		wreg, status,2
  5502 ;; Tracked objects:
  5503 ;;		On entry : 0/0
  5504 ;;		On exit  : 0/0
  5505 ;;		Unchanged: 0/0
  5506 ;; Data sizes:     COMMON   BANK0   BANK1   BANK3   BANK2
  5507 ;;      Params:         0       0       0       0       0
  5508 ;;      Locals:         0       0       0       0       0
  5509 ;;      Temps:          0       0       0       0       0
  5510 ;;      Totals:         0       0       0       0       0
  5511 ;;Total ram usage:        0 bytes
  5512 ;; Hardware stack levels used:    1
  5513 ;; This function calls:
  5514 ;;		Nothing
  5515 ;; This function is called by:
  5516 ;;		_I2C_Master_Start
  5517 ;;		_I2C_Master_RepeatedStart
  5518 ;;		_I2C_Master_Stop
  5519 ;;		_I2C_Master_Write
  5520 ;;		_I2C_Master_Read
  5521 ;;		_I2C_Start
  5522 ;;		_I2C_Master_Write1
  5523 ;; This function uses a non-reentrant model
  5524 ;;
  5525                           psect	text13,local,class=CODE,delta=2,merge=1,group=0
  5526                           	line	37
  5527                           global __ptext13
  5528                           __ptext13:	;psect for function _I2C_Master_Wait
  5529  0D98                     psect	text13
  5530                           	file	"I2C.c"
  5531                           	line	37
  5532                           	global	__size_of_I2C_Master_Wait
  5533                           	__size_of_I2C_Master_Wait	equ	__end_of_I2C_Master_Wait-_I2C_Master_Wait
  5534  000F                     	
  5535                           _I2C_Master_Wait:	
  5536  0D98                     ;incstack = 0
  5537                           	opt	stack 5
  5538                           ; Regs used in _I2C_Master_Wait: [wreg+status,2]
  5539                           	line	39
  5540                           	
  5541                           l1999:	
  5542  0D98                     ;I2C.c: 39:     while ((SSPSTAT & 0x04) || (SSPCON2 & 0x1F));
  5543                           	goto	l52
  5544  0D98  2D99               	
  5545                           l53:	
  5546  0D99                     	
  5547                           l52:	
  5548  0D99                     	bsf	status, 5	;RP0=1, select bank1
  5549  0D99  1683               	bcf	status, 6	;RP1=0, select bank1
  5550  0D9A  1303               	btfsc	(148)^080h,(2)&7	;volatile
  5551  0D9B  1914               	goto	u1081
  5552  0D9C  2D9E               	goto	u1080
  5553  0D9D  2D9F               u1081:
  5554  0D9E                     	goto	l52
  5555  0D9E  2D99               u1080:
  5556  0D9F                     	
  5557                           l2001:	
  5558  0D9F                     	movf	(145)^080h,w	;volatile
  5559  0D9F  0811               	andlw	01Fh
  5560  0DA0  391F               	btfss	status,2
  5561  0DA1  1D03               	goto	u1091
  5562  0DA2  2DA4               	goto	u1090
  5563  0DA3  2DA5               u1091:
  5564  0DA4                     	goto	l52
  5565  0DA4  2D99               u1090:
  5566  0DA5                     	goto	l55
  5567  0DA5  2DA6               	
  5568                           l54:	
  5569  0DA6                     	line	40
  5570                           	
  5571                           l55:	
  5572  0DA6                     	return
  5573  0DA6  0008               	opt stack 0
  5574                           GLOBAL	__end_of_I2C_Master_Wait
  5575                           	__end_of_I2C_Master_Wait:
  5576  0DA7                     	signat	_I2C_Master_Wait,89
  5577                           	global	_mandar
  5578                           
  5579 ;; *************** function _mandar *****************
  5580 ;; Defined at:
  5581 ;;		line 24 in file "USART1.c"
  5582 ;; Parameters:    Size  Location     Type
  5583 ;;  dato            2    0[COMMON] int 
  5584 ;; Auto vars:     Size  Location     Type
  5585 ;;		None
  5586 ;; Return value:  Size  Location     Type
  5587 ;;                  1    wreg      void 
  5588 ;; Registers used:
  5589 ;;		wreg
  5590 ;; Tracked objects:
  5591 ;;		On entry : 0/0
  5592 ;;		On exit  : 0/0
  5593 ;;		Unchanged: 0/0
  5594 ;; Data sizes:     COMMON   BANK0   BANK1   BANK3   BANK2
  5595 ;;      Params:         2       0       0       0       0
  5596 ;;      Locals:         0       0       0       0       0
  5597 ;;      Temps:          0       0       0       0       0
  5598 ;;      Totals:         2       0       0       0       0
  5599 ;;Total ram usage:        2 bytes
  5600 ;; Hardware stack levels used:    1
  5601 ;; This function calls:
  5602 ;;		Nothing
  5603 ;; This function is called by:
  5604 ;;		_main
  5605 ;; This function uses a non-reentrant model
  5606 ;;
  5607                           psect	text14,local,class=CODE,delta=2,merge=1,group=0
  5608                           	file	"USART1.c"
  5609                           	line	24
  5610                           global __ptext14
  5611                           __ptext14:	;psect for function _mandar
  5612  0D7C                     psect	text14
  5613                           	file	"USART1.c"
  5614                           	line	24
  5615                           	global	__size_of_mandar
  5616                           	__size_of_mandar	equ	__end_of_mandar-_mandar
  5617  000D                     	
  5618                           _mandar:	
  5619  0D7C                     ;incstack = 0
  5620                           	opt	stack 7
  5621                           ; Regs used in _mandar: [wreg]
  5622                           	line	25
  5623                           	
  5624                           l2389:	
  5625  0D7C                     ;USART1.c: 25:     while (TXSTAbits.TRMT == 0){}
  5626                           	goto	l434
  5627  0D7C  2D7D               	
  5628                           l435:	
  5629  0D7D                     	
  5630                           l434:	
  5631  0D7D                     	bsf	status, 5	;RP0=1, select bank1
  5632  0D7D  1683               	bcf	status, 6	;RP1=0, select bank1
  5633  0D7E  1303               	btfss	(152)^080h,1	;volatile
  5634  0D7F  1C98               	goto	u1681
  5635  0D80  2D82               	goto	u1680
  5636  0D81  2D83               u1681:
  5637  0D82                     	goto	l434
  5638  0D82  2D7D               u1680:
  5639  0D83                     	goto	l2391
  5640  0D83  2D84               	
  5641                           l436:	
  5642  0D84                     	line	26
  5643                           	
  5644                           l2391:	
  5645  0D84                     ;USART1.c: 26:     TXREG = dato;
  5646                           	movf	(mandar@dato),w
  5647  0D84  0870               	bcf	status, 5	;RP0=0, select bank0
  5648  0D85  1283               	bcf	status, 6	;RP1=0, select bank0
  5649  0D86  1303               	movwf	(25)	;volatile
  5650  0D87  0099               	line	27
  5651                           	
  5652                           l437:	
  5653  0D88                     	return
  5654  0D88  0008               	opt stack 0
  5655                           GLOBAL	__end_of_mandar
  5656                           	__end_of_mandar:
  5657  0D89                     	signat	_mandar,4217
  5658                           	global	_lcd_init
  5659                           
  5660 ;; *************** function _lcd_init *****************
  5661 ;; Defined at:
  5662 ;;		line 45 in file "LCD.c"
  5663 ;; Parameters:    Size  Location     Type
  5664 ;;		None
  5665 ;; Auto vars:     Size  Location     Type
  5666 ;;		None
  5667 ;; Return value:  Size  Location     Type
  5668 ;;                  1    wreg      void 
  5669 ;; Registers used:
  5670 ;;		wreg, status,2, status,0, pclath, cstack
  5671 ;; Tracked objects:
  5672 ;;		On entry : 0/0
  5673 ;;		On exit  : 0/0
  5674 ;;		Unchanged: 0/0
  5675 ;; Data sizes:     COMMON   BANK0   BANK1   BANK3   BANK2
  5676 ;;      Params:         0       0       0       0       0
  5677 ;;      Locals:         0       0       0       0       0
  5678 ;;      Temps:          0       0       0       0       0
  5679 ;;      Totals:         0       0       0       0       0
  5680 ;;Total ram usage:        0 bytes
  5681 ;; Hardware stack levels used:    1
  5682 ;; Hardware stack levels required when called:    3
  5683 ;; This function calls:
  5684 ;;		_lcd_cmd
  5685 ;; This function is called by:
  5686 ;;		_main
  5687 ;; This function uses a non-reentrant model
  5688 ;;
  5689                           psect	text15,local,class=CODE,delta=2,merge=1,group=0
  5690                           	file	"LCD.c"
  5691                           	line	45
  5692                           global __ptext15
  5693                           __ptext15:	;psect for function _lcd_init
  5694  0E09                     psect	text15
  5695                           	file	"LCD.c"
  5696                           	line	45
  5697                           	global	__size_of_lcd_init
  5698                           	__size_of_lcd_init	equ	__end_of_lcd_init-_lcd_init
  5699  001F                     	
  5700                           _lcd_init:	
  5701  0E09                     ;incstack = 0
  5702                           	opt	stack 4
  5703                           ; Regs used in _lcd_init: [wreg+status,2+status,0+pclath+cstack]
  5704                           	line	47
  5705                           	
  5706                           l2221:	
  5707  0E09                     ;LCD.c: 47:     lcd_cmd(0x38);
  5708                           	movlw	low(038h)
  5709  0E09  3038               	fcall	_lcd_cmd
  5710  0E0A  120A  158A  25B7  120A  158A  	line	48
  5711                           ;LCD.c: 48:     lcd_cmd(0x0E);
  5712                           	movlw	low(0Eh)
  5713  0E0F  300E               	fcall	_lcd_cmd
  5714  0E10  120A  158A  25B7  120A  158A  	line	49
  5715                           ;LCD.c: 49:     lcd_cmd(0x01);
  5716                           	movlw	low(01h)
  5717  0E15  3001               	fcall	_lcd_cmd
  5718  0E16  120A  158A  25B7  120A  158A  	line	50
  5719                           ;LCD.c: 50:     lcd_cmd(0x06);
  5720                           	movlw	low(06h)
  5721  0E1B  3006               	fcall	_lcd_cmd
  5722  0E1C  120A  158A  25B7  120A  158A  	line	51
  5723                           ;LCD.c: 51:     lcd_cmd(0x80);
  5724                           	movlw	low(080h)
  5725  0E21  3080               	fcall	_lcd_cmd
  5726  0E22  120A  158A  25B7  120A  158A  	line	52
  5727                           	
  5728                           l218:	
  5729  0E27                     	return
  5730  0E27  0008               	opt stack 0
  5731                           GLOBAL	__end_of_lcd_init
  5732                           	__end_of_lcd_init:
  5733  0E28                     	signat	_lcd_init,89
  5734                           	global	_lcd_cmd
  5735                           
  5736 ;; *************** function _lcd_cmd *****************
  5737 ;; Defined at:
  5738 ;;		line 36 in file "LCD.c"
  5739 ;; Parameters:    Size  Location     Type
  5740 ;;  x               1    wreg     unsigned char 
  5741 ;; Auto vars:     Size  Location     Type
  5742 ;;  x               1    7[COMMON] unsigned char 
  5743 ;; Return value:  Size  Location     Type
  5744 ;;                  1    wreg      void 
  5745 ;; Registers used:
  5746 ;;		wreg, status,2, status,0, pclath, cstack
  5747 ;; Tracked objects:
  5748 ;;		On entry : 0/0
  5749 ;;		On exit  : 0/0
  5750 ;;		Unchanged: 0/0
  5751 ;; Data sizes:     COMMON   BANK0   BANK1   BANK3   BANK2
  5752 ;;      Params:         0       0       0       0       0
  5753 ;;      Locals:         1       0       0       0       0
  5754 ;;      Temps:          0       0       0       0       0
  5755 ;;      Totals:         1       0       0       0       0
  5756 ;;Total ram usage:        1 bytes
  5757 ;; Hardware stack levels used:    1
  5758 ;; Hardware stack levels required when called:    2
  5759 ;; This function calls:
  5760 ;;		_lcd_lat
  5761 ;;		_lcd_ready
  5762 ;; This function is called by:
  5763 ;;		_lcd_init
  5764 ;; This function uses a non-reentrant model
  5765 ;;
  5766                           psect	text16,local,class=CODE,delta=2,merge=1,group=0
  5767                           	line	36
  5768                           global __ptext16
  5769                           __ptext16:	;psect for function _lcd_cmd
  5770  0DB7                     psect	text16
  5771                           	file	"LCD.c"
  5772                           	line	36
  5773                           	global	__size_of_lcd_cmd
  5774                           	__size_of_lcd_cmd	equ	__end_of_lcd_cmd-_lcd_cmd
  5775  0012                     	
  5776                           _lcd_cmd:	
  5777  0DB7                     ;incstack = 0
  5778                           	opt	stack 4
  5779                           ; Regs used in _lcd_cmd: [wreg+status,2+status,0+pclath+cstack]
  5780                           ;lcd_cmd@x stored from wreg
  5781                           	movwf	(lcd_cmd@x)
  5782  0DB7  00F7               	line	38
  5783                           	
  5784                           l2063:	
  5785  0DB8                     ;LCD.c: 36: void lcd_cmd(unsigned char x);LCD.c: 37: {;LCD.c: 38:     lcd_ready();
  5786                           	fcall	_lcd_ready
  5787  0DB8  120A  158A  269E  120A  158A  	line	39
  5788                           	
  5789                           l2065:	
  5790  0DBD                     ;LCD.c: 39:     PORTB = x;
  5791                           	movf	(lcd_cmd@x),w
  5792  0DBD  0877               	bcf	status, 5	;RP0=0, select bank0
  5793  0DBE  1283               	bcf	status, 6	;RP1=0, select bank0
  5794  0DBF  1303               	movwf	(6)	;volatile
  5795  0DC0  0086               	line	40
  5796                           	
  5797                           l2067:	
  5798  0DC1                     ;LCD.c: 40:     PORTDbits.RD5 = 0;
  5799                           	bcf	(8),5	;volatile
  5800  0DC1  1288               	line	41
  5801                           	
  5802                           l2069:	
  5803  0DC2                     ;LCD.c: 41:     PORTDbits.RD6 = 0;
  5804                           	bcf	(8),6	;volatile
  5805  0DC2  1308               	line	42
  5806                           	
  5807                           l2071:	
  5808  0DC3                     ;LCD.c: 42:     lcd_lat();
  5809                           	fcall	_lcd_lat
  5810  0DC3  120A  158A  25A7  120A  158A  	line	43
  5811                           	
  5812                           l215:	
  5813  0DC8                     	return
  5814  0DC8  0008               	opt stack 0
  5815                           GLOBAL	__end_of_lcd_cmd
  5816                           	__end_of_lcd_cmd:
  5817  0DC9                     	signat	_lcd_cmd,4217
  5818                           	global	_lcd_ready
  5819                           
  5820 ;; *************** function _lcd_ready *****************
  5821 ;; Defined at:
  5822 ;;		line 19 in file "LCD.c"
  5823 ;; Parameters:    Size  Location     Type
  5824 ;;		None
  5825 ;; Auto vars:     Size  Location     Type
  5826 ;;		None
  5827 ;; Return value:  Size  Location     Type
  5828 ;;                  1    wreg      void 
  5829 ;; Registers used:
  5830 ;;		wreg, status,2, status,0, pclath, cstack
  5831 ;; Tracked objects:
  5832 ;;		On entry : 0/0
  5833 ;;		On exit  : 0/0
  5834 ;;		Unchanged: 0/0
  5835 ;; Data sizes:     COMMON   BANK0   BANK1   BANK3   BANK2
  5836 ;;      Params:         0       0       0       0       0
  5837 ;;      Locals:         0       0       0       0       0
  5838 ;;      Temps:          1       0       0       0       0
  5839 ;;      Totals:         1       0       0       0       0
  5840 ;;Total ram usage:        1 bytes
  5841 ;; Hardware stack levels used:    1
  5842 ;; Hardware stack levels required when called:    1
  5843 ;; This function calls:
  5844 ;;		_delay
  5845 ;; This function is called by:
  5846 ;;		_lcd_cmd
  5847 ;; This function uses a non-reentrant model
  5848 ;;
  5849                           psect	text17,local,class=CODE,delta=2,merge=1,group=0
  5850                           	line	19
  5851                           global __ptext17
  5852                           __ptext17:	;psect for function _lcd_ready
  5853  0E9E                     psect	text17
  5854                           	file	"LCD.c"
  5855                           	line	19
  5856                           	global	__size_of_lcd_ready
  5857                           	__size_of_lcd_ready	equ	__end_of_lcd_ready-_lcd_ready
  5858  002D                     	
  5859                           _lcd_ready:	
  5860  0E9E                     ;incstack = 0
  5861                           	opt	stack 4
  5862                           ; Regs used in _lcd_ready: [wreg+status,2+status,0+pclath+cstack]
  5863                           	line	21
  5864                           	
  5865                           l2009:	
  5866  0E9E                     ;LCD.c: 21:     PORTB = 0xFF;
  5867                           	movlw	low(0FFh)
  5868  0E9E  30FF               	bcf	status, 5	;RP0=0, select bank0
  5869  0E9F  1283               	bcf	status, 6	;RP1=0, select bank0
  5870  0EA0  1303               	movwf	(6)	;volatile
  5871  0EA1  0086               	line	22
  5872                           	
  5873                           l2011:	
  5874  0EA2                     ;LCD.c: 22:     PORTB &= 0x80;
  5875                           	movlw	low(080h)
  5876  0EA2  3080               	movwf	(??_lcd_ready+0)+0
  5877  0EA3  00F6               	movf	(??_lcd_ready+0)+0,w
  5878  0EA4  0876               	andwf	(6),f	;volatile
  5879  0EA5  0586               	line	23
  5880                           	
  5881                           l2013:	
  5882  0EA6                     ;LCD.c: 23:     PORTDbits.RD5 = 0;
  5883                           	bcf	(8),5	;volatile
  5884  0EA6  1288               	line	24
  5885                           	
  5886                           l2015:	
  5887  0EA7                     ;LCD.c: 24:     PORTDbits.RD6 = 1;
  5888                           	bsf	(8),6	;volatile
  5889  0EA7  1708               	line	25
  5890                           	
  5891                           l2017:	
  5892  0EA8                     ;LCD.c: 25:     PORTDbits.RD7 = 0; delay(1); PORTDbits.RD7 = 1;
  5893                           	bcf	(8),7	;volatile
  5894  0EA8  1388               	
  5895                           l2019:	
  5896  0EA9                     	movlw	01h
  5897  0EA9  3001               	movwf	(delay@ms)
  5898  0EAA  00F0               	movlw	0
  5899  0EAB  3000               	movwf	((delay@ms))+1
  5900  0EAC  00F1               	fcall	_delay
  5901  0EAD  120A  158A  26FA  120A  158A  	
  5902                           l2021:	
  5903  0EB2                     	bcf	status, 5	;RP0=0, select bank0
  5904  0EB2  1283               	bcf	status, 6	;RP1=0, select bank0
  5905  0EB3  1303               	bsf	(8),7	;volatile
  5906  0EB4  1788               	line	26
  5907                           	
  5908                           l2023:	
  5909  0EB5                     ;LCD.c: 26:     if(PORTB == 0x80)
  5910                           		movlw	128
  5911  0EB5  3080               	xorwf	((6)),w	;volatile
  5912  0EB6  0606               	btfss	status,2
  5913  0EB7  1D03               	goto	u1101
  5914  0EB8  2EBA               	goto	u1100
  5915  0EB9  2EBB               u1101:
  5916  0EBA                     	goto	l212
  5917  0EBA  2ECA               u1100:
  5918  0EBB                     	line	28
  5919                           	
  5920                           l2025:	
  5921  0EBB                     ;LCD.c: 27:     {;LCD.c: 28:         PORTDbits.RD7 = 0; delay(1); PORTDbits.RD7 = 1;
  5922                           	bcf	(8),7	;volatile
  5923  0EBB  1388               	
  5924                           l2027:	
  5925  0EBC                     	movlw	01h
  5926  0EBC  3001               	movwf	(delay@ms)
  5927  0EBD  00F0               	movlw	0
  5928  0EBE  3000               	movwf	((delay@ms))+1
  5929  0EBF  00F1               	fcall	_delay
  5930  0EC0  120A  158A  26FA  120A  158A  	
  5931                           l2029:	
  5932  0EC5                     	bcf	status, 5	;RP0=0, select bank0
  5933  0EC5  1283               	bcf	status, 6	;RP1=0, select bank0
  5934  0EC6  1303               	bsf	(8),7	;volatile
  5935  0EC7  1788               	line	29
  5936                           ;LCD.c: 29:     }
  5937                           	goto	l212
  5938  0EC8  2ECA               	line	30
  5939                           ;LCD.c: 30:     else
  5940                           	
  5941                           l210:	
  5942  0EC9                     	goto	l212
  5943  0EC9  2ECA               	line	33
  5944                           ;LCD.c: 31:     {;LCD.c: 33:     }
  5945                           	
  5946                           l211:	
  5947  0ECA                     	line	34
  5948                           	
  5949                           l212:	
  5950  0ECA                     	return
  5951  0ECA  0008               	opt stack 0
  5952                           GLOBAL	__end_of_lcd_ready
  5953                           	__end_of_lcd_ready:
  5954  0ECB                     	signat	_lcd_ready,89
  5955                           	global	_lcd_lat
  5956                           
  5957 ;; *************** function _lcd_lat *****************
  5958 ;; Defined at:
  5959 ;;		line 12 in file "LCD.c"
  5960 ;; Parameters:    Size  Location     Type
  5961 ;;		None
  5962 ;; Auto vars:     Size  Location     Type
  5963 ;;		None
  5964 ;; Return value:  Size  Location     Type
  5965 ;;                  1    wreg      void 
  5966 ;; Registers used:
  5967 ;;		wreg, status,2, status,0, pclath, cstack
  5968 ;; Tracked objects:
  5969 ;;		On entry : 0/0
  5970 ;;		On exit  : 0/0
  5971 ;;		Unchanged: 0/0
  5972 ;; Data sizes:     COMMON   BANK0   BANK1   BANK3   BANK2
  5973 ;;      Params:         0       0       0       0       0
  5974 ;;      Locals:         0       0       0       0       0
  5975 ;;      Temps:          0       0       0       0       0
  5976 ;;      Totals:         0       0       0       0       0
  5977 ;;Total ram usage:        0 bytes
  5978 ;; Hardware stack levels used:    1
  5979 ;; Hardware stack levels required when called:    1
  5980 ;; This function calls:
  5981 ;;		_delay
  5982 ;; This function is called by:
  5983 ;;		_lcd_cmd
  5984 ;; This function uses a non-reentrant model
  5985 ;;
  5986                           psect	text18,local,class=CODE,delta=2,merge=1,group=0
  5987                           	line	12
  5988                           global __ptext18
  5989                           __ptext18:	;psect for function _lcd_lat
  5990  0DA7                     psect	text18
  5991                           	file	"LCD.c"
  5992                           	line	12
  5993                           	global	__size_of_lcd_lat
  5994                           	__size_of_lcd_lat	equ	__end_of_lcd_lat-_lcd_lat
  5995  0010                     	
  5996                           _lcd_lat:	
  5997  0DA7                     ;incstack = 0
  5998                           	opt	stack 4
  5999                           ; Regs used in _lcd_lat: [wreg+status,2+status,0+pclath+cstack]
  6000                           	line	14
  6001                           	
  6002                           l2003:	
  6003  0DA7                     ;LCD.c: 14:     PORTDbits.RD7 = 1;
  6004                           	bcf	status, 5	;RP0=0, select bank0
  6005  0DA7  1283               	bcf	status, 6	;RP1=0, select bank0
  6006  0DA8  1303               	bsf	(8),7	;volatile
  6007  0DA9  1788               	line	15
  6008                           	
  6009                           l2005:	
  6010  0DAA                     ;LCD.c: 15:     delay(1);
  6011                           	movlw	01h
  6012  0DAA  3001               	movwf	(delay@ms)
  6013  0DAB  00F0               	movlw	0
  6014  0DAC  3000               	movwf	((delay@ms))+1
  6015  0DAD  00F1               	fcall	_delay
  6016  0DAE  120A  158A  26FA  120A  158A  	line	16
  6017                           	
  6018                           l2007:	
  6019  0DB3                     ;LCD.c: 16:     PORTDbits.RD7 = 0;
  6020                           	bcf	status, 5	;RP0=0, select bank0
  6021  0DB3  1283               	bcf	status, 6	;RP1=0, select bank0
  6022  0DB4  1303               	bcf	(8),7	;volatile
  6023  0DB5  1388               	line	17
  6024                           	
  6025                           l207:	
  6026  0DB6                     	return
  6027  0DB6  0008               	opt stack 0
  6028                           GLOBAL	__end_of_lcd_lat
  6029                           	__end_of_lcd_lat:
  6030  0DB7                     	signat	_lcd_lat,89
  6031                           	global	_delay
  6032                           
  6033 ;; *************** function _delay *****************
  6034 ;; Defined at:
  6035 ;;		line 54 in file "LCD.c"
  6036 ;; Parameters:    Size  Location     Type
  6037 ;;  ms              2    0[COMMON] unsigned int 
  6038 ;; Auto vars:     Size  Location     Type
  6039 ;;  i               2    4[COMMON] unsigned int 
  6040 ;;  j               2    2[COMMON] unsigned int 
  6041 ;; Return value:  Size  Location     Type
  6042 ;;                  1    wreg      void 
  6043 ;; Registers used:
  6044 ;;		wreg, status,2
  6045 ;; Tracked objects:
  6046 ;;		On entry : 0/0
  6047 ;;		On exit  : 0/0
  6048 ;;		Unchanged: 0/0
  6049 ;; Data sizes:     COMMON   BANK0   BANK1   BANK3   BANK2
  6050 ;;      Params:         2       0       0       0       0
  6051 ;;      Locals:         4       0       0       0       0
  6052 ;;      Temps:          0       0       0       0       0
  6053 ;;      Totals:         6       0       0       0       0
  6054 ;;Total ram usage:        6 bytes
  6055 ;; Hardware stack levels used:    1
  6056 ;; This function calls:
  6057 ;;		Nothing
  6058 ;; This function is called by:
  6059 ;;		_lcd_lat
  6060 ;;		_lcd_ready
  6061 ;;		_main
  6062 ;; This function uses a non-reentrant model
  6063 ;;
  6064                           psect	text19,local,class=CODE,delta=2,merge=1,group=0
  6065                           	line	54
  6066                           global __ptext19
  6067                           __ptext19:	;psect for function _delay
  6068  0EFA                     psect	text19
  6069                           	file	"LCD.c"
  6070                           	line	54
  6071                           	global	__size_of_delay
  6072                           	__size_of_delay	equ	__end_of_delay-_delay
  6073  0032                     	
  6074                           _delay:	
  6075  0EFA                     ;incstack = 0
  6076                           	opt	stack 4
  6077                           ; Regs used in _delay: [wreg+status,2]
  6078                           	line	57
  6079                           	
  6080                           l1987:	
  6081  0EFA                     ;LCD.c: 54: void delay(unsigned int ms);LCD.c: 55: {;LCD.c: 56:     unsigned int i,j;;LC
                                 D.c: 57:     for(i=0;i<=120;i++)
  6082                           	clrf	(delay@i)
  6083  0EFA  01F4               	clrf	(delay@i+1)
  6084  0EFB  01F5               	
  6085                           l1989:	
  6086  0EFC                     	movlw	0
  6087  0EFC  3000               	subwf	(delay@i+1),w
  6088  0EFD  0275               	movlw	079h
  6089  0EFE  3079               	skipnz
  6090  0EFF  1903               	subwf	(delay@i),w
  6091  0F00  0274               	skipc
  6092  0F01  1C03               	goto	u1051
  6093  0F02  2F04               	goto	u1050
  6094  0F03  2F05               u1051:
  6095  0F04                     	goto	l1993
  6096  0F04  2F07               u1050:
  6097  0F05                     	goto	l226
  6098  0F05  2F2B               	
  6099                           l1991:	
  6100  0F06                     	goto	l226
  6101  0F06  2F2B               	
  6102                           l221:	
  6103  0F07                     	line	58
  6104                           	
  6105                           l1993:	
  6106  0F07                     ;LCD.c: 58:         for(j=0;j<=ms;j++);
  6107                           	clrf	(delay@j)
  6108  0F07  01F2               	clrf	(delay@j+1)
  6109  0F08  01F3               	goto	l223
  6110  0F09  2F10               	
  6111                           l224:	
  6112  0F0A                     	
  6113                           l1995:	
  6114  0F0A                     	movlw	01h
  6115  0F0A  3001               	addwf	(delay@j),f
  6116  0F0B  07F2               	skipnc
  6117  0F0C  1803               	incf	(delay@j+1),f
  6118  0F0D  0AF3               	movlw	0
  6119  0F0E  3000               	addwf	(delay@j+1),f
  6120  0F0F  07F3               	
  6121                           l223:	
  6122  0F10                     	movf	(delay@j+1),w
  6123  0F10  0873               	subwf	(delay@ms+1),w
  6124  0F11  0271               	skipz
  6125  0F12  1D03               	goto	u1065
  6126  0F13  2F16               	movf	(delay@j),w
  6127  0F14  0872               	subwf	(delay@ms),w
  6128  0F15  0270               u1065:
  6129  0F16                     	skipnc
  6130  0F16  1803               	goto	u1061
  6131  0F17  2F19               	goto	u1060
  6132  0F18  2F1A               u1061:
  6133  0F19                     	goto	l1995
  6134  0F19  2F0A               u1060:
  6135  0F1A                     	goto	l1997
  6136  0F1A  2F1B               	
  6137                           l225:	
  6138  0F1B                     	
  6139                           l1997:	
  6140  0F1B                     	movlw	01h
  6141  0F1B  3001               	addwf	(delay@i),f
  6142  0F1C  07F4               	skipnc
  6143  0F1D  1803               	incf	(delay@i+1),f
  6144  0F1E  0AF5               	movlw	0
  6145  0F1F  3000               	addwf	(delay@i+1),f
  6146  0F20  07F5               	movlw	0
  6147  0F21  3000               	subwf	(delay@i+1),w
  6148  0F22  0275               	movlw	079h
  6149  0F23  3079               	skipnz
  6150  0F24  1903               	subwf	(delay@i),w
  6151  0F25  0274               	skipc
  6152  0F26  1C03               	goto	u1071
  6153  0F27  2F29               	goto	u1070
  6154  0F28  2F2A               u1071:
  6155  0F29                     	goto	l1993
  6156  0F29  2F07               u1070:
  6157  0F2A                     	goto	l226
  6158  0F2A  2F2B               	
  6159                           l222:	
  6160  0F2B                     	line	59
  6161                           	
  6162                           l226:	
  6163  0F2B                     	return
  6164  0F2B  0008               	opt stack 0
  6165                           GLOBAL	__end_of_delay
  6166                           	__end_of_delay:
  6167  0F2C                     	signat	_delay,4217
  6168                           	global	_config
  6169                           
  6170 ;; *************** function _config *****************
  6171 ;; Defined at:
  6172 ;;		line 12 in file "USART1.c"
  6173 ;; Parameters:    Size  Location     Type
  6174 ;;		None
  6175 ;; Auto vars:     Size  Location     Type
  6176 ;;		None
  6177 ;; Return value:  Size  Location     Type
  6178 ;;                  1    wreg      void 
  6179 ;; Registers used:
  6180 ;;		wreg, status,2
  6181 ;; Tracked objects:
  6182 ;;		On entry : 0/0
  6183 ;;		On exit  : 0/0
  6184 ;;		Unchanged: 0/0
  6185 ;; Data sizes:     COMMON   BANK0   BANK1   BANK3   BANK2
  6186 ;;      Params:         0       0       0       0       0
  6187 ;;      Locals:         0       0       0       0       0
  6188 ;;      Temps:          0       0       0       0       0
  6189 ;;      Totals:         0       0       0       0       0
  6190 ;;Total ram usage:        0 bytes
  6191 ;; Hardware stack levels used:    1
  6192 ;; This function calls:
  6193 ;;		Nothing
  6194 ;; This function is called by:
  6195 ;;		_main
  6196 ;; This function uses a non-reentrant model
  6197 ;;
  6198                           psect	text20,local,class=CODE,delta=2,merge=1,group=0
  6199                           	file	"USART1.c"
  6200                           	line	12
  6201                           global __ptext20
  6202                           __ptext20:	;psect for function _config
  6203  0052                     psect	text20
  6204                           	file	"USART1.c"
  6205                           	line	12
  6206                           	global	__size_of_config
  6207                           	__size_of_config	equ	__end_of_config-_config
  6208  0014                     	
  6209                           _config:	
  6210  0052                     ;incstack = 0
  6211                           	opt	stack 7
  6212                           ; Regs used in _config: [wreg+status,2]
  6213                           	line	13
  6214                           	
  6215                           l2257:	
  6216  0052                     ;USART1.c: 13:     TXSTAbits.SYNC = 0;
  6217                           	bsf	status, 5	;RP0=1, select bank1
  6218  0052  1683               	bcf	status, 6	;RP1=0, select bank1
  6219  0053  1303               	bcf	(152)^080h,4	;volatile
  6220  0054  1218               	line	14
  6221                           ;USART1.c: 14:     TXSTAbits.BRGH = 0;
  6222                           	bcf	(152)^080h,2	;volatile
  6223  0055  1118               	line	15
  6224                           ;USART1.c: 15:     BAUDCTLbits.BRG16 = 1;
  6225                           	bsf	status, 5	;RP0=1, select bank3
  6226  0056  1683               	bsf	status, 6	;RP1=1, select bank3
  6227  0057  1703               	bsf	(391)^0180h,3	;volatile
  6228  0058  1587               	line	16
  6229                           	
  6230                           l2259:	
  6231  0059                     ;USART1.c: 16:     SPBRG = 25;
  6232                           	movlw	low(019h)
  6233  0059  3019               	bsf	status, 5	;RP0=1, select bank1
  6234  005A  1683               	bcf	status, 6	;RP1=0, select bank1
  6235  005B  1303               	movwf	(153)^080h	;volatile
  6236  005C  0099               	line	17
  6237                           	
  6238                           l2261:	
  6239  005D                     ;USART1.c: 17:     SPBRGH = 0;
  6240                           	clrf	(154)^080h	;volatile
  6241  005D  019A               	line	18
  6242                           	
  6243                           l2263:	
  6244  005E                     ;USART1.c: 18:     RCSTAbits.SPEN = 1;
  6245                           	bcf	status, 5	;RP0=0, select bank0
  6246  005E  1283               	bcf	status, 6	;RP1=0, select bank0
  6247  005F  1303               	bsf	(24),7	;volatile
  6248  0060  1798               	line	19
  6249                           	
  6250                           l2265:	
  6251  0061                     ;USART1.c: 19:     RCSTAbits.CREN = 1;
  6252                           	bsf	(24),4	;volatile
  6253  0061  1618               	line	20
  6254                           	
  6255                           l2267:	
  6256  0062                     ;USART1.c: 20:     TXSTAbits.TXEN = 1;
  6257                           	bsf	status, 5	;RP0=1, select bank1
  6258  0062  1683               	bcf	status, 6	;RP1=0, select bank1
  6259  0063  1303               	bsf	(152)^080h,5	;volatile
  6260  0064  1698               	line	21
  6261                           	
  6262                           l431:	
  6263  0065                     	return
  6264  0065  0008               	opt stack 0
  6265                           GLOBAL	__end_of_config
  6266                           	__end_of_config:
  6267  0066                     	signat	_config,89
  6268                           	global	_atoi
  6269                           
  6270 ;; *************** function _atoi *****************
  6271 ;; Defined at:
  6272 ;;		line 5 in file "C:\Program Files (x86)\Microchip\xc8\v2.00\pic\sources\c90\common\atoi.c"
  6273 ;; Parameters:    Size  Location     Type
  6274 ;;  s               1    wreg     PTR const unsigned char 
  6275 ;;		 -> valorf(1), 
  6276 ;; Auto vars:     Size  Location     Type
  6277 ;;  s               1   13[COMMON] PTR const unsigned char 
  6278 ;;		 -> valorf(1), 
  6279 ;;  a               2   11[COMMON] int 
  6280 ;;  sign            1   10[COMMON] unsigned char 
  6281 ;; Return value:  Size  Location     Type
  6282 ;;                  2    6[COMMON] int 
  6283 ;; Registers used:
  6284 ;;		wreg, fsr0l, fsr0h, status,2, status,0, pclath, cstack
  6285 ;; Tracked objects:
  6286 ;;		On entry : 0/0
  6287 ;;		On exit  : 0/0
  6288 ;;		Unchanged: 0/0
  6289 ;; Data sizes:     COMMON   BANK0   BANK1   BANK3   BANK2
  6290 ;;      Params:         2       0       0       0       0
  6291 ;;      Locals:         4       0       0       0       0
  6292 ;;      Temps:          2       0       0       0       0
  6293 ;;      Totals:         8       0       0       0       0
  6294 ;;Total ram usage:        8 bytes
  6295 ;; Hardware stack levels used:    1
  6296 ;; Hardware stack levels required when called:    1
  6297 ;; This function calls:
  6298 ;;		___wmul
  6299 ;;		_isdigit
  6300 ;; This function is called by:
  6301 ;;		_main
  6302 ;; This function uses a non-reentrant model
  6303 ;;
  6304                           psect	text21,local,class=CODE,delta=2,merge=1,group=2
  6305                           	file	"C:\Program Files (x86)\Microchip\xc8\v2.00\pic\sources\c90\common\atoi.c"
  6306                           	line	5
  6307                           global __ptext21
  6308                           __ptext21:	;psect for function _atoi
  6309  021C                     psect	text21
  6310                           	file	"C:\Program Files (x86)\Microchip\xc8\v2.00\pic\sources\c90\common\atoi.c"
  6311                           	line	5
  6312                           	global	__size_of_atoi
  6313                           	__size_of_atoi	equ	__end_of_atoi-_atoi
  6314  0085                     	
  6315                           _atoi:	
  6316  021C                     ;incstack = 0
  6317                           	opt	stack 6
  6318                           ; Regs used in _atoi: [wreg-fsr0h+status,2+status,0+pclath+cstack]
  6319                           ;atoi@s stored from wreg
  6320                           	movwf	(atoi@s)
  6321  021C  00FD               	line	10
  6322                           	
  6323                           l2269:	
  6324  021D                     	goto	l2273
  6325  021D  2A23               	
  6326                           l1011:	
  6327  021E                     	line	11
  6328                           	
  6329                           l2271:	
  6330  021E                     	movlw	low(01h)
  6331  021E  3001               	movwf	(??_atoi+0)+0
  6332  021F  00F8               	movf	(??_atoi+0)+0,w
  6333  0220  0878               	addwf	(atoi@s),f
  6334  0221  07FD               	goto	l2273
  6335  0222  2A23               	
  6336                           l1010:	
  6337  0223                     	line	10
  6338                           	
  6339                           l2273:	
  6340  0223                     	movf	(atoi@s),w
  6341  0223  087D               	movwf	fsr0
  6342  0224  0084               		movlw	32
  6343  0225  3020               	bcf	status, 7	;select IRP bank0
  6344  0226  1383               	xorwf	(indf),w
  6345  0227  0600               	btfsc	status,2
  6346  0228  1903               	goto	u1481
  6347  0229  2A2B               	goto	u1480
  6348  022A  2A2C               u1481:
  6349  022B                     	goto	l2271
  6350  022B  2A1E               u1480:
  6351  022C                     	
  6352                           l2275:	
  6353  022C                     	movf	(atoi@s),w
  6354  022C  087D               	movwf	fsr0
  6355  022D  0084               		movlw	9
  6356  022E  3009               	xorwf	(indf),w
  6357  022F  0600               	btfsc	status,2
  6358  0230  1903               	goto	u1491
  6359  0231  2A33               	goto	u1490
  6360  0232  2A34               u1491:
  6361  0233                     	goto	l2271
  6362  0233  2A1E               u1490:
  6363  0234                     	goto	l2277
  6364  0234  2A35               	
  6365                           l1012:	
  6366  0235                     	line	12
  6367                           	
  6368                           l2277:	
  6369  0235                     	clrf	(atoi@a)
  6370  0235  01FB               	clrf	(atoi@a+1)
  6371  0236  01FC               	line	13
  6372                           	clrf	(atoi@sign)
  6373  0237  01FA               	line	14
  6374                           	
  6375                           l2279:	
  6376  0238                     	movf	(atoi@s),w
  6377  0238  087D               	movwf	fsr0
  6378  0239  0084               		movlw	45
  6379  023A  302D               	xorwf	(indf),w
  6380  023B  0600               	btfss	status,2
  6381  023C  1D03               	goto	u1501
  6382  023D  2A3F               	goto	u1500
  6383  023E  2A40               u1501:
  6384  023F                     	goto	l2283
  6385  023F  2A49               u1500:
  6386  0240                     	line	15
  6387                           	
  6388                           l2281:	
  6389  0240                     	movlw	low(01h)
  6390  0240  3001               	movwf	(??_atoi+0)+0
  6391  0241  00F8               	movf	(??_atoi+0)+0,w
  6392  0242  0878               	addwf	(atoi@sign),f
  6393  0243  07FA               	line	16
  6394                           	movlw	low(01h)
  6395  0244  3001               	movwf	(??_atoi+0)+0
  6396  0245  00F8               	movf	(??_atoi+0)+0,w
  6397  0246  0878               	addwf	(atoi@s),f
  6398  0247  07FD               	line	17
  6399                           	goto	l2291
  6400  0248  2A7C               	
  6401                           l1013:	
  6402  0249                     	
  6403                           l2283:	
  6404  0249                     	movf	(atoi@s),w
  6405  0249  087D               	movwf	fsr0
  6406  024A  0084               		movlw	43
  6407  024B  302B               	xorwf	(indf),w
  6408  024C  0600               	btfss	status,2
  6409  024D  1D03               	goto	u1511
  6410  024E  2A50               	goto	u1510
  6411  024F  2A51               u1511:
  6412  0250                     	goto	l2291
  6413  0250  2A7C               u1510:
  6414  0251                     	line	18
  6415                           	
  6416                           l2285:	
  6417  0251                     	movlw	low(01h)
  6418  0251  3001               	movwf	(??_atoi+0)+0
  6419  0252  00F8               	movf	(??_atoi+0)+0,w
  6420  0253  0878               	addwf	(atoi@s),f
  6421  0254  07FD               	goto	l2291
  6422  0255  2A7C               	
  6423                           l1015:	
  6424  0256                     	goto	l2291
  6425  0256  2A7C               	line	19
  6426                           	
  6427                           l1014:	
  6428  0257                     	goto	l2291
  6429  0257  2A7C               	
  6430                           l1017:	
  6431  0258                     	line	20
  6432                           	
  6433                           l2287:	
  6434  0258                     	movf	(atoi@a+1),w
  6435  0258  087C               	movwf	(___wmul@multiplier+1)
  6436  0259  00F1               	movf	(atoi@a),w
  6437  025A  087B               	movwf	(___wmul@multiplier)
  6438  025B  00F0               	movlw	0Ah
  6439  025C  300A               	movwf	(___wmul@multiplicand)
  6440  025D  00F2               	movlw	0
  6441  025E  3000               	movwf	((___wmul@multiplicand))+1
  6442  025F  00F3               	fcall	___wmul
  6443  0260  120A  158A  264C  120A  118A  	movf	(atoi@s),w
  6444  0265  087D               	movwf	fsr0
  6445  0266  0084               	bcf	status, 7	;select IRP bank0
  6446  0267  1383               	movf	indf,w
  6447  0268  0800               	addwf	(0+(?___wmul)),w
  6448  0269  0770               	movwf	(??_atoi+0)+0
  6449  026A  00F8               	movf	(1+(?___wmul)),w
  6450  026B  0871               	skipnc
  6451  026C  1803               	incf	(1+(?___wmul)),w
  6452  026D  0A71               	movwf	((??_atoi+0)+0)+1
  6453  026E  00F9               	movf	0+(??_atoi+0)+0,w
  6454  026F  0878               	addlw	low(0FFD0h)
  6455  0270  3ED0               	movwf	(atoi@a)
  6456  0271  00FB               	movf	1+(??_atoi+0)+0,w
  6457  0272  0879               	skipnc
  6458  0273  1803               	addlw	1
  6459  0274  3E01               	addlw	high(0FFD0h)
  6460  0275  3EFF               	movwf	1+(atoi@a)
  6461  0276  00FC               	
  6462                           l2289:	
  6463  0277                     	movlw	low(01h)
  6464  0277  3001               	movwf	(??_atoi+0)+0
  6465  0278  00F8               	movf	(??_atoi+0)+0,w
  6466  0279  0878               	addwf	(atoi@s),f
  6467  027A  07FD               	goto	l2291
  6468  027B  2A7C               	
  6469                           l1016:	
  6470  027C                     	line	19
  6471                           	
  6472                           l2291:	
  6473  027C                     	movf	(atoi@s),w
  6474  027C  087D               	movwf	fsr0
  6475  027D  0084               	movf	indf,w
  6476  027E  0800               	fcall	_isdigit
  6477  027F  120A  158A  25DC  120A  118A  	btfsc	status,0
  6478  0284  1803               	goto	u1521
  6479  0285  2A87               	goto	u1520
  6480  0286  2A88               u1521:
  6481  0287                     	goto	l2287
  6482  0287  2A58               u1520:
  6483  0288                     	goto	l2293
  6484  0288  2A89               	
  6485                           l1018:	
  6486  0289                     	line	21
  6487                           	
  6488                           l2293:	
  6489  0289                     	movf	((atoi@sign)),w
  6490  0289  087A               	btfsc	status,2
  6491  028A  1903               	goto	u1531
  6492  028B  2A8D               	goto	u1530
  6493  028C  2A8E               u1531:
  6494  028D                     	goto	l2299
  6495  028D  2A9B               u1530:
  6496  028E                     	line	22
  6497                           	
  6498                           l2295:	
  6499  028E                     	comf	(atoi@a),w
  6500  028E  097B               	movwf	(??_atoi+0)+0
  6501  028F  00F8               	comf	(atoi@a+1),w
  6502  0290  097C               	movwf	((??_atoi+0)+0+1)
  6503  0291  00F9               	incf	(??_atoi+0)+0,f
  6504  0292  0AF8               	skipnz
  6505  0293  1903               	incf	((??_atoi+0)+0+1),f
  6506  0294  0AF9               	movf	0+(??_atoi+0)+0,w
  6507  0295  0878               	movwf	(?_atoi)
  6508  0296  00F6               	movf	1+(??_atoi+0)+0,w
  6509  0297  0879               	movwf	(?_atoi+1)
  6510  0298  00F7               	goto	l1020
  6511  0299  2AA0               	
  6512                           l2297:	
  6513  029A                     	goto	l1020
  6514  029A  2AA0               	
  6515                           l1019:	
  6516  029B                     	line	23
  6517                           	
  6518                           l2299:	
  6519  029B                     	movf	(atoi@a+1),w
  6520  029B  087C               	movwf	(?_atoi+1)
  6521  029C  00F7               	movf	(atoi@a),w
  6522  029D  087B               	movwf	(?_atoi)
  6523  029E  00F6               	goto	l1020
  6524  029F  2AA0               	
  6525                           l2301:	
  6526  02A0                     	line	24
  6527                           	
  6528                           l1020:	
  6529  02A0                     	return
  6530  02A0  0008               	opt stack 0
  6531                           GLOBAL	__end_of_atoi
  6532                           	__end_of_atoi:
  6533  02A1                     	signat	_atoi,4218
  6534                           	global	_isdigit
  6535                           
  6536 ;; *************** function _isdigit *****************
  6537 ;; Defined at:
  6538 ;;		line 8 in file "C:\Program Files (x86)\Microchip\xc8\v2.00\pic\sources\c90\common\isdigit.c"
  6539 ;; Parameters:    Size  Location     Type
  6540 ;;  c               1    wreg     unsigned char 
  6541 ;; Auto vars:     Size  Location     Type
  6542 ;;  c               1    1[COMMON] unsigned char 
  6543 ;; Return value:  Size  Location     Type
  6544 ;;		None               void
  6545 ;; Registers used:
  6546 ;;		wreg, status,2, status,0
  6547 ;; Tracked objects:
  6548 ;;		On entry : 0/0
  6549 ;;		On exit  : 0/0
  6550 ;;		Unchanged: 0/0
  6551 ;; Data sizes:     COMMON   BANK0   BANK1   BANK3   BANK2
  6552 ;;      Params:         0       0       0       0       0
  6553 ;;      Locals:         2       0       0       0       0
  6554 ;;      Temps:          0       0       0       0       0
  6555 ;;      Totals:         2       0       0       0       0
  6556 ;;Total ram usage:        2 bytes
  6557 ;; Hardware stack levels used:    1
  6558 ;; This function calls:
  6559 ;;		Nothing
  6560 ;; This function is called by:
  6561 ;;		_sprintf
  6562 ;;		_atoi
  6563 ;; This function uses a non-reentrant model
  6564 ;;
  6565                           psect	text22,local,class=CODE,delta=2,merge=1,group=2
  6566                           	file	"C:\Program Files (x86)\Microchip\xc8\v2.00\pic\sources\c90\common\isdigit.c"
  6567                           	line	8
  6568                           global __ptext22
  6569                           __ptext22:	;psect for function _isdigit
  6570  0DDC                     psect	text22
  6571                           	file	"C:\Program Files (x86)\Microchip\xc8\v2.00\pic\sources\c90\common\isdigit.c"
  6572                           	line	8
  6573                           	global	__size_of_isdigit
  6574                           	__size_of_isdigit	equ	__end_of_isdigit-_isdigit
  6575  0014                     	
  6576                           _isdigit:	
  6577  0DDC                     ;incstack = 0
  6578                           	opt	stack 6
  6579                           ; Regs used in _isdigit: [wreg+status,2+status,0]
  6580                           ;isdigit@c stored from wreg
  6581                           	movwf	(isdigit@c)
  6582  0DDC  00F1               	line	14
  6583                           	
  6584                           l2089:	
  6585  0DDD                     	clrf	(_isdigit$1149)
  6586  0DDD  01F0               	
  6587                           l2091:	
  6588  0DDE                     	movlw	low(03Ah)
  6589  0DDE  303A               	subwf	(isdigit@c),w
  6590  0DDF  0271               	skipnc
  6591  0DE0  1803               	goto	u1121
  6592  0DE1  2DE3               	goto	u1120
  6593  0DE2  2DE4               u1121:
  6594  0DE3                     	goto	l2097
  6595  0DE3  2DED               u1120:
  6596  0DE4                     	
  6597                           l2093:	
  6598  0DE4                     	movlw	low(030h)
  6599  0DE4  3030               	subwf	(isdigit@c),w
  6600  0DE5  0271               	skipc
  6601  0DE6  1C03               	goto	u1131
  6602  0DE7  2DE9               	goto	u1130
  6603  0DE8  2DEA               u1131:
  6604  0DE9                     	goto	l2097
  6605  0DE9  2DED               u1130:
  6606  0DEA                     	
  6607                           l2095:	
  6608  0DEA                     	clrf	(_isdigit$1149)
  6609  0DEA  01F0               	incf	(_isdigit$1149),f
  6610  0DEB  0AF0               	goto	l2097
  6611  0DEC  2DED               	
  6612                           l1024:	
  6613  0DED                     	
  6614                           l2097:	
  6615  0DED                     	rrf	(_isdigit$1149),w
  6616  0DED  0C70               	
  6617                           	goto	l1025
  6618  0DEE  2DEF               	
  6619                           l2099:	
  6620  0DEF                     	line	15
  6621                           	
  6622                           l1025:	
  6623  0DEF                     	return
  6624  0DEF  0008               	opt stack 0
  6625                           GLOBAL	__end_of_isdigit
  6626                           	__end_of_isdigit:
  6627  0DF0                     	signat	_isdigit,4216
  6628                           	global	___wmul
  6629                           
  6630 ;; *************** function ___wmul *****************
  6631 ;; Defined at:
  6632 ;;		line 15 in file "C:\Program Files (x86)\Microchip\xc8\v2.00\pic\sources\c90\common\Umul16.c"
  6633 ;; Parameters:    Size  Location     Type
  6634 ;;  multiplier      2    0[COMMON] unsigned int 
  6635 ;;  multiplicand    2    2[COMMON] unsigned int 
  6636 ;; Auto vars:     Size  Location     Type
  6637 ;;  product         2    4[COMMON] unsigned int 
  6638 ;; Return value:  Size  Location     Type
  6639 ;;                  2    0[COMMON] unsigned int 
  6640 ;; Registers used:
  6641 ;;		wreg, status,2, status,0
  6642 ;; Tracked objects:
  6643 ;;		On entry : 0/0
  6644 ;;		On exit  : 0/0
  6645 ;;		Unchanged: 0/0
  6646 ;; Data sizes:     COMMON   BANK0   BANK1   BANK3   BANK2
  6647 ;;      Params:         4       0       0       0       0
  6648 ;;      Locals:         2       0       0       0       0
  6649 ;;      Temps:          0       0       0       0       0
  6650 ;;      Totals:         6       0       0       0       0
  6651 ;;Total ram usage:        6 bytes
  6652 ;; Hardware stack levels used:    1
  6653 ;; This function calls:
  6654 ;;		Nothing
  6655 ;; This function is called by:
  6656 ;;		_atoi
  6657 ;;		_BCD_2_DEC
  6658 ;; This function uses a non-reentrant model
  6659 ;;
  6660                           psect	text23,local,class=CODE,delta=2,merge=1,group=1
  6661                           	file	"C:\Program Files (x86)\Microchip\xc8\v2.00\pic\sources\c90\common\Umul16.c"
  6662                           	line	15
  6663                           global __ptext23
  6664                           __ptext23:	;psect for function ___wmul
  6665  0E4C                     psect	text23
  6666                           	file	"C:\Program Files (x86)\Microchip\xc8\v2.00\pic\sources\c90\common\Umul16.c"
  6667                           	line	15
  6668                           	global	__size_of___wmul
  6669                           	__size_of___wmul	equ	__end_of___wmul-___wmul
  6670  0028                     	
  6671                           ___wmul:	
  6672  0E4C                     ;incstack = 0
  6673                           	opt	stack 6
  6674                           ; Regs used in ___wmul: [wreg+status,2+status,0]
  6675                           	line	43
  6676                           	
  6677                           l2101:	
  6678  0E4C                     	clrf	(___wmul@product)
  6679  0E4C  01F4               	clrf	(___wmul@product+1)
  6680  0E4D  01F5               	goto	l2103
  6681  0E4E  2E4F               	line	44
  6682                           	
  6683                           l581:	
  6684  0E4F                     	line	45
  6685                           	
  6686                           l2103:	
  6687  0E4F                     	btfss	(___wmul@multiplier),(0)&7
  6688  0E4F  1C70               	goto	u1141
  6689  0E50  2E52               	goto	u1140
  6690  0E51  2E53               u1141:
  6691  0E52                     	goto	l582
  6692  0E52  2E59               u1140:
  6693  0E53                     	line	46
  6694                           	
  6695                           l2105:	
  6696  0E53                     	movf	(___wmul@multiplicand),w
  6697  0E53  0872               	addwf	(___wmul@product),f
  6698  0E54  07F4               	skipnc
  6699  0E55  1803               	incf	(___wmul@product+1),f
  6700  0E56  0AF5               	movf	(___wmul@multiplicand+1),w
  6701  0E57  0873               	addwf	(___wmul@product+1),f
  6702  0E58  07F5               	
  6703                           l582:	
  6704  0E59                     	line	47
  6705                           	movlw	01h
  6706  0E59  3001               	
  6707                           u1155:
  6708  0E5A                     	clrc
  6709  0E5A  1003               	rlf	(___wmul@multiplicand),f
  6710  0E5B  0DF2               	rlf	(___wmul@multiplicand+1),f
  6711  0E5C  0DF3               	addlw	-1
  6712  0E5D  3EFF               	skipz
  6713  0E5E  1D03               	goto	u1155
  6714  0E5F  2E5A               	line	48
  6715                           	
  6716                           l2107:	
  6717  0E60                     	movlw	01h
  6718  0E60  3001               	
  6719                           u1165:
  6720  0E61                     	clrc
  6721  0E61  1003               	rrf	(___wmul@multiplier+1),f
  6722  0E62  0CF1               	rrf	(___wmul@multiplier),f
  6723  0E63  0CF0               	addlw	-1
  6724  0E64  3EFF               	skipz
  6725  0E65  1D03               	goto	u1165
  6726  0E66  2E61               	line	49
  6727                           	
  6728                           l2109:	
  6729  0E67                     	movf	((___wmul@multiplier)),w
  6730  0E67  0870               iorwf	((___wmul@multiplier+1)),w
  6731  0E68  0471               	btfss	status,2
  6732  0E69  1D03               	goto	u1171
  6733  0E6A  2E6C               	goto	u1170
  6734  0E6B  2E6D               u1171:
  6735  0E6C                     	goto	l2103
  6736  0E6C  2E4F               u1170:
  6737  0E6D                     	goto	l2111
  6738  0E6D  2E6E               	
  6739                           l583:	
  6740  0E6E                     	line	52
  6741                           	
  6742                           l2111:	
  6743  0E6E                     	movf	(___wmul@product+1),w
  6744  0E6E  0875               	movwf	(?___wmul+1)
  6745  0E6F  00F1               	movf	(___wmul@product),w
  6746  0E70  0874               	movwf	(?___wmul)
  6747  0E71  00F0               	goto	l584
  6748  0E72  2E73               	
  6749                           l2113:	
  6750  0E73                     	line	53
  6751                           	
  6752                           l584:	
  6753  0E73                     	return
  6754  0E73  0008               	opt stack 0
  6755                           GLOBAL	__end_of___wmul
  6756                           	__end_of___wmul:
  6757  0E74                     	signat	___wmul,8314
  6758                           	global	_PasoCompSimple
  6759                           
  6760 ;; *************** function _PasoCompSimple *****************
  6761 ;; Defined at:
  6762 ;;		line 259 in file "Pri-Master.c"
  6763 ;; Parameters:    Size  Location     Type
  6764 ;;		None
  6765 ;; Auto vars:     Size  Location     Type
  6766 ;;		None
  6767 ;; Return value:  Size  Location     Type
  6768 ;;                  1    wreg      void 
  6769 ;; Registers used:
  6770 ;;		wreg
  6771 ;; Tracked objects:
  6772 ;;		On entry : 0/0
  6773 ;;		On exit  : 0/0
  6774 ;;		Unchanged: 0/0
  6775 ;; Data sizes:     COMMON   BANK0   BANK1   BANK3   BANK2
  6776 ;;      Params:         0       0       0       0       0
  6777 ;;      Locals:         0       0       0       0       0
  6778 ;;      Temps:          2       0       0       0       0
  6779 ;;      Totals:         2       0       0       0       0
  6780 ;;Total ram usage:        2 bytes
  6781 ;; Hardware stack levels used:    1
  6782 ;; This function calls:
  6783 ;;		Nothing
  6784 ;; This function is called by:
  6785 ;;		_main
  6786 ;; This function uses a non-reentrant model
  6787 ;;
  6788                           psect	text24,local,class=CODE,delta=2,merge=1,group=0
  6789                           	file	"Pri-Master.c"
  6790                           	line	259
  6791                           global __ptext24
  6792                           __ptext24:	;psect for function _PasoCompSimple
  6793  00A2                     psect	text24
  6794                           	file	"Pri-Master.c"
  6795                           	line	259
  6796                           	global	__size_of_PasoCompSimple
  6797                           	__size_of_PasoCompSimple	equ	__end_of_PasoCompSimple-_PasoCompSimple
  6798  003D                     	
  6799                           _PasoCompSimple:	
  6800  00A2                     ;incstack = 0
  6801                           	opt	stack 7
  6802                           ; Regs used in _PasoCompSimple: [wreg]
  6803                           	line	260
  6804                           	
  6805                           l2413:	
  6806  00A2                     ;Pri-Master.c: 260:     PORTAbits.RA1 = 1;
  6807                           	bcf	status, 5	;RP0=0, select bank0
  6808  00A2  1283               	bcf	status, 6	;RP1=0, select bank0
  6809  00A3  1303               	bsf	(5),1	;volatile
  6810  00A4  1485               	line	261
  6811                           ;Pri-Master.c: 261:     PORTAbits.RA3 = 0;
  6812                           	bcf	(5),3	;volatile
  6813  00A5  1185               	line	262
  6814                           ;Pri-Master.c: 262:     PORTAbits.RA4 = 0;
  6815                           	bcf	(5),4	;volatile
  6816  00A6  1205               	line	263
  6817                           ;Pri-Master.c: 263:     PORTAbits.RA5 = 0;
  6818                           	bcf	(5),5	;volatile
  6819  00A7  1285               	line	264
  6820                           	
  6821                           l2415:	
  6822  00A8                     ;Pri-Master.c: 264:     _delay((unsigned long)((15)*(4000000/4000.0)));
  6823                           	opt asmopt_push
  6824                           opt asmopt_off
  6825                           movlw	20
  6826  00A8  3014               movwf	((??_PasoCompSimple+0)+0+1),f
  6827  00A9  00F1               	movlw	121
  6828  00AA  3079               movwf	((??_PasoCompSimple+0)+0),f
  6829  00AB  00F0               	u1977:
  6830  00AC                     decfsz	((??_PasoCompSimple+0)+0),f
  6831  00AC  0BF0               	goto	u1977
  6832  00AD  28AC               	decfsz	((??_PasoCompSimple+0)+0+1),f
  6833  00AE  0BF1               	goto	u1977
  6834  00AF  28AC               	nop2
  6835  00B0  28B1               opt asmopt_pop
  6836                           
  6837                           	line	266
  6838                           	
  6839                           l2417:	
  6840  00B1                     ;Pri-Master.c: 266:     PORTAbits.RA1 = 0;
  6841                           	bcf	status, 5	;RP0=0, select bank0
  6842  00B1  1283               	bcf	status, 6	;RP1=0, select bank0
  6843  00B2  1303               	bcf	(5),1	;volatile
  6844  00B3  1085               	line	267
  6845                           	
  6846                           l2419:	
  6847  00B4                     ;Pri-Master.c: 267:     PORTAbits.RA3 = 1;
  6848                           	bsf	(5),3	;volatile
  6849  00B4  1585               	line	268
  6850                           	
  6851                           l2421:	
  6852  00B5                     ;Pri-Master.c: 268:     PORTAbits.RA4 = 0;
  6853                           	bcf	(5),4	;volatile
  6854  00B5  1205               	line	269
  6855                           	
  6856                           l2423:	
  6857  00B6                     ;Pri-Master.c: 269:     PORTAbits.RA5 = 0;
  6858                           	bcf	(5),5	;volatile
  6859  00B6  1285               	line	270
  6860                           ;Pri-Master.c: 270:     _delay((unsigned long)((15)*(4000000/4000.0)));
  6861                           	opt asmopt_push
  6862                           opt asmopt_off
  6863                           movlw	20
  6864  00B7  3014               movwf	((??_PasoCompSimple+0)+0+1),f
  6865  00B8  00F1               	movlw	121
  6866  00B9  3079               movwf	((??_PasoCompSimple+0)+0),f
  6867  00BA  00F0               	u1987:
  6868  00BB                     decfsz	((??_PasoCompSimple+0)+0),f
  6869  00BB  0BF0               	goto	u1987
  6870  00BC  28BB               	decfsz	((??_PasoCompSimple+0)+0+1),f
  6871  00BD  0BF1               	goto	u1987
  6872  00BE  28BB               	nop2
  6873  00BF  28C0               opt asmopt_pop
  6874                           
  6875                           	line	272
  6876                           	
  6877                           l2425:	
  6878  00C0                     ;Pri-Master.c: 272:     PORTAbits.RA1 = 0;
  6879                           	bcf	status, 5	;RP0=0, select bank0
  6880  00C0  1283               	bcf	status, 6	;RP1=0, select bank0
  6881  00C1  1303               	bcf	(5),1	;volatile
  6882  00C2  1085               	line	273
  6883                           	
  6884                           l2427:	
  6885  00C3                     ;Pri-Master.c: 273:     PORTAbits.RA3 = 0;
  6886                           	bcf	(5),3	;volatile
  6887  00C3  1185               	line	274
  6888                           	
  6889                           l2429:	
  6890  00C4                     ;Pri-Master.c: 274:     PORTAbits.RA4 = 1;
  6891                           	bsf	(5),4	;volatile
  6892  00C4  1605               	line	275
  6893                           	
  6894                           l2431:	
  6895  00C5                     ;Pri-Master.c: 275:     PORTAbits.RA5 = 0;
  6896                           	bcf	(5),5	;volatile
  6897  00C5  1285               	line	276
  6898                           ;Pri-Master.c: 276:     _delay((unsigned long)((15)*(4000000/4000.0)));
  6899                           	opt asmopt_push
  6900                           opt asmopt_off
  6901                           movlw	20
  6902  00C6  3014               movwf	((??_PasoCompSimple+0)+0+1),f
  6903  00C7  00F1               	movlw	121
  6904  00C8  3079               movwf	((??_PasoCompSimple+0)+0),f
  6905  00C9  00F0               	u1997:
  6906  00CA                     decfsz	((??_PasoCompSimple+0)+0),f
  6907  00CA  0BF0               	goto	u1997
  6908  00CB  28CA               	decfsz	((??_PasoCompSimple+0)+0+1),f
  6909  00CC  0BF1               	goto	u1997
  6910  00CD  28CA               	nop2
  6911  00CE  28CF               opt asmopt_pop
  6912                           
  6913                           	line	278
  6914                           	
  6915                           l2433:	
  6916  00CF                     ;Pri-Master.c: 278:     PORTAbits.RA1 = 0;
  6917                           	bcf	status, 5	;RP0=0, select bank0
  6918  00CF  1283               	bcf	status, 6	;RP1=0, select bank0
  6919  00D0  1303               	bcf	(5),1	;volatile
  6920  00D1  1085               	line	279
  6921                           	
  6922                           l2435:	
  6923  00D2                     ;Pri-Master.c: 279:     PORTAbits.RA3 = 0;
  6924                           	bcf	(5),3	;volatile
  6925  00D2  1185               	line	280
  6926                           	
  6927                           l2437:	
  6928  00D3                     ;Pri-Master.c: 280:     PORTAbits.RA4 = 0;
  6929                           	bcf	(5),4	;volatile
  6930  00D3  1205               	line	281
  6931                           	
  6932                           l2439:	
  6933  00D4                     ;Pri-Master.c: 281:     PORTAbits.RA5 = 1;
  6934                           	bsf	(5),5	;volatile
  6935  00D4  1685               	line	282
  6936                           ;Pri-Master.c: 282:     _delay((unsigned long)((15)*(4000000/4000.0)));
  6937                           	opt asmopt_push
  6938                           opt asmopt_off
  6939                           movlw	20
  6940  00D5  3014               movwf	((??_PasoCompSimple+0)+0+1),f
  6941  00D6  00F1               	movlw	121
  6942  00D7  3079               movwf	((??_PasoCompSimple+0)+0),f
  6943  00D8  00F0               	u2007:
  6944  00D9                     decfsz	((??_PasoCompSimple+0)+0),f
  6945  00D9  0BF0               	goto	u2007
  6946  00DA  28D9               	decfsz	((??_PasoCompSimple+0)+0+1),f
  6947  00DB  0BF1               	goto	u2007
  6948  00DC  28D9               	nop2
  6949  00DD  28DE               opt asmopt_pop
  6950                           
  6951                           	line	283
  6952                           	
  6953                           l416:	
  6954  00DE                     	return
  6955  00DE  0008               	opt stack 0
  6956                           GLOBAL	__end_of_PasoCompSimple
  6957                           	__end_of_PasoCompSimple:
  6958  00DF                     	signat	_PasoCompSimple,89
  6959                           	global	_LCD_STRING
  6960                           
  6961 ;; *************** function _LCD_STRING *****************
  6962 ;; Defined at:
  6963 ;;		line 98 in file "LCD.c"
  6964 ;; Parameters:    Size  Location     Type
  6965 ;;  a               2    2[COMMON] PTR unsigned char 
  6966 ;;		 -> valor(16), time(12), STR_2(16), STR_1(12), 
  6967 ;; Auto vars:     Size  Location     Type
  6968 ;;  n               2    7[COMMON] int 
  6969 ;; Return value:  Size  Location     Type
  6970 ;;                  1    wreg      void 
  6971 ;; Registers used:
  6972 ;;		wreg, fsr0l, fsr0h, status,2, status,0, btemp+1, pclath, cstack
  6973 ;; Tracked objects:
  6974 ;;		On entry : 0/0
  6975 ;;		On exit  : 0/0
  6976 ;;		Unchanged: 0/0
  6977 ;; Data sizes:     COMMON   BANK0   BANK1   BANK3   BANK2
  6978 ;;      Params:         2       0       0       0       0
  6979 ;;      Locals:         2       0       0       0       0
  6980 ;;      Temps:          3       0       0       0       0
  6981 ;;      Totals:         7       0       0       0       0
  6982 ;;Total ram usage:        7 bytes
  6983 ;; Hardware stack levels used:    1
  6984 ;; Hardware stack levels required when called:    1
  6985 ;; This function calls:
  6986 ;;		_LCD_CHAR
  6987 ;; This function is called by:
  6988 ;;		_main
  6989 ;; This function uses a non-reentrant model
  6990 ;;
  6991                           psect	text25,local,class=CODE,delta=2,merge=1,group=0
  6992                           	file	"LCD.c"
  6993                           	line	98
  6994                           global __ptext25
  6995                           __ptext25:	;psect for function _LCD_STRING
  6996  0120                     psect	text25
  6997                           	file	"LCD.c"
  6998                           	line	98
  6999                           	global	__size_of_LCD_STRING
  7000                           	__size_of_LCD_STRING	equ	__end_of_LCD_STRING-_LCD_STRING
  7001  0044                     	
  7002                           _LCD_STRING:	
  7003  0120                     ;incstack = 0
  7004                           	opt	stack 6
  7005                           ; Regs used in _LCD_STRING: [wreg-fsr0h+status,2+status,0+btemp+1+pclath+cstack]
  7006                           	line	101
  7007                           	
  7008                           l2235:	
  7009  0120                     ;LCD.c: 98: void LCD_STRING(char *a);LCD.c: 99: {;LCD.c: 100:     int n;;LCD.c: 101:    
                                  for(n = 0; a[n] != '\0'; n++){
  7010                           	clrf	(LCD_STRING@n)
  7011  0120  01F7               	clrf	(LCD_STRING@n+1)
  7012  0121  01F8               	goto	l2241
  7013  0122  2946               	
  7014                           l242:	
  7015  0123                     	line	102
  7016                           	
  7017                           l2237:	
  7018  0123                     ;LCD.c: 102:         LCD_CHAR(a[n]);
  7019                           	movf	(LCD_STRING@n),w
  7020  0123  0877               	addwf	(LCD_STRING@a),w
  7021  0124  0772               	movwf	(??_LCD_STRING+1)+0
  7022  0125  00F5               	movf	(LCD_STRING@a+1),w
  7023  0126  0873               	movwf	(??_LCD_STRING+0)+0
  7024  0127  00F4               	skipnc
  7025  0128  1803               	incf	(??_LCD_STRING+0)+0,f
  7026  0129  0AF4               	btfss	(LCD_STRING@n),7
  7027  012A  1FF7               	goto	u1440
  7028  012B  292D               	decf	(??_LCD_STRING+0)+0,f
  7029  012C  03F4               u1440:
  7030  012D                     	movf	(??_LCD_STRING+0)+0,w
  7031  012D  0874               	movwf	0+((??_LCD_STRING+1)+0)+1
  7032  012E  00F6               	movf	1+(??_LCD_STRING+1)+0,w
  7033  012F  0876               	bcf	status, 5	;RP0=0, select bank0
  7034  0130  1283               	bcf	status, 6	;RP1=0, select bank0
  7035  0131  1303               	movwf	btemp+1
  7036  0132  00FF               	movf	0+(??_LCD_STRING+1)+0,w
  7037  0133  0875               	movwf	fsr0
  7038  0134  0084               	fcall	stringtab
  7039  0135  120A  118A  2003  120A  118A  	fcall	_LCD_CHAR
  7040  013A  120A  158A  2589  120A  118A  	line	103
  7041                           	
  7042                           l2239:	
  7043  013F                     ;LCD.c: 103:     }
  7044                           	movlw	01h
  7045  013F  3001               	addwf	(LCD_STRING@n),f
  7046  0140  07F7               	skipnc
  7047  0141  1803               	incf	(LCD_STRING@n+1),f
  7048  0142  0AF8               	movlw	0
  7049  0143  3000               	addwf	(LCD_STRING@n+1),f
  7050  0144  07F8               	goto	l2241
  7051  0145  2946               	
  7052                           l241:	
  7053  0146                     	
  7054                           l2241:	
  7055  0146                     	movf	(LCD_STRING@n),w
  7056  0146  0877               	addwf	(LCD_STRING@a),w
  7057  0147  0772               	movwf	(??_LCD_STRING+1)+0
  7058  0148  00F5               	movf	(LCD_STRING@a+1),w
  7059  0149  0873               	movwf	(??_LCD_STRING+0)+0
  7060  014A  00F4               	skipnc
  7061  014B  1803               	incf	(??_LCD_STRING+0)+0,f
  7062  014C  0AF4               	btfss	(LCD_STRING@n),7
  7063  014D  1FF7               	goto	u1450
  7064  014E  2950               	decf	(??_LCD_STRING+0)+0,f
  7065  014F  03F4               u1450:
  7066  0150                     	movf	(??_LCD_STRING+0)+0,w
  7067  0150  0874               	movwf	0+((??_LCD_STRING+1)+0)+1
  7068  0151  00F6               	movf	1+(??_LCD_STRING+1)+0,w
  7069  0152  0876               	bcf	status, 5	;RP0=0, select bank0
  7070  0153  1283               	bcf	status, 6	;RP1=0, select bank0
  7071  0154  1303               	movwf	btemp+1
  7072  0155  00FF               	movf	0+(??_LCD_STRING+1)+0,w
  7073  0156  0875               	movwf	fsr0
  7074  0157  0084               	fcall	stringtab
  7075  0158  120A  118A  2003  120A  118A  	xorlw	0
  7076  015D  3A00               	skipz
  7077  015E  1D03               	goto	u1461
  7078  015F  2961               	goto	u1460
  7079  0160  2962               u1461:
  7080  0161                     	goto	l2237
  7081  0161  2923               u1460:
  7082  0162                     	goto	l244
  7083  0162  2963               	
  7084                           l243:	
  7085  0163                     	line	104
  7086                           	
  7087                           l244:	
  7088  0163                     	return
  7089  0163  0008               	opt stack 0
  7090                           GLOBAL	__end_of_LCD_STRING
  7091                           	__end_of_LCD_STRING:
  7092  0164                     	signat	_LCD_STRING,4217
  7093                           	global	_LCD_CHAR
  7094                           
  7095 ;; *************** function _LCD_CHAR *****************
  7096 ;; Defined at:
  7097 ;;		line 88 in file "LCD.c"
  7098 ;; Parameters:    Size  Location     Type
  7099 ;;  a               1    wreg     unsigned char 
  7100 ;; Auto vars:     Size  Location     Type
  7101 ;;  a               1    1[COMMON] unsigned char 
  7102 ;; Return value:  Size  Location     Type
  7103 ;;                  1    wreg      void 
  7104 ;; Registers used:
  7105 ;;		wreg
  7106 ;; Tracked objects:
  7107 ;;		On entry : 0/0
  7108 ;;		On exit  : 0/0
  7109 ;;		Unchanged: 0/0
  7110 ;; Data sizes:     COMMON   BANK0   BANK1   BANK3   BANK2
  7111 ;;      Params:         0       0       0       0       0
  7112 ;;      Locals:         1       0       0       0       0
  7113 ;;      Temps:          1       0       0       0       0
  7114 ;;      Totals:         2       0       0       0       0
  7115 ;;Total ram usage:        2 bytes
  7116 ;; Hardware stack levels used:    1
  7117 ;; This function calls:
  7118 ;;		Nothing
  7119 ;; This function is called by:
  7120 ;;		_LCD_STRING
  7121 ;; This function uses a non-reentrant model
  7122 ;;
  7123                           psect	text26,local,class=CODE,delta=2,merge=1,group=0
  7124                           	line	88
  7125                           global __ptext26
  7126                           __ptext26:	;psect for function _LCD_CHAR
  7127  0D89                     psect	text26
  7128                           	file	"LCD.c"
  7129                           	line	88
  7130                           	global	__size_of_LCD_CHAR
  7131                           	__size_of_LCD_CHAR	equ	__end_of_LCD_CHAR-_LCD_CHAR
  7132  000F                     	
  7133                           _LCD_CHAR:	
  7134  0D89                     ;incstack = 0
  7135                           	opt	stack 6
  7136                           ; Regs used in _LCD_CHAR: [wreg]
  7137                           ;LCD_CHAR@a stored from wreg
  7138                           	movwf	(LCD_CHAR@a)
  7139  0D89  00F1               	line	90
  7140                           	
  7141                           l2081:	
  7142  0D8A                     ;LCD.c: 88: void LCD_CHAR(char a);LCD.c: 89: {;LCD.c: 90:     PORTDbits.RD5 = 1;
  7143                           	bcf	status, 5	;RP0=0, select bank0
  7144  0D8A  1283               	bcf	status, 6	;RP1=0, select bank0
  7145  0D8B  1303               	bsf	(8),5	;volatile
  7146  0D8C  1688               	line	92
  7147                           	
  7148                           l2083:	
  7149  0D8D                     ;LCD.c: 92:     PORTB = a;
  7150                           	movf	(LCD_CHAR@a),w
  7151  0D8D  0871               	movwf	(6)	;volatile
  7152  0D8E  0086               	line	93
  7153                           	
  7154                           l2085:	
  7155  0D8F                     ;LCD.c: 93:     PORTDbits.RD7 = 1;
  7156                           	bsf	(8),7	;volatile
  7157  0D8F  1788               	line	94
  7158                           ;LCD.c: 94:     _delay((unsigned long)((40)*(4000000/4000000.0)));
  7159                           	opt asmopt_push
  7160                           opt asmopt_off
  7161                           	movlw	13
  7162  0D90  300D               movwf	((??_LCD_CHAR+0)+0),f
  7163  0D91  00F0               	u2017:
  7164  0D92                     decfsz	(??_LCD_CHAR+0)+0,f
  7165  0D92  0BF0               	goto	u2017
  7166  0D93  2D92               opt asmopt_pop
  7167                           
  7168                           	line	95
  7169                           	
  7170                           l2087:	
  7171  0D94                     ;LCD.c: 95:     PORTDbits.RD7 = 0;
  7172                           	bcf	status, 5	;RP0=0, select bank0
  7173  0D94  1283               	bcf	status, 6	;RP1=0, select bank0
  7174  0D95  1303               	bcf	(8),7	;volatile
  7175  0D96  1388               	line	96
  7176                           	
  7177                           l238:	
  7178  0D97                     	return
  7179  0D97  0008               	opt stack 0
  7180                           GLOBAL	__end_of_LCD_CHAR
  7181                           	__end_of_LCD_CHAR:
  7182  0D98                     	signat	_LCD_CHAR,4217
  7183                           	global	_LCD_CURSOR
  7184                           
  7185 ;; *************** function _LCD_CURSOR *****************
  7186 ;; Defined at:
  7187 ;;		line 71 in file "LCD.c"
  7188 ;; Parameters:    Size  Location     Type
  7189 ;;  a               2    4[COMMON] int 
  7190 ;;  b               2    6[COMMON] int 
  7191 ;; Auto vars:     Size  Location     Type
  7192 ;;  d               2    8[COMMON] int 
  7193 ;; Return value:  Size  Location     Type
  7194 ;;                  1    wreg      void 
  7195 ;; Registers used:
  7196 ;;		wreg, status,2, status,0, pclath, cstack
  7197 ;; Tracked objects:
  7198 ;;		On entry : 0/0
  7199 ;;		On exit  : 0/0
  7200 ;;		Unchanged: 0/0
  7201 ;; Data sizes:     COMMON   BANK0   BANK1   BANK3   BANK2
  7202 ;;      Params:         4       0       0       0       0
  7203 ;;      Locals:         2       0       0       0       0
  7204 ;;      Temps:          0       0       0       0       0
  7205 ;;      Totals:         6       0       0       0       0
  7206 ;;Total ram usage:        6 bytes
  7207 ;; Hardware stack levels used:    1
  7208 ;; Hardware stack levels required when called:    1
  7209 ;; This function calls:
  7210 ;;		_LCD_DATO
  7211 ;; This function is called by:
  7212 ;;		_main
  7213 ;; This function uses a non-reentrant model
  7214 ;;
  7215                           psect	text27,local,class=CODE,delta=2,merge=1,group=0
  7216                           	line	71
  7217                           global __ptext27
  7218                           __ptext27:	;psect for function _LCD_CURSOR
  7219  0F2C                     psect	text27
  7220                           	file	"LCD.c"
  7221                           	line	71
  7222                           	global	__size_of_LCD_CURSOR
  7223                           	__size_of_LCD_CURSOR	equ	__end_of_LCD_CURSOR-_LCD_CURSOR
  7224  0033                     	
  7225                           _LCD_CURSOR:	
  7226  0F2C                     ;incstack = 0
  7227                           	opt	stack 6
  7228                           ; Regs used in _LCD_CURSOR: [wreg+status,2+status,0+pclath+cstack]
  7229                           	line	74
  7230                           	
  7231                           l2223:	
  7232  0F2C                     ;LCD.c: 71: void LCD_CURSOR(int a, int b);LCD.c: 72: {;LCD.c: 73:     int d;;LCD.c: 74: 
                                  if(a == 1)
  7233                           		decf	((LCD_CURSOR@a)),w
  7234  0F2C  0374               iorwf	((LCD_CURSOR@a+1)),w
  7235  0F2D  0475               	btfss	status,2
  7236  0F2E  1D03               	goto	u1421
  7237  0F2F  2F31               	goto	u1420
  7238  0F30  2F32               u1421:
  7239  0F31                     	goto	l2229
  7240  0F31  2F44               u1420:
  7241  0F32                     	line	76
  7242                           	
  7243                           l2225:	
  7244  0F32                     ;LCD.c: 75:  {;LCD.c: 76:         d = 0x80 + b - 1;
  7245                           	movf	(LCD_CURSOR@b),w
  7246  0F32  0876               	addlw	low(07Fh)
  7247  0F33  3E7F               	movwf	(LCD_CURSOR@d)
  7248  0F34  00F8               	movf	(LCD_CURSOR@b+1),w
  7249  0F35  0877               	skipnc
  7250  0F36  1803               	addlw	1
  7251  0F37  3E01               	addlw	high(07Fh)
  7252  0F38  3E00               	movwf	1+(LCD_CURSOR@d)
  7253  0F39  00F9               	line	77
  7254                           	
  7255                           l2227:	
  7256  0F3A                     ;LCD.c: 77:   LCD_DATO(d);
  7257                           	movf	(LCD_CURSOR@d+1),w
  7258  0F3A  0879               	movwf	(LCD_DATO@var+1)
  7259  0F3B  00F1               	movf	(LCD_CURSOR@d),w
  7260  0F3C  0878               	movwf	(LCD_DATO@var)
  7261  0F3D  00F0               	fcall	_LCD_DATO
  7262  0F3E  120A  158A  2628  120A  158A  	line	78
  7263                           ;LCD.c: 78:  }
  7264                           	goto	l235
  7265  0F43  2F5E               	line	79
  7266                           ;LCD.c: 79:  else if(a == 2)
  7267                           	
  7268                           l232:	
  7269  0F44                     	
  7270                           l2229:	
  7271  0F44                     		movlw	2
  7272  0F44  3002               	xorwf	((LCD_CURSOR@a)),w
  7273  0F45  0674               iorwf	((LCD_CURSOR@a+1)),w
  7274  0F46  0475               	btfss	status,2
  7275  0F47  1D03               	goto	u1431
  7276  0F48  2F4A               	goto	u1430
  7277  0F49  2F4B               u1431:
  7278  0F4A                     	goto	l235
  7279  0F4A  2F5E               u1430:
  7280  0F4B                     	line	81
  7281                           	
  7282                           l2231:	
  7283  0F4B                     ;LCD.c: 80:  {;LCD.c: 81:   d = 0xC0 + b - 1;
  7284                           	movf	(LCD_CURSOR@b),w
  7285  0F4B  0876               	addlw	low(0BFh)
  7286  0F4C  3EBF               	movwf	(LCD_CURSOR@d)
  7287  0F4D  00F8               	movf	(LCD_CURSOR@b+1),w
  7288  0F4E  0877               	skipnc
  7289  0F4F  1803               	addlw	1
  7290  0F50  3E01               	addlw	high(0BFh)
  7291  0F51  3E00               	movwf	1+(LCD_CURSOR@d)
  7292  0F52  00F9               	line	82
  7293                           	
  7294                           l2233:	
  7295  0F53                     ;LCD.c: 82:   LCD_DATO(d);
  7296                           	movf	(LCD_CURSOR@d+1),w
  7297  0F53  0879               	movwf	(LCD_DATO@var+1)
  7298  0F54  00F1               	movf	(LCD_CURSOR@d),w
  7299  0F55  0878               	movwf	(LCD_DATO@var)
  7300  0F56  00F0               	fcall	_LCD_DATO
  7301  0F57  120A  158A  2628  120A  158A  	goto	l235
  7302  0F5C  2F5E               	line	83
  7303                           ;LCD.c: 83:  }
  7304                           	
  7305                           l234:	
  7306  0F5D                     	goto	l235
  7307  0F5D  2F5E               	
  7308                           l233:	
  7309  0F5E                     	line	84
  7310                           	
  7311                           l235:	
  7312  0F5E                     	return
  7313  0F5E  0008               	opt stack 0
  7314                           GLOBAL	__end_of_LCD_CURSOR
  7315                           	__end_of_LCD_CURSOR:
  7316  0F5F                     	signat	_LCD_CURSOR,8313
  7317                           	global	_LCD_DATO
  7318                           
  7319 ;; *************** function _LCD_DATO *****************
  7320 ;; Defined at:
  7321 ;;		line 61 in file "LCD.c"
  7322 ;; Parameters:    Size  Location     Type
  7323 ;;  var             2    0[COMMON] int 
  7324 ;; Auto vars:     Size  Location     Type
  7325 ;;		None
  7326 ;; Return value:  Size  Location     Type
  7327 ;;                  1    wreg      void 
  7328 ;; Registers used:
  7329 ;;		wreg
  7330 ;; Tracked objects:
  7331 ;;		On entry : 0/0
  7332 ;;		On exit  : 0/0
  7333 ;;		Unchanged: 0/0
  7334 ;; Data sizes:     COMMON   BANK0   BANK1   BANK3   BANK2
  7335 ;;      Params:         2       0       0       0       0
  7336 ;;      Locals:         0       0       0       0       0
  7337 ;;      Temps:          2       0       0       0       0
  7338 ;;      Totals:         4       0       0       0       0
  7339 ;;Total ram usage:        4 bytes
  7340 ;; Hardware stack levels used:    1
  7341 ;; This function calls:
  7342 ;;		Nothing
  7343 ;; This function is called by:
  7344 ;;		_LCD_CURSOR
  7345 ;;		_main
  7346 ;; This function uses a non-reentrant model
  7347 ;;
  7348                           psect	text28,local,class=CODE,delta=2,merge=1,group=0
  7349                           	line	61
  7350                           global __ptext28
  7351                           __ptext28:	;psect for function _LCD_DATO
  7352  0E28                     psect	text28
  7353                           	file	"LCD.c"
  7354                           	line	61
  7355                           	global	__size_of_LCD_DATO
  7356                           	__size_of_LCD_DATO	equ	__end_of_LCD_DATO-_LCD_DATO
  7357  0024                     	
  7358                           _LCD_DATO:	
  7359  0E28                     ;incstack = 0
  7360                           	opt	stack 7
  7361                           ; Regs used in _LCD_DATO: [wreg]
  7362                           	line	62
  7363                           	
  7364                           l2073:	
  7365  0E28                     ;LCD.c: 62:     PORTDbits.RD5 = 0;
  7366                           	bcf	status, 5	;RP0=0, select bank0
  7367  0E28  1283               	bcf	status, 6	;RP1=0, select bank0
  7368  0E29  1303               	bcf	(8),5	;volatile
  7369  0E2A  1288               	line	63
  7370                           	
  7371                           l2075:	
  7372  0E2B                     ;LCD.c: 63:     _delay((unsigned long)((5)*(4000000/4000.0)));
  7373                           	opt asmopt_push
  7374                           opt asmopt_off
  7375                           movlw	7
  7376  0E2B  3007               movwf	((??_LCD_DATO+0)+0+1),f
  7377  0E2C  00F3               	movlw	125
  7378  0E2D  307D               movwf	((??_LCD_DATO+0)+0),f
  7379  0E2E  00F2               	u2027:
  7380  0E2F                     decfsz	((??_LCD_DATO+0)+0),f
  7381  0E2F  0BF2               	goto	u2027
  7382  0E30  2E2F               	decfsz	((??_LCD_DATO+0)+0+1),f
  7383  0E31  0BF3               	goto	u2027
  7384  0E32  2E2F               opt asmopt_pop
  7385                           
  7386                           	line	64
  7387                           	
  7388                           l2077:	
  7389  0E33                     ;LCD.c: 64:     PORTDbits.RD7 = 1;
  7390                           	bcf	status, 5	;RP0=0, select bank0
  7391  0E33  1283               	bcf	status, 6	;RP1=0, select bank0
  7392  0E34  1303               	bsf	(8),7	;volatile
  7393  0E35  1788               	line	65
  7394                           ;LCD.c: 65:     PORTB = var;
  7395                           	movf	(LCD_DATO@var),w
  7396  0E36  0870               	movwf	(6)	;volatile
  7397  0E37  0086               	line	66
  7398                           ;LCD.c: 66:     _delay((unsigned long)((5)*(4000000/4000.0)));
  7399                           	opt asmopt_push
  7400                           opt asmopt_off
  7401                           movlw	7
  7402  0E38  3007               movwf	((??_LCD_DATO+0)+0+1),f
  7403  0E39  00F3               	movlw	125
  7404  0E3A  307D               movwf	((??_LCD_DATO+0)+0),f
  7405  0E3B  00F2               	u2037:
  7406  0E3C                     decfsz	((??_LCD_DATO+0)+0),f
  7407  0E3C  0BF2               	goto	u2037
  7408  0E3D  2E3C               	decfsz	((??_LCD_DATO+0)+0+1),f
  7409  0E3E  0BF3               	goto	u2037
  7410  0E3F  2E3C               opt asmopt_pop
  7411                           
  7412                           	line	67
  7413                           	
  7414                           l2079:	
  7415  0E40                     ;LCD.c: 67:     PORTDbits.RD7 = 0;
  7416                           	bcf	status, 5	;RP0=0, select bank0
  7417  0E40  1283               	bcf	status, 6	;RP1=0, select bank0
  7418  0E41  1303               	bcf	(8),7	;volatile
  7419  0E42  1388               	line	68
  7420                           ;LCD.c: 68:     _delay((unsigned long)((5)*(4000000/4000.0)));
  7421                           	opt asmopt_push
  7422                           opt asmopt_off
  7423                           movlw	7
  7424  0E43  3007               movwf	((??_LCD_DATO+0)+0+1),f
  7425  0E44  00F3               	movlw	125
  7426  0E45  307D               movwf	((??_LCD_DATO+0)+0),f
  7427  0E46  00F2               	u2047:
  7428  0E47                     decfsz	((??_LCD_DATO+0)+0),f
  7429  0E47  0BF2               	goto	u2047
  7430  0E48  2E47               	decfsz	((??_LCD_DATO+0)+0+1),f
  7431  0E49  0BF3               	goto	u2047
  7432  0E4A  2E47               opt asmopt_pop
  7433                           
  7434                           	line	69
  7435                           	
  7436                           l229:	
  7437  0E4B                     	return
  7438  0E4B  0008               	opt stack 0
  7439                           GLOBAL	__end_of_LCD_DATO
  7440                           	__end_of_LCD_DATO:
  7441  0E4C                     	signat	_LCD_DATO,4217
  7442                           	global	_I2C_Master_Init
  7443                           
  7444 ;; *************** function _I2C_Master_Init *****************
  7445 ;; Defined at:
  7446 ;;		line 21 in file "I2C.c"
  7447 ;; Parameters:    Size  Location     Type
  7448 ;;  c               4    0[BANK0 ] const unsigned long 
  7449 ;; Auto vars:     Size  Location     Type
  7450 ;;		None
  7451 ;; Return value:  Size  Location     Type
  7452 ;;                  1    wreg      void 
  7453 ;; Registers used:
  7454 ;;		wreg, status,2, status,0, pclath, cstack
  7455 ;; Tracked objects:
  7456 ;;		On entry : 0/0
  7457 ;;		On exit  : 0/0
  7458 ;;		Unchanged: 0/0
  7459 ;; Data sizes:     COMMON   BANK0   BANK1   BANK3   BANK2
  7460 ;;      Params:         0       4       0       0       0
  7461 ;;      Locals:         0       0       0       0       0
  7462 ;;      Temps:          0       4       0       0       0
  7463 ;;      Totals:         0       8       0       0       0
  7464 ;;Total ram usage:        8 bytes
  7465 ;; Hardware stack levels used:    1
  7466 ;; Hardware stack levels required when called:    1
  7467 ;; This function calls:
  7468 ;;		___lldiv
  7469 ;; This function is called by:
  7470 ;;		_main
  7471 ;; This function uses a non-reentrant model
  7472 ;;
  7473                           psect	text29,local,class=CODE,delta=2,merge=1,group=0
  7474                           	file	"I2C.c"
  7475                           	line	21
  7476                           global __ptext29
  7477                           __ptext29:	;psect for function _I2C_Master_Init
  7478  0FC8                     psect	text29
  7479                           	file	"I2C.c"
  7480                           	line	21
  7481                           	global	__size_of_I2C_Master_Init
  7482                           	__size_of_I2C_Master_Init	equ	__end_of_I2C_Master_Init-_I2C_Master_Init
  7483  0038                     	
  7484                           _I2C_Master_Init:	
  7485  0FC8                     ;incstack = 0
  7486                           	opt	stack 6
  7487                           ; Regs used in _I2C_Master_Init: [wreg+status,2+status,0+pclath+cstack]
  7488                           	line	23
  7489                           	
  7490                           l2201:	
  7491  0FC8                     ;I2C.c: 21: void I2C_Master_Init(const unsigned long c);I2C.c: 22: {;I2C.c: 23:     SSPC
                                 ON = 0b00101000;
  7492                           	movlw	low(028h)
  7493  0FC8  3028               	bcf	status, 5	;RP0=0, select bank0
  7494  0FC9  1283               	bcf	status, 6	;RP1=0, select bank0
  7495  0FCA  1303               	movwf	(20)	;volatile
  7496  0FCB  0094               	line	24
  7497                           	
  7498                           l2203:	
  7499  0FCC                     ;I2C.c: 24:     SSPCON2 = 0;
  7500                           	bsf	status, 5	;RP0=1, select bank1
  7501  0FCC  1683               	bcf	status, 6	;RP1=0, select bank1
  7502  0FCD  1303               	clrf	(145)^080h	;volatile
  7503  0FCE  0191               	line	25
  7504                           	
  7505                           l2205:	
  7506  0FCF                     ;I2C.c: 25:     SSPADD = (4000000/(4*c))-1;
  7507                           	bcf	status, 5	;RP0=0, select bank0
  7508  0FCF  1283               	bcf	status, 6	;RP1=0, select bank0
  7509  0FD0  1303               	movf	(I2C_Master_Init@c),w
  7510  0FD1  0849               	movwf	(??_I2C_Master_Init+0)+0
  7511  0FD2  00CD               	movf	(I2C_Master_Init@c+1),w
  7512  0FD3  084A               	movwf	((??_I2C_Master_Init+0)+0+1)
  7513  0FD4  00CE               	movf	(I2C_Master_Init@c+2),w
  7514  0FD5  084B               	movwf	((??_I2C_Master_Init+0)+0+2)
  7515  0FD6  00CF               	movf	(I2C_Master_Init@c+3),w
  7516  0FD7  084C               	movwf	((??_I2C_Master_Init+0)+0+3)
  7517  0FD8  00D0               	movlw	02h
  7518  0FD9  3002               u1405:
  7519  0FDA                     	clrc
  7520  0FDA  1003               	rlf	(??_I2C_Master_Init+0)+0,f
  7521  0FDB  0DCD               	rlf	(??_I2C_Master_Init+0)+1,f
  7522  0FDC  0DCE               	rlf	(??_I2C_Master_Init+0)+2,f
  7523  0FDD  0DCF               	rlf	(??_I2C_Master_Init+0)+3,f
  7524  0FDE  0DD0               u1400:
  7525  0FDF                     	addlw	-1
  7526  0FDF  3EFF               	skipz
  7527  0FE0  1D03               	goto	u1405
  7528  0FE1  2FDA               	movf	3+(??_I2C_Master_Init+0)+0,w
  7529  0FE2  0850               	movwf	(___lldiv@divisor+3)
  7530  0FE3  00F3               	movf	2+(??_I2C_Master_Init+0)+0,w
  7531  0FE4  084F               	movwf	(___lldiv@divisor+2)
  7532  0FE5  00F2               	movf	1+(??_I2C_Master_Init+0)+0,w
  7533  0FE6  084E               	movwf	(___lldiv@divisor+1)
  7534  0FE7  00F1               	movf	0+(??_I2C_Master_Init+0)+0,w
  7535  0FE8  084D               	movwf	(___lldiv@divisor)
  7536  0FE9  00F0               
  7537                           	movlw	0
  7538  0FEA  3000               	movwf	(___lldiv@dividend+3)
  7539  0FEB  00F7               	movlw	03Dh
  7540  0FEC  303D               	movwf	(___lldiv@dividend+2)
  7541  0FED  00F6               	movlw	09h
  7542  0FEE  3009               	movwf	(___lldiv@dividend+1)
  7543  0FEF  00F5               	movlw	0
  7544  0FF0  3000               	movwf	(___lldiv@dividend)
  7545  0FF1  00F4               
  7546                           	fcall	___lldiv
  7547  0FF2  120A  118A  21AF  120A  158A  	movf	(0+(?___lldiv)),w
  7548  0FF7  0870               	addlw	0FFh
  7549  0FF8  3EFF               	bsf	status, 5	;RP0=1, select bank1
  7550  0FF9  1683               	bcf	status, 6	;RP1=0, select bank1
  7551  0FFA  1303               	movwf	(147)^080h	;volatile
  7552  0FFB  0093               	line	26
  7553                           	
  7554                           l2207:	
  7555  0FFC                     ;I2C.c: 26:     SSPSTAT = 0;
  7556                           	clrf	(148)^080h	;volatile
  7557  0FFC  0194               	line	27
  7558                           	
  7559                           l2209:	
  7560  0FFD                     ;I2C.c: 27:     TRISCbits.TRISC3 = 1;
  7561                           	bsf	(135)^080h,3	;volatile
  7562  0FFD  1587               	line	28
  7563                           	
  7564                           l2211:	
  7565  0FFE                     ;I2C.c: 28:     TRISCbits.TRISC4 = 1;
  7566                           	bsf	(135)^080h,4	;volatile
  7567  0FFE  1607               	line	29
  7568                           	
  7569                           l49:	
  7570  0FFF                     	return
  7571  0FFF  0008               	opt stack 0
  7572                           GLOBAL	__end_of_I2C_Master_Init
  7573                           	__end_of_I2C_Master_Init:
  7574  1000                     	signat	_I2C_Master_Init,4217
  7575                           	global	___lldiv
  7576                           
  7577 ;; *************** function ___lldiv *****************
  7578 ;; Defined at:
  7579 ;;		line 5 in file "C:\Program Files (x86)\Microchip\xc8\v2.00\pic\sources\c90\common\__lldiv.c"
  7580 ;; Parameters:    Size  Location     Type
  7581 ;;  divisor         4    0[COMMON] unsigned long 
  7582 ;;  dividend        4    4[COMMON] unsigned long 
  7583 ;; Auto vars:     Size  Location     Type
  7584 ;;  quotient        4    9[COMMON] unsigned long 
  7585 ;;  counter         1   13[COMMON] unsigned char 
  7586 ;; Return value:  Size  Location     Type
  7587 ;;                  4    0[COMMON] unsigned long 
  7588 ;; Registers used:
  7589 ;;		wreg, status,2, status,0
  7590 ;; Tracked objects:
  7591 ;;		On entry : 0/0
  7592 ;;		On exit  : 0/0
  7593 ;;		Unchanged: 0/0
  7594 ;; Data sizes:     COMMON   BANK0   BANK1   BANK3   BANK2
  7595 ;;      Params:         8       0       0       0       0
  7596 ;;      Locals:         5       0       0       0       0
  7597 ;;      Temps:          1       0       0       0       0
  7598 ;;      Totals:        14       0       0       0       0
  7599 ;;Total ram usage:       14 bytes
  7600 ;; Hardware stack levels used:    1
  7601 ;; This function calls:
  7602 ;;		Nothing
  7603 ;; This function is called by:
  7604 ;;		_I2C_Master_Init
  7605 ;; This function uses a non-reentrant model
  7606 ;;
  7607                           psect	text30,local,class=CODE,delta=2,merge=1,group=1
  7608                           	file	"C:\Program Files (x86)\Microchip\xc8\v2.00\pic\sources\c90\common\__lldiv.c"
  7609                           	line	5
  7610                           global __ptext30
  7611                           __ptext30:	;psect for function ___lldiv
  7612  01AF                     psect	text30
  7613                           	file	"C:\Program Files (x86)\Microchip\xc8\v2.00\pic\sources\c90\common\__lldiv.c"
  7614                           	line	5
  7615                           	global	__size_of___lldiv
  7616                           	__size_of___lldiv	equ	__end_of___lldiv-___lldiv
  7617  006D                     	
  7618                           ___lldiv:	
  7619  01AF                     ;incstack = 0
  7620                           	opt	stack 6
  7621                           ; Regs used in ___lldiv: [wreg+status,2+status,0]
  7622                           	line	13
  7623                           	
  7624                           l2129:	
  7625  01AF                     	movlw	high highword(0)
  7626  01AF  3000               	movwf	(___lldiv@quotient+3)
  7627  01B0  00FC               	movlw	low highword(0)
  7628  01B1  3000               	movwf	(___lldiv@quotient+2)
  7629  01B2  00FB               	movlw	high(0)
  7630  01B3  3000               	movwf	(___lldiv@quotient+1)
  7631  01B4  00FA               	movlw	low(0)
  7632  01B5  3000               	movwf	(___lldiv@quotient)
  7633  01B6  00F9               
  7634                           	line	14
  7635                           	movf	(___lldiv@divisor+3),w
  7636  01B7  0873               	iorwf	(___lldiv@divisor+2),w
  7637  01B8  0472               	iorwf	(___lldiv@divisor+1),w
  7638  01B9  0471               	iorwf	(___lldiv@divisor),w
  7639  01BA  0470               	skipnz
  7640  01BB  1903               	goto	u1201
  7641  01BC  29BE               	goto	u1200
  7642  01BD  29BF               u1201:
  7643  01BE                     	goto	l2149
  7644  01BE  2A12               u1200:
  7645  01BF                     	line	15
  7646                           	
  7647                           l2131:	
  7648  01BF                     	clrf	(___lldiv@counter)
  7649  01BF  01FD               	incf	(___lldiv@counter),f
  7650  01C0  0AFD               	line	16
  7651                           	goto	l2135
  7652  01C1  29D0               	
  7653                           l613:	
  7654  01C2                     	line	17
  7655                           	
  7656                           l2133:	
  7657  01C2                     	movlw	01h
  7658  01C2  3001               	movwf	(??___lldiv+0)+0
  7659  01C3  00F8               u1215:
  7660  01C4                     	clrc
  7661  01C4  1003               	rlf	(___lldiv@divisor),f
  7662  01C5  0DF0               	rlf	(___lldiv@divisor+1),f
  7663  01C6  0DF1               	rlf	(___lldiv@divisor+2),f
  7664  01C7  0DF2               	rlf	(___lldiv@divisor+3),f
  7665  01C8  0DF3               	decfsz	(??___lldiv+0)+0
  7666  01C9  0BF8               	goto	u1215
  7667  01CA  29C4               	line	18
  7668                           	movlw	low(01h)
  7669  01CB  3001               	movwf	(??___lldiv+0)+0
  7670  01CC  00F8               	movf	(??___lldiv+0)+0,w
  7671  01CD  0878               	addwf	(___lldiv@counter),f
  7672  01CE  07FD               	goto	l2135
  7673  01CF  29D0               	line	19
  7674                           	
  7675                           l612:	
  7676  01D0                     	line	16
  7677                           	
  7678                           l2135:	
  7679  01D0                     	btfss	(___lldiv@divisor+3),(31)&7
  7680  01D0  1FF3               	goto	u1221
  7681  01D1  29D3               	goto	u1220
  7682  01D2  29D4               u1221:
  7683  01D3                     	goto	l2133
  7684  01D3  29C2               u1220:
  7685  01D4                     	goto	l2137
  7686  01D4  29D6               	
  7687                           l614:	
  7688  01D5                     	goto	l2137
  7689  01D5  29D6               	line	20
  7690                           	
  7691                           l615:	
  7692  01D6                     	line	21
  7693                           	
  7694                           l2137:	
  7695  01D6                     	movlw	01h
  7696  01D6  3001               	movwf	(??___lldiv+0)+0
  7697  01D7  00F8               u1235:
  7698  01D8                     	clrc
  7699  01D8  1003               	rlf	(___lldiv@quotient),f
  7700  01D9  0DF9               	rlf	(___lldiv@quotient+1),f
  7701  01DA  0DFA               	rlf	(___lldiv@quotient+2),f
  7702  01DB  0DFB               	rlf	(___lldiv@quotient+3),f
  7703  01DC  0DFC               	decfsz	(??___lldiv+0)+0
  7704  01DD  0BF8               	goto	u1235
  7705  01DE  29D8               	line	22
  7706                           	
  7707                           l2139:	
  7708  01DF                     	movf	(___lldiv@divisor+3),w
  7709  01DF  0873               	subwf	(___lldiv@dividend+3),w
  7710  01E0  0277               	skipz
  7711  01E1  1D03               	goto	u1245
  7712  01E2  29ED               	movf	(___lldiv@divisor+2),w
  7713  01E3  0872               	subwf	(___lldiv@dividend+2),w
  7714  01E4  0276               	skipz
  7715  01E5  1D03               	goto	u1245
  7716  01E6  29ED               	movf	(___lldiv@divisor+1),w
  7717  01E7  0871               	subwf	(___lldiv@dividend+1),w
  7718  01E8  0275               	skipz
  7719  01E9  1D03               	goto	u1245
  7720  01EA  29ED               	movf	(___lldiv@divisor),w
  7721  01EB  0870               	subwf	(___lldiv@dividend),w
  7722  01EC  0274               u1245:
  7723  01ED                     	skipc
  7724  01ED  1C03               	goto	u1241
  7725  01EE  29F0               	goto	u1240
  7726  01EF  29F1               u1241:
  7727  01F0                     	goto	l2145
  7728  01F0  2A01               u1240:
  7729  01F1                     	line	23
  7730                           	
  7731                           l2141:	
  7732  01F1                     	movf	(___lldiv@divisor),w
  7733  01F1  0870               	subwf	(___lldiv@dividend),f
  7734  01F2  02F4               	movf	(___lldiv@divisor+1),w
  7735  01F3  0871               	skipc
  7736  01F4  1C03               	incfsz	(___lldiv@divisor+1),w
  7737  01F5  0F71               	subwf	(___lldiv@dividend+1),f
  7738  01F6  02F5               	movf	(___lldiv@divisor+2),w
  7739  01F7  0872               	skipc
  7740  01F8  1C03               	incfsz	(___lldiv@divisor+2),w
  7741  01F9  0F72               	subwf	(___lldiv@dividend+2),f
  7742  01FA  02F6               	movf	(___lldiv@divisor+3),w
  7743  01FB  0873               	skipc
  7744  01FC  1C03               	incfsz	(___lldiv@divisor+3),w
  7745  01FD  0F73               	subwf	(___lldiv@dividend+3),f
  7746  01FE  02F7               	line	24
  7747                           	
  7748                           l2143:	
  7749  01FF                     	bsf	(___lldiv@quotient)+(0/8),(0)&7
  7750  01FF  1479               	goto	l2145
  7751  0200  2A01               	line	25
  7752                           	
  7753                           l616:	
  7754  0201                     	line	26
  7755                           	
  7756                           l2145:	
  7757  0201                     	movlw	01h
  7758  0201  3001               u1255:
  7759  0202                     	clrc
  7760  0202  1003               	rrf	(___lldiv@divisor+3),f
  7761  0203  0CF3               	rrf	(___lldiv@divisor+2),f
  7762  0204  0CF2               	rrf	(___lldiv@divisor+1),f
  7763  0205  0CF1               	rrf	(___lldiv@divisor),f
  7764  0206  0CF0               	addlw	-1
  7765  0207  3EFF               	skipz
  7766  0208  1D03               	goto	u1255
  7767  0209  2A02               
  7768                           	line	27
  7769                           	
  7770                           l2147:	
  7771  020A                     	movlw	01h
  7772  020A  3001               	subwf	(___lldiv@counter),f
  7773  020B  02FD               	btfss	status,2
  7774  020C  1D03               	goto	u1261
  7775  020D  2A0F               	goto	u1260
  7776  020E  2A10               u1261:
  7777  020F                     	goto	l2137
  7778  020F  29D6               u1260:
  7779  0210                     	goto	l2149
  7780  0210  2A12               	
  7781                           l617:	
  7782  0211                     	goto	l2149
  7783  0211  2A12               	line	28
  7784                           	
  7785                           l611:	
  7786  0212                     	line	29
  7787                           	
  7788                           l2149:	
  7789  0212                     	movf	(___lldiv@quotient+3),w
  7790  0212  087C               	movwf	(?___lldiv+3)
  7791  0213  00F3               	movf	(___lldiv@quotient+2),w
  7792  0214  087B               	movwf	(?___lldiv+2)
  7793  0215  00F2               	movf	(___lldiv@quotient+1),w
  7794  0216  087A               	movwf	(?___lldiv+1)
  7795  0217  00F1               	movf	(___lldiv@quotient),w
  7796  0218  0879               	movwf	(?___lldiv)
  7797  0219  00F0               
  7798                           	goto	l618
  7799  021A  2A1B               	
  7800                           l2151:	
  7801  021B                     	line	30
  7802                           	
  7803                           l618:	
  7804  021B                     	return
  7805  021B  0008               	opt stack 0
  7806                           GLOBAL	__end_of___lldiv
  7807                           	__end_of___lldiv:
  7808  021C                     	signat	___lldiv,8316
  7809                           	global	_BCD2UpperCh
  7810                           
  7811 ;; *************** function _BCD2UpperCh *****************
  7812 ;; Defined at:
  7813 ;;		line 54 in file "Pri-Master.c"
  7814 ;; Parameters:    Size  Location     Type
  7815 ;;  bcd             1    wreg     unsigned char 
  7816 ;; Auto vars:     Size  Location     Type
  7817 ;;  bcd             1    1[COMMON] unsigned char 
  7818 ;; Return value:  Size  Location     Type
  7819 ;;                  1    wreg      unsigned char 
  7820 ;; Registers used:
  7821 ;;		wreg, status,2, status,0
  7822 ;; Tracked objects:
  7823 ;;		On entry : 0/0
  7824 ;;		On exit  : 0/0
  7825 ;;		Unchanged: 0/0
  7826 ;; Data sizes:     COMMON   BANK0   BANK1   BANK3   BANK2
  7827 ;;      Params:         0       0       0       0       0
  7828 ;;      Locals:         1       0       0       0       0
  7829 ;;      Temps:          1       0       0       0       0
  7830 ;;      Totals:         2       0       0       0       0
  7831 ;;Total ram usage:        2 bytes
  7832 ;; Hardware stack levels used:    1
  7833 ;; This function calls:
  7834 ;;		Nothing
  7835 ;; This function is called by:
  7836 ;;		_main
  7837 ;; This function uses a non-reentrant model
  7838 ;;
  7839                           psect	text31,local,class=CODE,delta=2,merge=1,group=0
  7840                           	file	"Pri-Master.c"
  7841                           	line	54
  7842                           global __ptext31
  7843                           __ptext31:	;psect for function _BCD2UpperCh
  7844  0D6F                     psect	text31
  7845                           	file	"Pri-Master.c"
  7846                           	line	54
  7847                           	global	__size_of_BCD2UpperCh
  7848                           	__size_of_BCD2UpperCh	equ	__end_of_BCD2UpperCh-_BCD2UpperCh
  7849  000D                     	
  7850                           _BCD2UpperCh:	
  7851  0D6F                     ;incstack = 0
  7852                           	opt	stack 7
  7853                           ; Regs used in _BCD2UpperCh: [wreg+status,2+status,0]
  7854                           ;BCD2UpperCh@bcd stored from wreg
  7855                           	movwf	(BCD2UpperCh@bcd)
  7856  0D6F  00F1               	line	56
  7857                           	
  7858                           l2249:	
  7859  0D70                     ;Pri-Master.c: 54: unsigned char BCD2UpperCh(unsigned char bcd);Pri-Master.c: 55: {;Pri-
                                 Master.c: 56:   return ((bcd >> 4) + '0');
  7860                           	movf	(BCD2UpperCh@bcd),w
  7861  0D70  0871               	movwf	(??_BCD2UpperCh+0)+0
  7862  0D71  00F0               	movlw	04h
  7863  0D72  3004               u1475:
  7864  0D73                     	clrc
  7865  0D73  1003               	rrf	(??_BCD2UpperCh+0)+0,f
  7866  0D74  0CF0               	addlw	-1
  7867  0D75  3EFF               	skipz
  7868  0D76  1D03               	goto	u1475
  7869  0D77  2D73               	movf	0+(??_BCD2UpperCh+0)+0,w
  7870  0D78  0870               	addlw	030h
  7871  0D79  3E30               	goto	l314
  7872  0D7A  2D7B               	
  7873                           l2251:	
  7874  0D7B                     	line	57
  7875                           	
  7876                           l314:	
  7877  0D7B                     	return
  7878  0D7B  0008               	opt stack 0
  7879                           GLOBAL	__end_of_BCD2UpperCh
  7880                           	__end_of_BCD2UpperCh:
  7881  0D7C                     	signat	_BCD2UpperCh,4217
  7882                           	global	_BCD2LowerCh
  7883                           
  7884 ;; *************** function _BCD2LowerCh *****************
  7885 ;; Defined at:
  7886 ;;		line 59 in file "Pri-Master.c"
  7887 ;; Parameters:    Size  Location     Type
  7888 ;;  bcd             1    wreg     unsigned char 
  7889 ;; Auto vars:     Size  Location     Type
  7890 ;;  bcd             1    0[COMMON] unsigned char 
  7891 ;; Return value:  Size  Location     Type
  7892 ;;                  1    wreg      unsigned char 
  7893 ;; Registers used:
  7894 ;;		wreg, status,2, status,0
  7895 ;; Tracked objects:
  7896 ;;		On entry : 0/0
  7897 ;;		On exit  : 0/0
  7898 ;;		Unchanged: 0/0
  7899 ;; Data sizes:     COMMON   BANK0   BANK1   BANK3   BANK2
  7900 ;;      Params:         0       0       0       0       0
  7901 ;;      Locals:         1       0       0       0       0
  7902 ;;      Temps:          0       0       0       0       0
  7903 ;;      Totals:         1       0       0       0       0
  7904 ;;Total ram usage:        1 bytes
  7905 ;; Hardware stack levels used:    1
  7906 ;; This function calls:
  7907 ;;		Nothing
  7908 ;; This function is called by:
  7909 ;;		_main
  7910 ;; This function uses a non-reentrant model
  7911 ;;
  7912                           psect	text32,local,class=CODE,delta=2,merge=1,group=0
  7913                           	line	59
  7914                           global __ptext32
  7915                           __ptext32:	;psect for function _BCD2LowerCh
  7916  0D30                     psect	text32
  7917                           	file	"Pri-Master.c"
  7918                           	line	59
  7919                           	global	__size_of_BCD2LowerCh
  7920                           	__size_of_BCD2LowerCh	equ	__end_of_BCD2LowerCh-_BCD2LowerCh
  7921  0006                     	
  7922                           _BCD2LowerCh:	
  7923  0D30                     ;incstack = 0
  7924                           	opt	stack 7
  7925                           ; Regs used in _BCD2LowerCh: [wreg+status,2+status,0]
  7926                           ;BCD2LowerCh@bcd stored from wreg
  7927                           	movwf	(BCD2LowerCh@bcd)
  7928  0D30  00F0               	line	61
  7929                           	
  7930                           l2253:	
  7931  0D31                     ;Pri-Master.c: 59: unsigned char BCD2LowerCh(unsigned char bcd);Pri-Master.c: 60: {;Pri-
                                 Master.c: 61:   return ((bcd & 0x0F) + '0');
  7932                           	movf	(BCD2LowerCh@bcd),w
  7933  0D31  0870               	andlw	0Fh
  7934  0D32  390F               	addlw	030h
  7935  0D33  3E30               	goto	l317
  7936  0D34  2D35               	
  7937                           l2255:	
  7938  0D35                     	line	62
  7939                           	
  7940                           l317:	
  7941  0D35                     	return
  7942  0D35  0008               	opt stack 0
  7943                           GLOBAL	__end_of_BCD2LowerCh
  7944                           	__end_of_BCD2LowerCh:
  7945  0D36                     	signat	_BCD2LowerCh,4217
  7946                           global	___latbits
  7947                           ___latbits	equ	2
  7948  0002                     	global	btemp
  7949                           	btemp set 07Eh
  7950  007E                     
  7951                           	DABS	1,126,2	;btemp
  7952                           	global	wtemp0
  7953                           	wtemp0 set btemp+0
  7954  007E                     	end


Data Sizes:
    Strings     53
    Constant    10
    Data        54
    BSS         57
    Persistent  0
    Stack       0

Auto Spaces:
    Space          Size  Autos    Used
    COMMON           14     14      14
    BANK0            80     25      78
    BANK1            80      0      58
    BANK3            96      0       0
    BANK2            96      0       0

Pointer List with Targets:

    atoi@s	PTR const unsigned char  size(1) Largest target is 1
		 -> valorf(BANK0[1]), 

    sprintf@f	PTR const unsigned char  size(1) Largest target is 25
		 -> STR_3(CODE[25]), 

    sprintf@sp	PTR unsigned char  size(1) Largest target is 16
		 -> valor(BANK1[16]), 

    sprintf@ap	PTR void [1] size(1) Largest target is 2
		 -> ?_sprintf(BANK0[2]), 

    LCD_STRING@a	PTR unsigned char  size(2) Largest target is 16
		 -> valor(BANK1[16]), time(BANK0[12]), STR_2(CODE[16]), STR_1(CODE[12]), 


Critical Paths under _main in COMMON

    _main->_atoi
    _sprintf->___lwmod
    ___lwmod->___lwdiv
    _read_ds1307->_I2C_Master_Read
    _lcd_init->_lcd_cmd
    _lcd_cmd->_lcd_ready
    _lcd_ready->_delay
    _lcd_lat->_delay
    _atoi->___wmul
    _LCD_STRING->_LCD_CHAR
    _LCD_CURSOR->_LCD_DATO
    _I2C_Master_Init->___lldiv

Critical Paths under _main in BANK0

    _main->_sprintf

Critical Paths under _main in BANK1

    None.

Critical Paths under _main in BANK3

    None.

Critical Paths under _main in BANK2

    None.

Call Graph Tables:

 ---------------------------------------------------------------------------------
 (Depth) Function   	        Calls       Base Space   Used Autos Params    Refs
 ---------------------------------------------------------------------------------
 (0) _main                                                 4     4      0   10416
                                             21 BANK0      4     4      0
                        _BCD2LowerCh
                        _BCD2UpperCh
                    _I2C_Master_Init
                    _I2C_Master_Read
                   _I2C_Master_Start
                    _I2C_Master_Stop
                   _I2C_Master_Write
                         _LCD_CURSOR
                           _LCD_DATO
                         _LCD_STRING
                     _PasoCompSimple
                               _atoi
                             _config
                              _delay
                           _lcd_init
                             _mandar
                        _read_ds1307
                             _servo0
                           _servo180
                            _sprintf
 ---------------------------------------------------------------------------------
 (1) _sprintf                                             29    18     11    1696
                                              0 BANK0     21    10     11
                             ___bmul
                            ___lwdiv
                            ___lwmod
                            _isdigit
 ---------------------------------------------------------------------------------
 (2) ___lwmod                                              6     2      4     311
                                              8 COMMON     6     2      4
                            ___lwdiv (ARG)
 ---------------------------------------------------------------------------------
 (2) ___lwdiv                                              8     4      4     314
                                              0 COMMON     8     4      4
 ---------------------------------------------------------------------------------
 (2) ___bmul                                               4     3      1     168
                                              0 COMMON     4     3      1
 ---------------------------------------------------------------------------------
 (1) _servo180                                             4     4      0      46
                                              0 COMMON     4     4      0
 ---------------------------------------------------------------------------------
 (1) _servo0                                               4     4      0      46
                                              0 COMMON     4     4      0
 ---------------------------------------------------------------------------------
 (1) _read_ds1307                                          4     2      2    2392
                                              6 COMMON     4     2      2
                    _I2C_Master_Read
           _I2C_Master_RepeatedStart
                   _I2C_Master_Start
                    _I2C_Master_Stop
                   _I2C_Master_Write
 ---------------------------------------------------------------------------------
 (2) _I2C_Master_Write                                     2     0      2    1466
                                              0 COMMON     2     0      2
                    _I2C_Master_Wait
 ---------------------------------------------------------------------------------
 (2) _I2C_Master_Stop                                      0     0      0       0
                    _I2C_Master_Wait
 ---------------------------------------------------------------------------------
 (2) _I2C_Master_Start                                     0     0      0       0
                    _I2C_Master_Wait
 ---------------------------------------------------------------------------------
 (2) _I2C_Master_RepeatedStart                             0     0      0       0
                    _I2C_Master_Wait
 ---------------------------------------------------------------------------------
 (2) _I2C_Master_Read                                      6     4      2     349
                                              0 COMMON     6     4      2
                    _I2C_Master_Wait
 ---------------------------------------------------------------------------------
 (3) _I2C_Master_Wait                                      0     0      0       0
 ---------------------------------------------------------------------------------
 (1) _mandar                                               2     0      2     478
                                              0 COMMON     2     0      2
 ---------------------------------------------------------------------------------
 (1) _lcd_init                                             0     0      0     814
                            _lcd_cmd
 ---------------------------------------------------------------------------------
 (2) _lcd_cmd                                              1     1      0     814
                                              7 COMMON     1     1      0
                            _lcd_lat
                          _lcd_ready
 ---------------------------------------------------------------------------------
 (3) _lcd_ready                                            1     1      0     396
                                              6 COMMON     1     1      0
                              _delay
 ---------------------------------------------------------------------------------
 (3) _lcd_lat                                              0     0      0     396
                              _delay
 ---------------------------------------------------------------------------------
 (4) _delay                                                6     4      2     396
                                              0 COMMON     6     4      2
 ---------------------------------------------------------------------------------
 (1) _config                                               0     0      0       0
 ---------------------------------------------------------------------------------
 (1) _atoi                                                 8     6      2     725
                                              6 COMMON     8     6      2
                             ___wmul
                            _isdigit
 ---------------------------------------------------------------------------------
 (2) _isdigit                                              2     2      0      68
                                              0 COMMON     2     2      0
 ---------------------------------------------------------------------------------
 (2) ___wmul                                               6     2      4     396
                                              0 COMMON     6     2      4
 ---------------------------------------------------------------------------------
 (1) _PasoCompSimple                                       2     2      0       0
                                              0 COMMON     2     2      0
 ---------------------------------------------------------------------------------
 (1) _LCD_STRING                                           7     5      2     416
                                              2 COMMON     7     5      2
                           _LCD_CHAR
 ---------------------------------------------------------------------------------
 (2) _LCD_CHAR                                             2     2      0      22
                                              0 COMMON     2     2      0
 ---------------------------------------------------------------------------------
 (1) _LCD_CURSOR                                           6     2      4     764
                                              4 COMMON     6     2      4
                           _LCD_DATO
 ---------------------------------------------------------------------------------
 (1) _LCD_DATO                                             4     2      2     326
                                              0 COMMON     4     2      2
 ---------------------------------------------------------------------------------
 (1) _I2C_Master_Init                                      8     4      4     412
                                              0 BANK0      8     4      4
                            ___lldiv
 ---------------------------------------------------------------------------------
 (2) ___lldiv                                             14     6      8     314
                                              0 COMMON    14     6      8
 ---------------------------------------------------------------------------------
 (1) _BCD2UpperCh                                          2     2      0      22
                                              0 COMMON     2     2      0
 ---------------------------------------------------------------------------------
 (1) _BCD2LowerCh                                          1     1      0      22
                                              0 COMMON     1     1      0
 ---------------------------------------------------------------------------------
 Estimated maximum stack depth 4
 ---------------------------------------------------------------------------------

 Call Graph Graphs:

 _main (ROOT)
   _BCD2LowerCh
   _BCD2UpperCh
   _I2C_Master_Init
     ___lldiv
   _I2C_Master_Read
     _I2C_Master_Wait
   _I2C_Master_Start
     _I2C_Master_Wait
   _I2C_Master_Stop
     _I2C_Master_Wait
   _I2C_Master_Write
     _I2C_Master_Wait
   _LCD_CURSOR
     _LCD_DATO
   _LCD_DATO
   _LCD_STRING
     _LCD_CHAR
   _PasoCompSimple
   _atoi
     ___wmul
     _isdigit
   _config
   _delay
   _lcd_init
     _lcd_cmd
       _lcd_lat
         _delay
       _lcd_ready
         _delay
   _mandar
   _read_ds1307
     _I2C_Master_Read
       _I2C_Master_Wait
     _I2C_Master_RepeatedStart
       _I2C_Master_Wait
     _I2C_Master_Start
       _I2C_Master_Wait
     _I2C_Master_Stop
       _I2C_Master_Wait
     _I2C_Master_Write
       _I2C_Master_Wait
   _servo0
   _servo180
   _sprintf
     ___bmul
     ___lwdiv
     ___lwmod
       ___lwdiv (ARG)
     _isdigit

 Address spaces:
Name               Size   Autos  Total    Cost      Usage
BANK3               60      0       0       9        0.0%
BITBANK3            60      0       0       8        0.0%
SFR3                 0      0       0       4        0.0%
BITSFR3              0      0       0       4        0.0%
BANK2               60      0       0      11        0.0%
BITBANK2            60      0       0      10        0.0%
SFR2                 0      0       0       5        0.0%
BITSFR2              0      0       0       5        0.0%
BANK1               50      0      3A       7       72.5%
BITBANK1            50      0       0       6        0.0%
SFR1                 0      0       0       2        0.0%
BITSFR1              0      0       0       2        0.0%
BANK0               50     19      4E       5       97.5%
BITBANK0            50      0       0       4        0.0%
SFR0                 0      0       0       1        0.0%
BITSFR0              0      0       0       1        0.0%
COMMON               E      E       E       1      100.0%
BITCOMMON            E      0       0       0        0.0%
CODE                 0      0       0       0        0.0%
DATA                 0      0      96      12        0.0%
ABS                  0      0      96       3        0.0%
NULL                 0      0       0       0        0.0%
STACK                0      0       0       2        0.0%
EEDATA             100      0       0       0        0.0%


Microchip Technology PIC Macro Assembler V2.00 build -1524193055 
Symbol Table                                                                                   Sat May 09 20:20:30 2020

                      LCD_CURSOR@a 0074                        LCD_CURSOR@b 0076  
                      LCD_CURSOR@d 0078                                  pc 0002  
                   ___bmul@product 0072                        __CFG_CP$OFF 0000  
                      _SSPSTATbits 0094                                 _BF 04A0  
                               l52 0D99                                 l53 0D99  
                               l61 0D46                                 l54 0DA6  
                               l70 0EF0                                 l55 0DA6  
                               l71 0EF3                                 l72 0EF9  
                               l64 0D58                                 l49 0FFF  
                               l58 0D4F                                 l67 0D62  
                               _ap 0020                                 _hr 002A  
                               fsr 0004                ___wmul@multiplicand 0072  
                              l210 0EC9                                l211 0ECA  
                              l212 0ECA                                l221 0F07  
                              l222 0F2B                                l223 0F10  
                              l207 0DB6                                l215 0DC8  
                              l311 00A1                                l232 0F44  
                              l224 0F0A                                l400 07CB  
                              l233 0F5E                                l241 0146  
                              l225 0F1B                                l401 07CD  
                              l314 0D7B                                l234 0F5D  
                              l242 0123                                l226 0F2B  
                              l218 0E27                                l402 07CE  
                              l235 0F5E                                l243 0163  
                              l411 0FA0                                l403 07CE  
                              l244 0163                                l412 0FC7  
                              l317 0D35                                l229 0E4B  
                              l413 0FC7                                l238 0D97  
                              l406 0F6C                                l431 0065  
                              l407 0F92                                l416 00DE  
                              l408 0F92                                l434 0D7D  
                              l611 0212                                l435 0D7D  
                              l612 01D0                                l436 0D84  
                              l380 0743                                l613 01C2  
                              l437 0D88                                l605 0DF3  
                              l381 06BC                                l614 01D5  
                              l606 0DFC                                l550 0412  
                              l390 076C                                l382 06D2  
                              l374 0481                                l615 01D6  
                              l607 0E06                                l551 02A9  
                              l391 0771                                l383 06E8  
                              l375 0646                                l616 0201  
                              l608 0E08                                l560 0426  
                              l552 02BB                                l392 078A  
                              l384 06FE                                l376 064F  
                              l617 0211                                l561 0306  
                              l553 0300                                l385 0714  
                              l377 06A7                                l618 021B  
                              l570 039C                                l562 0307  
                              l554 02EE                                l394 0785  
                              l386 0756                                l378 072B  
                              l571 03B8                                l563 0329  
                              l555 02CE                                l395 078F  
                              l387 0757                                l379 06A8  
                              l572 03B7                                l564 0308  
                              l556 02FF                                l396 0797  
                              l388 0762                                l581 0E4F  
                              l573 03CC                                l565 0343  
                              l557 0304                                l397 0799  
                              l389 0765                                l582 0E59  
                              l574 0407                                l566 0353  
                              l558 030A                                l398 07CC  
                              l583 0E6E                                l575 03CD  
                              l567 035D                                l559 0305  
                              l399 07B0                                l584 0E73  
                              l576 0411                                l568 0385  
                              l577 0425                                l569 037A  
                              l850 0180                                l578 042B  
                              l851 0181                                l852 019A  
                              l860 00F9                                l853 01A8  
                              l861 00FA                                l854 01AE  
                              l862 010B                                l847 01A9  
                              l863 0119                                l848 017B  
                              l864 011F                                l849 016F  
                              l857 011A                                l858 00F4  
                              l859 00E8                                _GIE 005F  
                              _PEN 048A                       __CFG_CPD$OFF 0000  
                              _SEN 0488                                _ala 0034  
                              _day 0028                                _var 0032  
                              fsr0 0004                                indf 0000  
                      LCD_STRING@a 0072                        LCD_STRING@n 0077  
                     __CFG_LVP$OFF 0000                               l1010 0223  
                             l1011 021E                               l1020 02A0  
                             l1012 0235                               l1013 0249  
                             l1014 0257                               l1015 0256  
                             l1024 0DED                               l1016 027C  
                             l1025 0DEF                               l1017 0258  
                             l2001 0D9F                               l1018 0289  
                             l1019 029B                               l2003 0DA7  
                             l2011 0EA2                               l2101 0E4C  
                             l2005 0DAA                               l2021 0EB2  
                             l2013 0EA6                               l2111 0E6E  
                             l2103 0E4F                               l2007 0DB3  
                             l2023 0EB5                               l2015 0EA7  
                             l2031 0D47                               l2201 0FC8  
                             l2113 0E73                               l2105 0E53  
                             l2025 0EBB                               l2017 0EA8  
                             l2009 0E9E                               l2033 0D4C  
                             l2041 0D55                               l2121 0DFC  
                             l2131 01BF                               l2211 0FFE  
                             l2203 0FCC                               l2107 0E60  
                             l2027 0EBC                               l2019 0EA9  
                             l2051 0ED8                               l2035 0D3E  
                             l2043 0D59                               l2123 0DFE  
                             l2115 0DF1                               l2141 01F1  
                             l2133 01C2                               l2205 0FCF  
                             l2109 0E67                               l2301 02A0  
                             l2029 0EC5                               l2221 0E09  
                             l2061 0EF9                               l2053 0EE1  
                             l2037 0D43                               l2045 0D5E  
                             l2125 0E06                               l2117 0DF3  
                             l2151 021B                               l2143 01FF  
                             l2135 01D0                               l2207 0FFC  
                             l2231 0F4B                               l2223 0F2C  
                             l2071 0DC3                               l2063 0DB8  
                             l2055 0EE6                               l2047 0ECB  
                             l2039 0D50                               l2127 0E08  
                             l2119 0DF7                               l2311 02BB  
                             l2303 02A4                               l2145 0201  
                             l2137 01D6                               l2129 01AF  
                             l2209 0FFD                               l2073 0E28  
                             l2233 0F53                               l2225 0F32  
                             l2081 0D8A                               l2241 0146  
                             l2065 0DBD                               l2057 0EEC  
                             l2049 0ED0                               l2401 0F76  
                             l2161 0176                               l2153 0164  
                             l2321 02E9                               l2313 02BC  
                             l2305 02A9                               l2251 0D7B  
                             l2147 020A                               l2139 01DF  
                             l2075 0E2B                               l2227 0F3A  
                             l2083 0D8D                               l2235 0120  
                             l2091 0DDE                               l2067 0DC1  
                             l2059 0EF4                               l2243 0066  
                             l2411 0FAC                               l2403 0F93  
                             l2171 019A                               l2163 017B  
                             l2155 0166                               l2331 0329  
                             l2323 02EE                               l2315 02C8  
                             l2307 02AF                               l2253 0D31  
                             l2149 0212                               l2077 0E33  
                             l2229 0F44                               l2085 0D8F  
                             l2237 0123                               l2421 00B5  
                             l2413 00A2                               l2093 0DE4  
                             l2261 005D                               l2069 0DC2  
                             l2245 009C                               l2405 0F95  
                             l2173 01A1                               l2165 0181  
                             l2157 016C                               l2181 00E5  
                             l2341 0343                               l2333 0331  
                             l2317 02CC                               l2325 0300  
                             l2309 02B6                               l2501 0522  
                             l2255 0D35                               l2079 0E40  
                             l2087 0D94                               l2239 013F  
                             l2431 00C5                               l2423 00B6  
                             l2415 00A8                               l2095 0DEA  
                             l2271 021E                               l2263 005E  
                             l2247 00A1                               l2407 0F9F  
                             l2167 0192                               l2159 016F  
                             l2175 01A9                               l2191 0104  
                             l2183 00E8                               l2351 035D  
                             l2343 0348                               l2335 0335  
                             l2327 0309                               l2319 02CE  
                             l2511 055B                               l2503 0531  
                             l2249 0D70                               l2433 00CF  
                             l2425 00C0                               l2417 00B1  
                             l2097 0DED                               l2089 0DDD  
                             l2281 0240                               l2273 0223  
                             l2265 0061                               l2257 0052  
                             l2409 0FA3                               l2177 01AE  
                             l2169 0198                               l2193 010B  
                             l2185 00EF                               l2361 039C  
                             l2353 0379                               l2345 034E  
                             l2337 0339                               l2329 030A  
                             l2601 0765                               l2521 059A  
                             l2513 056A                               l2505 0537  
                             l2435 00D2                               l2427 00C3  
                             l2419 00B4                               l2099 0DEF  
                             l2291 027C                               l2283 0249  
                             l2275 022C                               l2267 0062  
                             l2259 0059                               l2195 0112  
                             l2187 00F4                               l2179 00DF  
                             l2371 03CD                               l2363 03B0  
                             l2355 037A                               l2347 0353  
                             l2339 033D                               l2611 0785  
                             l2603 0769                               l2531 05D7  
                             l2523 05A5                               l2515 0579  
                             l2507 053D                               l2451 043C  
                             l2437 00D3                               l2429 00C4  
                             l2293 0289                               l2285 0251  
                             l2277 0235                               l2269 021D  
                             l2189 00FA                               l2197 011A  
                             l2373 03FB                               l2365 03B8  
                             l2349 035C                               l2357 0385  
                             l2381 0426                               l2621 079F  
                             l2613 078A                               l2605 076C  
                             l2541 0620                               l2533 05E6  
                             l2525 05B0                               l2517 0584  
                             l2509 054C                               l2461 0465  
                             l2453 0449                               l2445 042C  
                             l2439 00D4                               l2295 028E  
                             l2287 0258                               l2279 0238  
                             l2391 0D84                               l2199 011F  
                             l2383 042B                               l2375 0402  
                             l2367 03C0                               l2359 0395  
                             l2631 07BD                               l2623 07A1  
                             l2615 078F                               l2607 0771  
                             l2551 064F                               l2543 062B  
                             l2535 05F5                               l2527 05BB  
                             l2519 058F                               l2471 048F  
                             l2463 046E                               l2455 044E  
                             l2447 0431                               l2297 029A  
                             l2289 0277                               l2393 0F5F  
                             l2369 03C7                               l2377 0407  
                             l2625 07AF                               l2617 0795  
                             l2609 077E                               l2561 0699  
                             l2553 066D                               l2545 0637  
                             l2537 0604                               l2529 05C8  
                             l2481 04BB                               l2473 049D  
                             l2465 0477                               l2457 0453  
                             l2449 043B                               l2299 029B  
                             l2395 0F61                               l2379 0412  
                             l2627 07B0                               l2619 0799  
                             l2571 06C7                               l2563 069F  
                             l2555 067A                               l2547 063D  
                             l2539 0613                               l2491 04E7  
                             l2483 04C9                               l2475 04A2  
                             l2467 0481                               l2459 045C  
                             l2389 0D7C                               l2397 0F6B  
                             l2629 07B5                               l2581 06FE  
                             l2573 06D2                               l2565 06A8  
                             l2557 0683                               l2549 0646  
                             l2493 04F5                               l2485 04CE  
                             l2477 04AD                               l2469 0486  
                             l2399 0F6F                               l2583 0709  
                             l2575 06DD                               l2567 06B1  
                             l2591 072B                               l2559 0690  
                             l2495 04FA                               l2487 04D9  
                             l2479 04B2                               l2585 0714  
                             l2577 06E8                               l2569 06BC  
                             l2593 0743                               l2497 0505  
                             l2489 04DE                               l2595 074B  
                             l2587 071F                               l2579 06F3  
                             l2499 0513                               l2597 075D  
                             l2589 072A                               l1991 0F06  
                             l2599 0762                               l1993 0F07  
                             l2777 0732                               l1995 0F0A  
                             l1987 0EFA                               l2779 031E  
                             l1997 0F1B                               l1989 0EFC  
                             l1999 0D98                               STR_1 0046  
                             STR_2 0036                               STR_3 001D  
                             u1100 0EBB                               u1101 0EBA  
                             u1110 0EEC                               u1111 0EEB  
                             u1200 01BF                               u1120 0DE4  
                             u1201 01BE                               u1121 0DE3  
                             u1130 0DEA                               u1050 0F05  
                             u1131 0DE9                               u1051 0F04  
                             u1220 01D4                               u1140 0E53  
                             u1060 0F1A                               u1221 01D3  
                             u1141 0E52                               u1061 0F19  
                             u1070 0F2A                               u1310 0192  
                             u1215 01C4                               u2007 00D9  
                             u1071 0F29                               u1311 0191  
                             u1240 01F1                               u1400 0FDF  
                             u1080 0D9F                               u1241 01F0  
                             u2017 0D92                               u1065 0F16  
                             u1081 0D9E                               u1305 0182  
                             u1170 0E6D                               u1090 0DA5  
                             u1330 01A7                               u1235 01D8  
                             u2027 0E2F                               u1171 0E6C  
                             u1155 0E5A                               u1091 0DA4  
                             u1331 01A6                               u1315 018E  
                             u1260 0210                               u1420 0F32  
                             u1500 0240                               u1180 0DF7  
                             u1340 00E5                               u1261 020F  
                             u1245 01ED                               u1405 0FDA  
                             u2037 0E3C                               u1421 0F31  
                             u1165 0E61                               u1501 023F  
                             u1181 0DF6                               u1325 019B  
                             u1341 00E4                               u1430 0F4B  
                             u1510 0251                               u1190 0E05  
                             u1270 016C                               u1255 0202  
                             u2047 0E47                               u1431 0F4A  
                             u1511 0250                               u1191 0E04  
                             u1271 016B                               u1440 012D  
                             u1520 0288                               u1360 00F8  
                             u1600 035B                               u1521 0287  
                             u1361 00F7                               u1601 035A  
                             u1450 0150                               u1530 028E  
                             u1290 017F                               u1370 0104  
                             u1610 0378                               u1531 028D  
                             u1291 017E                               u1371 0103  
                             u1355 00E9                               u1611 0377  
                             u1460 0162                               u1700 0F91  
                             u1620 0384                               u1540 02AF  
                             u1461 0161                               u1701 0F90  
                             u1285 0170                               u1621 0383  
                             u1541 02AE                               u1710 0F9E  
                             u1390 0118                               u1630 0395  
                             u1550 02C8                               u1711 0F9D  
                             u1391 0117                               u1375 0100  
                             u1631 0394                               u1615 0374  
                             u1551 02C7                               u1480 022C  
                             u1720 0FC6                               u1640 03B0  
                             u1560 02FE                               u1800 0795  
                             u1481 022B                               u1721 0FC5  
                             u1385 010C                               u1641 03AF  
                             u1561 02FD                               u1801 0794  
                             u1490 0234                               u1650 03C0  
                             u1570 0339                               u1810 079F  
                             u1730 063D                               u1475 0D73  
                             u1491 0233                               u1651 03BF  
                             u1635 0391                               u1571 0338  
                             u1811 079E                               u1731 063C  
                             u1660 0410                               u1580 0348  
                             u1820 07AE                               u1740 069F  
                             u1661 040F                               u1645 03AC  
                             u1581 0347                               u1821 07AD  
                             u1741 069E                               u1670 0424  
                             u1590 034E                               u1830 07CA  
                             u1750 074B                               u1671 0423  
                             u1591 034D                               u1831 07C9  
                             u1751 074A                               u1680 0D83  
                             u1760 075D                               u1681 0D82  
                             u1825 07AA                               u1761 075C  
                             u1690 0F6A                               u1770 0769  
                             u1691 0F69                               u1835 07C6  
                             u1771 0768                               u1907 06F9  
                             u1780 077E                               u1781 077D  
                             u1917 070F                               u1790 0784  
                             u1791 0783                               u1927 0725  
                             u1847 04A8                               u1937 0FA7  
                             u1785 077A                               u1857 04D4  
                             u1947 0FB3                               u1867 0500  
                             _PEIE 005E                               u1957 0F71  
                             u1877 06B7                               u1967 0F7D  
                             u1887 06CD                               u1977 00AC  
                             u1897 06E3                               u1987 00BB  
                             _RCEN 048B                               _RCIF 0065  
                             u1997 00CA                       __CFG_WRT$OFF 0000  
                             _dday 0026                               _date 00C1  
 __end_of_I2C_Master_RepeatedStart 0D47                               _atoi 021C  
                             _main 042C                               _mot1 003A  
                             _mot2 0038                               _mot3 0036  
                             _hour 002C                               _time 0062  
                             _year 0022                               btemp 007E  
                             start 0000                      __CFG_IESO$OFF 0000  
                ___bmul@multiplier 0073                   __end_of_LCD_CHAR 0D98  
                 __end_of_LCD_DATO 0E4C                   ?_I2C_Master_Init 0049  
                 ?_I2C_Master_Read 0070                   ?_I2C_Master_Wait 0070  
                 ?_I2C_Master_Stop 0070                              ?_atoi 0076  
                            ?_main 0070                       ?_read_ds1307 0076  
                            _ACKEN 048C                              _ACKDT 048D  
                    __CFG_WDTE$OFF 0000                              _ANSEL 0188  
                  __end_of___lldiv 021C                    __end_of___lwdiv 01AF  
                  __end_of___lwmod 0120                              _RCREG 001A  
                            _SPBRG 0099                              _PORTA 0005  
                            _PORTB 0006                              _PORTD 0008  
                            _TRISA 0085                              _TRISB 0086  
                            _TRISD 0088                              _SSPIE 0463  
                            _SSPIF 0063                              _TXREG 0019  
              __size_of_LCD_CURSOR 0033                     __CFG_FCMEN$OFF 0000  
                  __end_of_lcd_cmd 0DC9                    __end_of_lcd_lat 0DB7  
                            _abajo 00A0                              _delay 0EFA  
              __size_of_LCD_STRING 0044                              _deter 0046  
                  __end_of_dpowers 001D                    __end_of_isdigit 0DF0  
                            _month 0024                              _valor 00CA  
                            atoi@a 007B                              atoi@s 007D  
                   __CFG_BOREN$OFF 0000                              pclath 000A  
                            status 0003                              wtemp0 007E  
                  __end_of_sprintf 042C                     __CFG_MCLRE$OFF 0000  
                  __initialization 07D1                       __end_of_atoi 02A1  
                     __end_of_main 07D1                             ??_atoi 0078  
                           ??_main 005E                  ?_I2C_Master_Start 0070  
                ?_I2C_Master_Write 0070                             ?_delay 0070  
               ??_I2C_Master_Start 0070                 ??_I2C_Master_Write 0072  
                           _ANSELH 0189                             _SPBRGH 009A  
                           _SSPADD 0093                             _TRISC3 043B  
                           _TRISC4 043C                             _SSPCON 0014  
                           _SSPBUF 0013            __size_of_PasoCompSimple 003D  
                   __CFG_PWRTE$OFF 0000           _I2C_Master_RepeatedStart 0D3E  
                 __end_of_lcd_init 0E28                             ___bmul 0DF0  
                           ___wmul 0E4C                          ??___lldiv 0078  
                        ??___lwdiv 0074                          ??___lwmod 007C  
                           _config 0052                             _arriba 00B1  
                           _mandar 0D7C                             delay@i 0074  
                           delay@j 0072                             _minute 002E  
                           _second 0030                             _valor1 0044  
                           _valor2 0042                             _valor3 0040  
                           _valor4 003E                             _valor5 003C  
                           _servo0 0F5F                             _valorf 0048  
                        ??_lcd_cmd 0077                          ??_lcd_lat 0076  
                 __end_of_servo180 0FC8                          ??_isdigit 0070  
                        ??_sprintf 0054                          LCD_CHAR@a 0071  
                        ?_LCD_CHAR 0070                          ?_LCD_DATO 0070  
          __end_of__initialization 07FC                       ??_LCD_CURSOR 0078  
              ___bmul@multiplicand 0070                       ??_LCD_STRING 0074  
                   __pcstackCOMMON 0070                       __pidataBANK0 0D63  
                     __pidataBANK1 0E74                      __end_of_delay 0F2C  
                    ??_BCD2LowerCh 0070               __size_of_read_ds1307 003C  
                    ??_BCD2UpperCh 0070                 __end_of_LCD_CURSOR 0F5F  
               __size_of_lcd_ready 002D                            ??_delay 0072  
               __end_of_LCD_STRING 0164                         __pbssBANK0 0020  
                       __pbssBANK1 00CA                         ??_LCD_CHAR 0070  
                       ??_LCD_DATO 0072                         __pmaintext 042C  
                          ?___bmul 0070                            ?___wmul 0070  
                          ?_config 0070                  read_ds1307@r_data 0078  
                          ?_mandar 0070                            _ACKSTAT 048E  
                          ?_servo0 0070                            _SSPCON2 0091  
              __end_of_BCD2LowerCh 0D36                          ?_lcd_init 0070  
                          _SSPSTAT 0094                         __stringtab 0003  
              __end_of_BCD2UpperCh 0D7C                     _PasoCompSimple 00A2  
                   BCD2LowerCh@bcd 0070                          ?_servo180 0070  
                __end_of_lcd_ready 0ECB                    __size_of___bmul 0019  
                          ___lldiv 01AF                    __size_of___wmul 0028  
                          ___lwdiv 0164                            ___lwmod 00DF  
                  __size_of_config 0014                    __size_of_mandar 000D  
                          __ptext1 02A1                            __ptext2 00DF  
                          __ptext3 0164                            __ptext4 0DF0  
                          __ptext5 0F93                            __ptext6 0F5F  
                          __ptext7 0066                            __ptext8 0D59  
                          __ptext9 0D50                    __size_of_servo0 0034  
                          _lcd_cmd 0DB7                            _lcd_lat 0DA7  
                          _dpowers 0013                            _isdigit 0DDC  
                          delay@ms 0070           __size_of_I2C_Master_Init 0038  
         __size_of_I2C_Master_Read 002F           __size_of_I2C_Master_Wait 000F  
         __size_of_I2C_Master_Stop 0009                            _sprintf 02A1  
                          clrloop0 0D37                         ??_lcd_init 0078  
             end_of_initialization 07FC         ??_I2C_Master_RepeatedStart 0070  
           __end_of_PasoCompSimple 00DF          __size_of_I2C_Master_Start 0009  
        __size_of_I2C_Master_Write 000A                    ___lldiv@divisor 0070  
                  ___lldiv@counter 007D                            servo0@i 0072  
                       ??_servo180 0070                          _RCSTAbits 0018  
                 I2C_Master_Init@c 0049                   I2C_Master_Read@a 0070  
                        _PORTAbits 0005                          _PORTCbits 0007  
                        _PORTDbits 0008                        _BCD2LowerCh 0D30  
                        _TRISCbits 0087                        _BCD2UpperCh 0D6F  
                  ?_PasoCompSimple 0070                          _TXSTAbits 0098  
                __size_of_LCD_CHAR 000F                  __size_of_LCD_DATO 0024  
                   BCD2UpperCh@bcd 0071                     __end_of___bmul 0E09  
                   __end_of___wmul 0E74                        _BAUDCTLbits 0187  
                       mandar@dato 0070                     __end_of_config 0066  
                   __end_of_mandar 0D89                     __end_of_servo0 0F93  
              start_initialization 07D1                  ??_I2C_Master_Init 004D  
                ??_I2C_Master_Read 0072                  ??_I2C_Master_Wait 0070  
                ??_I2C_Master_Stop 0070           __CFG_FOSC$INTRC_NOCLKOUT 0000  
                         ??___bmul 0071                           ??___wmul 0074  
                       init_fetch0 0DC9                           ??_config 0070  
                      __pdataBANK0 0062                        __pdataBANK1 00A0  
                         ??_mandar 0072                           ??_servo0 0070  
                    ??_read_ds1307 0078                          ___latbits 0002  
                    __pcstackBANK0 0049                       _isdigit$1149 0070  
                __size_of_lcd_init 001F                        sprintf@flag 0058  
                      sprintf@prec 005C                   _I2C_Master_Start 0D47  
                 _I2C_Master_Write 0D59                   ___lwdiv@dividend 0072  
                         ?___lldiv 0070                 read_ds1307@address 0076  
                __size_of_servo180 0035                           ?___lwdiv 0070  
                         ?___lwmod 0078                          _lcd_ready 0E9E  
                        __pstrings 0003                           ?_lcd_cmd 0070  
                         ?_lcd_lat 0070                           ?_isdigit 0070  
              __end_of_read_ds1307 00A2                   ___lwdiv@quotient 0075  
                   __size_of_delay 0032                           ?_sprintf 0049  
                         _LCD_CHAR 0D89                           _LCD_DATO 0E28  
                   ___wmul@product 0074                          clear_ram0 0D36  
                         _PIR1bits 000C                         ?_lcd_ready 0070  
                      __stringbase 0012                  ___wmul@multiplier 0070  
                     ?_BCD2LowerCh 0070                       ?_BCD2UpperCh 0070  
                 ??_PasoCompSimple 0070                I2C_Master_Read@temp 0074  
__size_of_I2C_Master_RepeatedStart 0009          ?_I2C_Master_RepeatedStart 0070  
                 __size_of___lldiv 006D                   __size_of___lwdiv 004B  
                 __size_of___lwmod 0041                 __end_of__stringtab 0013  
                      _read_ds1307 0066                   __size_of_lcd_cmd 0012  
                 __size_of_lcd_lat 0010                         sprintf@val 005A  
                  _I2C_Master_Init 0FC8                    _I2C_Master_Read 0ECB  
                  _I2C_Master_Wait 0D98                    _I2C_Master_Stop 0D50  
                 __size_of_isdigit 0014                    ___lwdiv@divisor 0070  
                  ___lwdiv@counter 0077                           __ptext10 0D47  
                         __ptext11 0D3E                           __ptext20 0052  
                         __ptext12 0ECB                           __ptext21 021C  
                         __ptext13 0D98                           __ptext30 01AF  
                         __ptext22 0DDC                           __ptext14 0D7C  
                         __ptext31 0D6F                           __ptext23 0E4C  
                         __ptext15 0E09                           __ptext32 0D30  
                         __ptext24 00A2                           __ptext16 0DB7  
                         __ptext25 0120                           __ptext17 0E9E  
                         __ptext26 0D89                           __ptext18 0DA7  
                         __ptext27 0F2C                           __ptext19 0EFA  
                         __ptext28 0E28                           __ptext29 0FC8  
                __CFG_BOR4V$BOR40V 0000                           _lcd_init 0E09  
                 __size_of_sprintf 018B                      __size_of_atoi 0085  
                    __size_of_main 03A5                          servo180@i 0072  
                       _LCD_CURSOR 0F2C                           _servo180 0F93  
                       _LCD_STRING 0120                           atoi@sign 007A  
                         lcd_cmd@x 0077                           main@cont 0060  
                      ??_lcd_ready 0076           __end_of_I2C_Master_Start 0D50  
         __end_of_I2C_Master_Write 0D63                           init_ram0 0DCD  
                         isdigit@c 0071                          sprintf@ap 0057  
                        sprintf@sp 0059                   ___lwmod@dividend 007A  
                 ___lldiv@dividend 0074                          stringcode 000D  
          __end_of_I2C_Master_Init 1000            __end_of_I2C_Master_Read 0EFA  
          __end_of_I2C_Master_Wait 0DA7            __end_of_I2C_Master_Stop 0D59  
                         sprintf@c 005D                           sprintf@f 0049  
                 ___lldiv@quotient 0079                  I2C_Master_Write@d 0070  
                  ___lwmod@divisor 0078                    ___lwmod@counter 007D  
                         stringdir 000D                           stringtab 0003  
             __size_of_BCD2LowerCh 0006                        _SSPCON2bits 0091  
             __size_of_BCD2UpperCh 000D                        LCD_DATO@var 0070  
                      ?_LCD_CURSOR 0074                        ?_LCD_STRING 0072  
