

Microchip Technology PIC LITE Macro Assembler V2.00 build -1524193055 
                                                                                               Wed May 06 22:01:03 2020

Microchip Technology Omniscient Code Generator v2.00 (Free mode) build 20180527130849
     1  0000                     
      + 0000                     
     2                           ; Version 2.00
     3                           ; Generated 27/05/2018 GMT
     4                           
     5                           ; 
     6                           ; Copyright © 2018, Microchip Technology Inc. and its subsidiaries ("Microchip")
     7                           ; All rights reserved.
     8                           ; 
     9                           ; This software is developed by Microchip Technology Inc. and its subsidiaries ("Microch
                                 ip").
    10                           ; 
    11                           ; Redistribution and use in source and binary forms, with or without modification, are
    12                           ; permitted provided that the following conditions are met:
    13                           ; 
    14                           ;     1. Redistributions of source code must retain the above copyright notice, this lis
                                 t of
    15                           ;        conditions and the following disclaimer.
    16                           ; 
    17                           ;     2. Redistributions in binary form must reproduce the above copyright notice, this 
                                 list
    18                           ;        of conditions and the following disclaimer in the documentation and/or other
    19                           ;        materials provided with the distribution.
    20                           ; 
    21                           ;     3. Microchip's name may not be used to endorse or promote products derived from th
                                 is
    22                           ;        software without specific prior written permission.
    23                           ; 
    24                           ; THIS SOFTWARE IS PROVIDED BY MICROCHIP "AS IS" AND ANY EXPRESS OR IMPLIED WARRANTIES,

    25                           ; INCLUDING, BUT NOT LIMITED TO, THE IMPLIED WARRANTIES OF MERCHANTABILITY AND FITNESS F
                                 OR
    26                           ; PURPOSE ARE DISCLAIMED.  IN NO EVENT SHALL MICROCHIP BE LIABLE FOR ANY DIRECT, INDIREC
                                 T,
    27                           ; INCIDENTAL, SPECIAL, EXEMPLARY, OR CONSEQUENTIAL DAMAGES (INCLUDING BUT NOT LIMITED TO
                                 
    28                           ; PROCUREMENT OF SUBSTITUTE GOODS OR SERVICES; LOSS OF USE, DATA OR PROFITS; OR BUSINESS
                                 
    29                           ; INTERRUPTION) HOWSOEVER CAUSED AND ON ANY THEORY OF LIABILITY, WHETHER IN CONTRACT, ST
                                 RICT
    30                           ; LIABILITY, OR TORT (INCLUDING NEGLIGENCE OR OTHERWISE) ARISING IN ANY WAY OUT OF THE U
                                 SE OF
    31                           ; THIS SOFTWARE, EVEN IF ADVISED OF THE POSSIBILITY OF SUCH DAMAGE.
    32                           ; 
    33                           
    34                           
    35                           ; 
    36                           ; Code-generator required, PIC16F887 Definitions
    37                           ; 
    38  0004                     fsr0 equ 04h
    39  0004                     indf equ 00h
    40  0000                     indf0 equ 00h
    41  0000                     pc equ 02h
    42  0002                     pcl equ 02h
    43  0002                     pclath equ 0Ah
    44  000A                     status equ 03h
    45  0003                     
     2                           opt pagewidth 120
     3  0000                     byte0	macro	val
     4                           	(getbyte(val,0))
     5                           endm
     6  0000                     byte1	macro	val
     7                           	(getbyte(val,1))
     8                           endm
     9  0000                     byte2	macro	val
    10                           	(getbyte(val,2))
    11                           endm
    12  0000                     byte3	macro	val
    13                           	(getbyte(val,3))
    14                           endm
    15  0000                     byte4	macro	val
    16                           	(getbyte(val,4))
    17                           endm
    18  0000                     byte5	macro	val
    19                           	(getbyte(val,5))
    20                           endm
    21  0000                     byte6	macro	val
    22                           	(getbyte(val,6))
    23                           endm
    24  0000                     byte7	macro	val
    25                           	(getbyte(val,7))
    26                           endm
    27  0000                     getword	macro	val,pos
    28                           	(((val) >> (8 * pos)) and 0xffff)
    29                           endm
    30  0000                     word0	macro	val
    31                           	(getword(val,0))
    32                           endm
    33  0000                     word1	macro	val
    34                           	(getword(val,2))
    35                           endm
    36  0000                     word2	macro	val
    37                           	(getword(val,4))
    38                           endm
    39  0000                     word3	macro	val
    40                           	(getword(val,6))
    41                           endm
    42  0000                     gettword	macro	val,pos
    43                           	(((val) >> (8 * pos)) and 0xffffff)
    44                           endm
    45  0000                     tword0	macro	val
    46                           	(gettword(val,0))
    47                           endm
    48  0000                     tword1	macro	val
    49                           	(gettword(val,3))
    50                           endm
    51  0000                     tword2	macro	val
    52                           	(gettword(val,6))
    53                           endm
    54  0000                     getdword	macro	val,pos
    55                           	(((val) >> (8 * pos)) and 0xffffffff)
    56                           endm
    57  0000                     dword0	macro	val
    58                           	(getdword(val,0))
    59                           endm
    60  0000                     dword1	macro	val
    61                           	(getdword(val,4))
    62                           endm
    63  0000                     clrc	macro
    64                           	bcf	3,0
    65                           	endm
    66  0000                     clrz	macro
    67                           	bcf	3,2
    68                           	endm
    69  0000                     setc	macro
    70                           	bsf	3,0
    71                           	endm
    72  0000                     setz	macro
    73                           	bsf	3,2
    74                           	endm
    75  0000                     skipc	macro
    76                           	btfss	3,0
    77                           	endm
    78  0000                     skipz	macro
    79                           	btfss	3,2
    80                           	endm
    81  0000                     skipnc	macro
    82                           	btfsc	3,0
    83                           	endm
    84  0000                     skipnz	macro
    85                           	btfsc	3,2
    86                           	endm
    87  0000                     # 54 "C:\Program Files (x86)\Microchip\xc8\v2.00\pic\include\pic16f887.h"
    88                           INDF equ 00h ;# 
    89  0000                     # 61 "C:\Program Files (x86)\Microchip\xc8\v2.00\pic\include\pic16f887.h"
    90                           TMR0 equ 01h ;# 
    91  0001                     # 68 "C:\Program Files (x86)\Microchip\xc8\v2.00\pic\include\pic16f887.h"
    92                           PCL equ 02h ;# 
    93  0002                     # 75 "C:\Program Files (x86)\Microchip\xc8\v2.00\pic\include\pic16f887.h"
    94                           STATUS equ 03h ;# 
    95  0003                     # 161 "C:\Program Files (x86)\Microchip\xc8\v2.00\pic\include\pic16f887.h"
    96                           FSR equ 04h ;# 
    97  0004                     # 168 "C:\Program Files (x86)\Microchip\xc8\v2.00\pic\include\pic16f887.h"
    98                           PORTA equ 05h ;# 
    99  0005                     # 230 "C:\Program Files (x86)\Microchip\xc8\v2.00\pic\include\pic16f887.h"
   100                           PORTB equ 06h ;# 
   101  0006                     # 292 "C:\Program Files (x86)\Microchip\xc8\v2.00\pic\include\pic16f887.h"
   102                           PORTC equ 07h ;# 
   103  0007                     # 354 "C:\Program Files (x86)\Microchip\xc8\v2.00\pic\include\pic16f887.h"
   104                           PORTD equ 08h ;# 
   105  0008                     # 416 "C:\Program Files (x86)\Microchip\xc8\v2.00\pic\include\pic16f887.h"
   106                           PORTE equ 09h ;# 
   107  0009                     # 454 "C:\Program Files (x86)\Microchip\xc8\v2.00\pic\include\pic16f887.h"
   108                           PCLATH equ 0Ah ;# 
   109  000A                     # 461 "C:\Program Files (x86)\Microchip\xc8\v2.00\pic\include\pic16f887.h"
   110                           INTCON equ 0Bh ;# 
   111  000B                     # 539 "C:\Program Files (x86)\Microchip\xc8\v2.00\pic\include\pic16f887.h"
   112                           PIR1 equ 0Ch ;# 
   113  000C                     # 595 "C:\Program Files (x86)\Microchip\xc8\v2.00\pic\include\pic16f887.h"
   114                           PIR2 equ 0Dh ;# 
   115  000D                     # 652 "C:\Program Files (x86)\Microchip\xc8\v2.00\pic\include\pic16f887.h"
   116                           TMR1 equ 0Eh ;# 
   117  000E                     # 659 "C:\Program Files (x86)\Microchip\xc8\v2.00\pic\include\pic16f887.h"
   118                           TMR1L equ 0Eh ;# 
   119  000E                     # 666 "C:\Program Files (x86)\Microchip\xc8\v2.00\pic\include\pic16f887.h"
   120                           TMR1H equ 0Fh ;# 
   121  000F                     # 673 "C:\Program Files (x86)\Microchip\xc8\v2.00\pic\include\pic16f887.h"
   122                           T1CON equ 010h ;# 
   123  0010                     # 767 "C:\Program Files (x86)\Microchip\xc8\v2.00\pic\include\pic16f887.h"
   124                           TMR2 equ 011h ;# 
   125  0011                     # 774 "C:\Program Files (x86)\Microchip\xc8\v2.00\pic\include\pic16f887.h"
   126                           T2CON equ 012h ;# 
   127  0012                     # 845 "C:\Program Files (x86)\Microchip\xc8\v2.00\pic\include\pic16f887.h"
   128                           SSPBUF equ 013h ;# 
   129  0013                     # 852 "C:\Program Files (x86)\Microchip\xc8\v2.00\pic\include\pic16f887.h"
   130                           SSPCON equ 014h ;# 
   131  0014                     # 922 "C:\Program Files (x86)\Microchip\xc8\v2.00\pic\include\pic16f887.h"
   132                           CCPR1 equ 015h ;# 
   133  0015                     # 929 "C:\Program Files (x86)\Microchip\xc8\v2.00\pic\include\pic16f887.h"
   134                           CCPR1L equ 015h ;# 
   135  0015                     # 936 "C:\Program Files (x86)\Microchip\xc8\v2.00\pic\include\pic16f887.h"
   136                           CCPR1H equ 016h ;# 
   137  0016                     # 943 "C:\Program Files (x86)\Microchip\xc8\v2.00\pic\include\pic16f887.h"
   138                           CCP1CON equ 017h ;# 
   139  0017                     # 1040 "C:\Program Files (x86)\Microchip\xc8\v2.00\pic\include\pic16f887.h"
   140                           RCSTA equ 018h ;# 
   141  0018                     # 1135 "C:\Program Files (x86)\Microchip\xc8\v2.00\pic\include\pic16f887.h"
   142                           TXREG equ 019h ;# 
   143  0019                     # 1142 "C:\Program Files (x86)\Microchip\xc8\v2.00\pic\include\pic16f887.h"
   144                           RCREG equ 01Ah ;# 
   145  001A                     # 1149 "C:\Program Files (x86)\Microchip\xc8\v2.00\pic\include\pic16f887.h"
   146                           CCPR2 equ 01Bh ;# 
   147  001B                     # 1156 "C:\Program Files (x86)\Microchip\xc8\v2.00\pic\include\pic16f887.h"
   148                           CCPR2L equ 01Bh ;# 
   149  001B                     # 1163 "C:\Program Files (x86)\Microchip\xc8\v2.00\pic\include\pic16f887.h"
   150                           CCPR2H equ 01Ch ;# 
   151  001C                     # 1170 "C:\Program Files (x86)\Microchip\xc8\v2.00\pic\include\pic16f887.h"
   152                           CCP2CON equ 01Dh ;# 
   153  001D                     # 1240 "C:\Program Files (x86)\Microchip\xc8\v2.00\pic\include\pic16f887.h"
   154                           ADRESH equ 01Eh ;# 
   155  001E                     # 1247 "C:\Program Files (x86)\Microchip\xc8\v2.00\pic\include\pic16f887.h"
   156                           ADCON0 equ 01Fh ;# 
   157  001F                     # 1348 "C:\Program Files (x86)\Microchip\xc8\v2.00\pic\include\pic16f887.h"
   158                           OPTION_REG equ 081h ;# 
   159  0081                     # 1418 "C:\Program Files (x86)\Microchip\xc8\v2.00\pic\include\pic16f887.h"
   160                           TRISA equ 085h ;# 
   161  0085                     # 1480 "C:\Program Files (x86)\Microchip\xc8\v2.00\pic\include\pic16f887.h"
   162                           TRISB equ 086h ;# 
   163  0086                     # 1542 "C:\Program Files (x86)\Microchip\xc8\v2.00\pic\include\pic16f887.h"
   164                           TRISC equ 087h ;# 
   165  0087                     # 1604 "C:\Program Files (x86)\Microchip\xc8\v2.00\pic\include\pic16f887.h"
   166                           TRISD equ 088h ;# 
   167  0088                     # 1666 "C:\Program Files (x86)\Microchip\xc8\v2.00\pic\include\pic16f887.h"
   168                           TRISE equ 089h ;# 
   169  0089                     # 1704 "C:\Program Files (x86)\Microchip\xc8\v2.00\pic\include\pic16f887.h"
   170                           PIE1 equ 08Ch ;# 
   171  008C                     # 1760 "C:\Program Files (x86)\Microchip\xc8\v2.00\pic\include\pic16f887.h"
   172                           PIE2 equ 08Dh ;# 
   173  008D                     # 1817 "C:\Program Files (x86)\Microchip\xc8\v2.00\pic\include\pic16f887.h"
   174                           PCON equ 08Eh ;# 
   175  008E                     # 1864 "C:\Program Files (x86)\Microchip\xc8\v2.00\pic\include\pic16f887.h"
   176                           OSCCON equ 08Fh ;# 
   177  008F                     # 1929 "C:\Program Files (x86)\Microchip\xc8\v2.00\pic\include\pic16f887.h"
   178                           OSCTUNE equ 090h ;# 
   179  0090                     # 1981 "C:\Program Files (x86)\Microchip\xc8\v2.00\pic\include\pic16f887.h"
   180                           SSPCON2 equ 091h ;# 
   181  0091                     # 2043 "C:\Program Files (x86)\Microchip\xc8\v2.00\pic\include\pic16f887.h"
   182                           PR2 equ 092h ;# 
   183  0092                     # 2050 "C:\Program Files (x86)\Microchip\xc8\v2.00\pic\include\pic16f887.h"
   184                           SSPADD equ 093h ;# 
   185  0093                     # 2057 "C:\Program Files (x86)\Microchip\xc8\v2.00\pic\include\pic16f887.h"
   186                           SSPMSK equ 093h ;# 
   187  0093                     # 2062 "C:\Program Files (x86)\Microchip\xc8\v2.00\pic\include\pic16f887.h"
   188                           MSK equ 093h ;# 
   189  0093                     # 2179 "C:\Program Files (x86)\Microchip\xc8\v2.00\pic\include\pic16f887.h"
   190                           SSPSTAT equ 094h ;# 
   191  0094                     # 2348 "C:\Program Files (x86)\Microchip\xc8\v2.00\pic\include\pic16f887.h"
   192                           WPUB equ 095h ;# 
   193  0095                     # 2418 "C:\Program Files (x86)\Microchip\xc8\v2.00\pic\include\pic16f887.h"
   194                           IOCB equ 096h ;# 
   195  0096                     # 2488 "C:\Program Files (x86)\Microchip\xc8\v2.00\pic\include\pic16f887.h"
   196                           VRCON equ 097h ;# 
   197  0097                     # 2558 "C:\Program Files (x86)\Microchip\xc8\v2.00\pic\include\pic16f887.h"
   198                           TXSTA equ 098h ;# 
   199  0098                     # 2644 "C:\Program Files (x86)\Microchip\xc8\v2.00\pic\include\pic16f887.h"
   200                           SPBRG equ 099h ;# 
   201  0099                     # 2706 "C:\Program Files (x86)\Microchip\xc8\v2.00\pic\include\pic16f887.h"
   202                           SPBRGH equ 09Ah ;# 
   203  009A                     # 2776 "C:\Program Files (x86)\Microchip\xc8\v2.00\pic\include\pic16f887.h"
   204                           PWM1CON equ 09Bh ;# 
   205  009B                     # 2846 "C:\Program Files (x86)\Microchip\xc8\v2.00\pic\include\pic16f887.h"
   206                           ECCPAS equ 09Ch ;# 
   207  009C                     # 2928 "C:\Program Files (x86)\Microchip\xc8\v2.00\pic\include\pic16f887.h"
   208                           PSTRCON equ 09Dh ;# 
   209  009D                     # 2972 "C:\Program Files (x86)\Microchip\xc8\v2.00\pic\include\pic16f887.h"
   210                           ADRESL equ 09Eh ;# 
   211  009E                     # 2979 "C:\Program Files (x86)\Microchip\xc8\v2.00\pic\include\pic16f887.h"
   212                           ADCON1 equ 09Fh ;# 
   213  009F                     # 3013 "C:\Program Files (x86)\Microchip\xc8\v2.00\pic\include\pic16f887.h"
   214                           WDTCON equ 0105h ;# 
   215  0105                     # 3066 "C:\Program Files (x86)\Microchip\xc8\v2.00\pic\include\pic16f887.h"
   216                           CM1CON0 equ 0107h ;# 
   217  0107                     # 3131 "C:\Program Files (x86)\Microchip\xc8\v2.00\pic\include\pic16f887.h"
   218                           CM2CON0 equ 0108h ;# 
   219  0108                     # 3196 "C:\Program Files (x86)\Microchip\xc8\v2.00\pic\include\pic16f887.h"
   220                           CM2CON1 equ 0109h ;# 
   221  0109                     # 3247 "C:\Program Files (x86)\Microchip\xc8\v2.00\pic\include\pic16f887.h"
   222                           EEDATA equ 010Ch ;# 
   223  010C                     # 3252 "C:\Program Files (x86)\Microchip\xc8\v2.00\pic\include\pic16f887.h"
   224                           EEDAT equ 010Ch ;# 
   225  010C                     # 3259 "C:\Program Files (x86)\Microchip\xc8\v2.00\pic\include\pic16f887.h"
   226                           EEADR equ 010Dh ;# 
   227  010D                     # 3266 "C:\Program Files (x86)\Microchip\xc8\v2.00\pic\include\pic16f887.h"
   228                           EEDATH equ 010Eh ;# 
   229  010E                     # 3273 "C:\Program Files (x86)\Microchip\xc8\v2.00\pic\include\pic16f887.h"
   230                           EEADRH equ 010Fh ;# 
   231  010F                     # 3280 "C:\Program Files (x86)\Microchip\xc8\v2.00\pic\include\pic16f887.h"
   232                           SRCON equ 0185h ;# 
   233  0185                     # 3337 "C:\Program Files (x86)\Microchip\xc8\v2.00\pic\include\pic16f887.h"
   234                           BAUDCTL equ 0187h ;# 
   235  0187                     # 3389 "C:\Program Files (x86)\Microchip\xc8\v2.00\pic\include\pic16f887.h"
   236                           ANSEL equ 0188h ;# 
   237  0188                     # 3451 "C:\Program Files (x86)\Microchip\xc8\v2.00\pic\include\pic16f887.h"
   238                           ANSELH equ 0189h ;# 
   239  0189                     # 3501 "C:\Program Files (x86)\Microchip\xc8\v2.00\pic\include\pic16f887.h"
   240                           EECON1 equ 018Ch ;# 
   241  018C                     # 3546 "C:\Program Files (x86)\Microchip\xc8\v2.00\pic\include\pic16f887.h"
   242                           EECON2 equ 018Dh ;# 
   243  018D                     # 54 "C:\Program Files (x86)\Microchip\xc8\v2.00\pic\include\pic16f887.h"
   244                           INDF equ 00h ;# 
   245  0000                     # 61 "C:\Program Files (x86)\Microchip\xc8\v2.00\pic\include\pic16f887.h"
   246                           TMR0 equ 01h ;# 
   247  0001                     # 68 "C:\Program Files (x86)\Microchip\xc8\v2.00\pic\include\pic16f887.h"
   248                           PCL equ 02h ;# 
   249  0002                     # 75 "C:\Program Files (x86)\Microchip\xc8\v2.00\pic\include\pic16f887.h"
   250                           STATUS equ 03h ;# 
   251  0003                     # 161 "C:\Program Files (x86)\Microchip\xc8\v2.00\pic\include\pic16f887.h"
   252                           FSR equ 04h ;# 
   253  0004                     # 168 "C:\Program Files (x86)\Microchip\xc8\v2.00\pic\include\pic16f887.h"
   254                           PORTA equ 05h ;# 
   255  0005                     # 230 "C:\Program Files (x86)\Microchip\xc8\v2.00\pic\include\pic16f887.h"
   256                           PORTB equ 06h ;# 
   257  0006                     # 292 "C:\Program Files (x86)\Microchip\xc8\v2.00\pic\include\pic16f887.h"
   258                           PORTC equ 07h ;# 
   259  0007                     # 354 "C:\Program Files (x86)\Microchip\xc8\v2.00\pic\include\pic16f887.h"
   260                           PORTD equ 08h ;# 
   261  0008                     # 416 "C:\Program Files (x86)\Microchip\xc8\v2.00\pic\include\pic16f887.h"
   262                           PORTE equ 09h ;# 
   263  0009                     # 454 "C:\Program Files (x86)\Microchip\xc8\v2.00\pic\include\pic16f887.h"
   264                           PCLATH equ 0Ah ;# 
   265  000A                     # 461 "C:\Program Files (x86)\Microchip\xc8\v2.00\pic\include\pic16f887.h"
   266                           INTCON equ 0Bh ;# 
   267  000B                     # 539 "C:\Program Files (x86)\Microchip\xc8\v2.00\pic\include\pic16f887.h"
   268                           PIR1 equ 0Ch ;# 
   269  000C                     # 595 "C:\Program Files (x86)\Microchip\xc8\v2.00\pic\include\pic16f887.h"
   270                           PIR2 equ 0Dh ;# 
   271  000D                     # 652 "C:\Program Files (x86)\Microchip\xc8\v2.00\pic\include\pic16f887.h"
   272                           TMR1 equ 0Eh ;# 
   273  000E                     # 659 "C:\Program Files (x86)\Microchip\xc8\v2.00\pic\include\pic16f887.h"
   274                           TMR1L equ 0Eh ;# 
   275  000E                     # 666 "C:\Program Files (x86)\Microchip\xc8\v2.00\pic\include\pic16f887.h"
   276                           TMR1H equ 0Fh ;# 
   277  000F                     # 673 "C:\Program Files (x86)\Microchip\xc8\v2.00\pic\include\pic16f887.h"
   278                           T1CON equ 010h ;# 
   279  0010                     # 767 "C:\Program Files (x86)\Microchip\xc8\v2.00\pic\include\pic16f887.h"
   280                           TMR2 equ 011h ;# 
   281  0011                     # 774 "C:\Program Files (x86)\Microchip\xc8\v2.00\pic\include\pic16f887.h"
   282                           T2CON equ 012h ;# 
   283  0012                     # 845 "C:\Program Files (x86)\Microchip\xc8\v2.00\pic\include\pic16f887.h"
   284                           SSPBUF equ 013h ;# 
   285  0013                     # 852 "C:\Program Files (x86)\Microchip\xc8\v2.00\pic\include\pic16f887.h"
   286                           SSPCON equ 014h ;# 
   287  0014                     # 922 "C:\Program Files (x86)\Microchip\xc8\v2.00\pic\include\pic16f887.h"
   288                           CCPR1 equ 015h ;# 
   289  0015                     # 929 "C:\Program Files (x86)\Microchip\xc8\v2.00\pic\include\pic16f887.h"
   290                           CCPR1L equ 015h ;# 
   291  0015                     # 936 "C:\Program Files (x86)\Microchip\xc8\v2.00\pic\include\pic16f887.h"
   292                           CCPR1H equ 016h ;# 
   293  0016                     # 943 "C:\Program Files (x86)\Microchip\xc8\v2.00\pic\include\pic16f887.h"
   294                           CCP1CON equ 017h ;# 
   295  0017                     # 1040 "C:\Program Files (x86)\Microchip\xc8\v2.00\pic\include\pic16f887.h"
   296                           RCSTA equ 018h ;# 
   297  0018                     # 1135 "C:\Program Files (x86)\Microchip\xc8\v2.00\pic\include\pic16f887.h"
   298                           TXREG equ 019h ;# 
   299  0019                     # 1142 "C:\Program Files (x86)\Microchip\xc8\v2.00\pic\include\pic16f887.h"
   300                           RCREG equ 01Ah ;# 
   301  001A                     # 1149 "C:\Program Files (x86)\Microchip\xc8\v2.00\pic\include\pic16f887.h"
   302                           CCPR2 equ 01Bh ;# 
   303  001B                     # 1156 "C:\Program Files (x86)\Microchip\xc8\v2.00\pic\include\pic16f887.h"
   304                           CCPR2L equ 01Bh ;# 
   305  001B                     # 1163 "C:\Program Files (x86)\Microchip\xc8\v2.00\pic\include\pic16f887.h"
   306                           CCPR2H equ 01Ch ;# 
   307  001C                     # 1170 "C:\Program Files (x86)\Microchip\xc8\v2.00\pic\include\pic16f887.h"
   308                           CCP2CON equ 01Dh ;# 
   309  001D                     # 1240 "C:\Program Files (x86)\Microchip\xc8\v2.00\pic\include\pic16f887.h"
   310                           ADRESH equ 01Eh ;# 
   311  001E                     # 1247 "C:\Program Files (x86)\Microchip\xc8\v2.00\pic\include\pic16f887.h"
   312                           ADCON0 equ 01Fh ;# 
   313  001F                     # 1348 "C:\Program Files (x86)\Microchip\xc8\v2.00\pic\include\pic16f887.h"
   314                           OPTION_REG equ 081h ;# 
   315  0081                     # 1418 "C:\Program Files (x86)\Microchip\xc8\v2.00\pic\include\pic16f887.h"
   316                           TRISA equ 085h ;# 
   317  0085                     # 1480 "C:\Program Files (x86)\Microchip\xc8\v2.00\pic\include\pic16f887.h"
   318                           TRISB equ 086h ;# 
   319  0086                     # 1542 "C:\Program Files (x86)\Microchip\xc8\v2.00\pic\include\pic16f887.h"
   320                           TRISC equ 087h ;# 
   321  0087                     # 1604 "C:\Program Files (x86)\Microchip\xc8\v2.00\pic\include\pic16f887.h"
   322                           TRISD equ 088h ;# 
   323  0088                     # 1666 "C:\Program Files (x86)\Microchip\xc8\v2.00\pic\include\pic16f887.h"
   324                           TRISE equ 089h ;# 
   325  0089                     # 1704 "C:\Program Files (x86)\Microchip\xc8\v2.00\pic\include\pic16f887.h"
   326                           PIE1 equ 08Ch ;# 
   327  008C                     # 1760 "C:\Program Files (x86)\Microchip\xc8\v2.00\pic\include\pic16f887.h"
   328                           PIE2 equ 08Dh ;# 
   329  008D                     # 1817 "C:\Program Files (x86)\Microchip\xc8\v2.00\pic\include\pic16f887.h"
   330                           PCON equ 08Eh ;# 
   331  008E                     # 1864 "C:\Program Files (x86)\Microchip\xc8\v2.00\pic\include\pic16f887.h"
   332                           OSCCON equ 08Fh ;# 
   333  008F                     # 1929 "C:\Program Files (x86)\Microchip\xc8\v2.00\pic\include\pic16f887.h"
   334                           OSCTUNE equ 090h ;# 
   335  0090                     # 1981 "C:\Program Files (x86)\Microchip\xc8\v2.00\pic\include\pic16f887.h"
   336                           SSPCON2 equ 091h ;# 
   337  0091                     # 2043 "C:\Program Files (x86)\Microchip\xc8\v2.00\pic\include\pic16f887.h"
   338                           PR2 equ 092h ;# 
   339  0092                     # 2050 "C:\Program Files (x86)\Microchip\xc8\v2.00\pic\include\pic16f887.h"
   340                           SSPADD equ 093h ;# 
   341  0093                     # 2057 "C:\Program Files (x86)\Microchip\xc8\v2.00\pic\include\pic16f887.h"
   342                           SSPMSK equ 093h ;# 
   343  0093                     # 2062 "C:\Program Files (x86)\Microchip\xc8\v2.00\pic\include\pic16f887.h"
   344                           MSK equ 093h ;# 
   345  0093                     # 2179 "C:\Program Files (x86)\Microchip\xc8\v2.00\pic\include\pic16f887.h"
   346                           SSPSTAT equ 094h ;# 
   347  0094                     # 2348 "C:\Program Files (x86)\Microchip\xc8\v2.00\pic\include\pic16f887.h"
   348                           WPUB equ 095h ;# 
   349  0095                     # 2418 "C:\Program Files (x86)\Microchip\xc8\v2.00\pic\include\pic16f887.h"
   350                           IOCB equ 096h ;# 
   351  0096                     # 2488 "C:\Program Files (x86)\Microchip\xc8\v2.00\pic\include\pic16f887.h"
   352                           VRCON equ 097h ;# 
   353  0097                     # 2558 "C:\Program Files (x86)\Microchip\xc8\v2.00\pic\include\pic16f887.h"
   354                           TXSTA equ 098h ;# 
   355  0098                     # 2644 "C:\Program Files (x86)\Microchip\xc8\v2.00\pic\include\pic16f887.h"
   356                           SPBRG equ 099h ;# 
   357  0099                     # 2706 "C:\Program Files (x86)\Microchip\xc8\v2.00\pic\include\pic16f887.h"
   358                           SPBRGH equ 09Ah ;# 
   359  009A                     # 2776 "C:\Program Files (x86)\Microchip\xc8\v2.00\pic\include\pic16f887.h"
   360                           PWM1CON equ 09Bh ;# 
   361  009B                     # 2846 "C:\Program Files (x86)\Microchip\xc8\v2.00\pic\include\pic16f887.h"
   362                           ECCPAS equ 09Ch ;# 
   363  009C                     # 2928 "C:\Program Files (x86)\Microchip\xc8\v2.00\pic\include\pic16f887.h"
   364                           PSTRCON equ 09Dh ;# 
   365  009D                     # 2972 "C:\Program Files (x86)\Microchip\xc8\v2.00\pic\include\pic16f887.h"
   366                           ADRESL equ 09Eh ;# 
   367  009E                     # 2979 "C:\Program Files (x86)\Microchip\xc8\v2.00\pic\include\pic16f887.h"
   368                           ADCON1 equ 09Fh ;# 
   369  009F                     # 3013 "C:\Program Files (x86)\Microchip\xc8\v2.00\pic\include\pic16f887.h"
   370                           WDTCON equ 0105h ;# 
   371  0105                     # 3066 "C:\Program Files (x86)\Microchip\xc8\v2.00\pic\include\pic16f887.h"
   372                           CM1CON0 equ 0107h ;# 
   373  0107                     # 3131 "C:\Program Files (x86)\Microchip\xc8\v2.00\pic\include\pic16f887.h"
   374                           CM2CON0 equ 0108h ;# 
   375  0108                     # 3196 "C:\Program Files (x86)\Microchip\xc8\v2.00\pic\include\pic16f887.h"
   376                           CM2CON1 equ 0109h ;# 
   377  0109                     # 3247 "C:\Program Files (x86)\Microchip\xc8\v2.00\pic\include\pic16f887.h"
   378                           EEDATA equ 010Ch ;# 
   379  010C                     # 3252 "C:\Program Files (x86)\Microchip\xc8\v2.00\pic\include\pic16f887.h"
   380                           EEDAT equ 010Ch ;# 
   381  010C                     # 3259 "C:\Program Files (x86)\Microchip\xc8\v2.00\pic\include\pic16f887.h"
   382                           EEADR equ 010Dh ;# 
   383  010D                     # 3266 "C:\Program Files (x86)\Microchip\xc8\v2.00\pic\include\pic16f887.h"
   384                           EEDATH equ 010Eh ;# 
   385  010E                     # 3273 "C:\Program Files (x86)\Microchip\xc8\v2.00\pic\include\pic16f887.h"
   386                           EEADRH equ 010Fh ;# 
   387  010F                     # 3280 "C:\Program Files (x86)\Microchip\xc8\v2.00\pic\include\pic16f887.h"
   388                           SRCON equ 0185h ;# 
   389  0185                     # 3337 "C:\Program Files (x86)\Microchip\xc8\v2.00\pic\include\pic16f887.h"
   390                           BAUDCTL equ 0187h ;# 
   391  0187                     # 3389 "C:\Program Files (x86)\Microchip\xc8\v2.00\pic\include\pic16f887.h"
   392                           ANSEL equ 0188h ;# 
   393  0188                     # 3451 "C:\Program Files (x86)\Microchip\xc8\v2.00\pic\include\pic16f887.h"
   394                           ANSELH equ 0189h ;# 
   395  0189                     # 3501 "C:\Program Files (x86)\Microchip\xc8\v2.00\pic\include\pic16f887.h"
   396                           EECON1 equ 018Ch ;# 
   397  018C                     # 3546 "C:\Program Files (x86)\Microchip\xc8\v2.00\pic\include\pic16f887.h"
   398                           EECON2 equ 018Dh ;# 
   399  018D                     # 54 "C:\Program Files (x86)\Microchip\xc8\v2.00\pic\include\pic16f887.h"
   400                           INDF equ 00h ;# 
   401  0000                     # 61 "C:\Program Files (x86)\Microchip\xc8\v2.00\pic\include\pic16f887.h"
   402                           TMR0 equ 01h ;# 
   403  0001                     # 68 "C:\Program Files (x86)\Microchip\xc8\v2.00\pic\include\pic16f887.h"
   404                           PCL equ 02h ;# 
   405  0002                     # 75 "C:\Program Files (x86)\Microchip\xc8\v2.00\pic\include\pic16f887.h"
   406                           STATUS equ 03h ;# 
   407  0003                     # 161 "C:\Program Files (x86)\Microchip\xc8\v2.00\pic\include\pic16f887.h"
   408                           FSR equ 04h ;# 
   409  0004                     # 168 "C:\Program Files (x86)\Microchip\xc8\v2.00\pic\include\pic16f887.h"
   410                           PORTA equ 05h ;# 
   411  0005                     # 230 "C:\Program Files (x86)\Microchip\xc8\v2.00\pic\include\pic16f887.h"
   412                           PORTB equ 06h ;# 
   413  0006                     # 292 "C:\Program Files (x86)\Microchip\xc8\v2.00\pic\include\pic16f887.h"
   414                           PORTC equ 07h ;# 
   415  0007                     # 354 "C:\Program Files (x86)\Microchip\xc8\v2.00\pic\include\pic16f887.h"
   416                           PORTD equ 08h ;# 
   417  0008                     # 416 "C:\Program Files (x86)\Microchip\xc8\v2.00\pic\include\pic16f887.h"
   418                           PORTE equ 09h ;# 
   419  0009                     # 454 "C:\Program Files (x86)\Microchip\xc8\v2.00\pic\include\pic16f887.h"
   420                           PCLATH equ 0Ah ;# 
   421  000A                     # 461 "C:\Program Files (x86)\Microchip\xc8\v2.00\pic\include\pic16f887.h"
   422                           INTCON equ 0Bh ;# 
   423  000B                     # 539 "C:\Program Files (x86)\Microchip\xc8\v2.00\pic\include\pic16f887.h"
   424                           PIR1 equ 0Ch ;# 
   425  000C                     # 595 "C:\Program Files (x86)\Microchip\xc8\v2.00\pic\include\pic16f887.h"
   426                           PIR2 equ 0Dh ;# 
   427  000D                     # 652 "C:\Program Files (x86)\Microchip\xc8\v2.00\pic\include\pic16f887.h"
   428                           TMR1 equ 0Eh ;# 
   429  000E                     # 659 "C:\Program Files (x86)\Microchip\xc8\v2.00\pic\include\pic16f887.h"
   430                           TMR1L equ 0Eh ;# 
   431  000E                     # 666 "C:\Program Files (x86)\Microchip\xc8\v2.00\pic\include\pic16f887.h"
   432                           TMR1H equ 0Fh ;# 
   433  000F                     # 673 "C:\Program Files (x86)\Microchip\xc8\v2.00\pic\include\pic16f887.h"
   434                           T1CON equ 010h ;# 
   435  0010                     # 767 "C:\Program Files (x86)\Microchip\xc8\v2.00\pic\include\pic16f887.h"
   436                           TMR2 equ 011h ;# 
   437  0011                     # 774 "C:\Program Files (x86)\Microchip\xc8\v2.00\pic\include\pic16f887.h"
   438                           T2CON equ 012h ;# 
   439  0012                     # 845 "C:\Program Files (x86)\Microchip\xc8\v2.00\pic\include\pic16f887.h"
   440                           SSPBUF equ 013h ;# 
   441  0013                     # 852 "C:\Program Files (x86)\Microchip\xc8\v2.00\pic\include\pic16f887.h"
   442                           SSPCON equ 014h ;# 
   443  0014                     # 922 "C:\Program Files (x86)\Microchip\xc8\v2.00\pic\include\pic16f887.h"
   444                           CCPR1 equ 015h ;# 
   445  0015                     # 929 "C:\Program Files (x86)\Microchip\xc8\v2.00\pic\include\pic16f887.h"
   446                           CCPR1L equ 015h ;# 
   447  0015                     # 936 "C:\Program Files (x86)\Microchip\xc8\v2.00\pic\include\pic16f887.h"
   448                           CCPR1H equ 016h ;# 
   449  0016                     # 943 "C:\Program Files (x86)\Microchip\xc8\v2.00\pic\include\pic16f887.h"
   450                           CCP1CON equ 017h ;# 
   451  0017                     # 1040 "C:\Program Files (x86)\Microchip\xc8\v2.00\pic\include\pic16f887.h"
   452                           RCSTA equ 018h ;# 
   453  0018                     # 1135 "C:\Program Files (x86)\Microchip\xc8\v2.00\pic\include\pic16f887.h"
   454                           TXREG equ 019h ;# 
   455  0019                     # 1142 "C:\Program Files (x86)\Microchip\xc8\v2.00\pic\include\pic16f887.h"
   456                           RCREG equ 01Ah ;# 
   457  001A                     # 1149 "C:\Program Files (x86)\Microchip\xc8\v2.00\pic\include\pic16f887.h"
   458                           CCPR2 equ 01Bh ;# 
   459  001B                     # 1156 "C:\Program Files (x86)\Microchip\xc8\v2.00\pic\include\pic16f887.h"
   460                           CCPR2L equ 01Bh ;# 
   461  001B                     # 1163 "C:\Program Files (x86)\Microchip\xc8\v2.00\pic\include\pic16f887.h"
   462                           CCPR2H equ 01Ch ;# 
   463  001C                     # 1170 "C:\Program Files (x86)\Microchip\xc8\v2.00\pic\include\pic16f887.h"
   464                           CCP2CON equ 01Dh ;# 
   465  001D                     # 1240 "C:\Program Files (x86)\Microchip\xc8\v2.00\pic\include\pic16f887.h"
   466                           ADRESH equ 01Eh ;# 
   467  001E                     # 1247 "C:\Program Files (x86)\Microchip\xc8\v2.00\pic\include\pic16f887.h"
   468                           ADCON0 equ 01Fh ;# 
   469  001F                     # 1348 "C:\Program Files (x86)\Microchip\xc8\v2.00\pic\include\pic16f887.h"
   470                           OPTION_REG equ 081h ;# 
   471  0081                     # 1418 "C:\Program Files (x86)\Microchip\xc8\v2.00\pic\include\pic16f887.h"
   472                           TRISA equ 085h ;# 
   473  0085                     # 1480 "C:\Program Files (x86)\Microchip\xc8\v2.00\pic\include\pic16f887.h"
   474                           TRISB equ 086h ;# 
   475  0086                     # 1542 "C:\Program Files (x86)\Microchip\xc8\v2.00\pic\include\pic16f887.h"
   476                           TRISC equ 087h ;# 
   477  0087                     # 1604 "C:\Program Files (x86)\Microchip\xc8\v2.00\pic\include\pic16f887.h"
   478                           TRISD equ 088h ;# 
   479  0088                     # 1666 "C:\Program Files (x86)\Microchip\xc8\v2.00\pic\include\pic16f887.h"
   480                           TRISE equ 089h ;# 
   481  0089                     # 1704 "C:\Program Files (x86)\Microchip\xc8\v2.00\pic\include\pic16f887.h"
   482                           PIE1 equ 08Ch ;# 
   483  008C                     # 1760 "C:\Program Files (x86)\Microchip\xc8\v2.00\pic\include\pic16f887.h"
   484                           PIE2 equ 08Dh ;# 
   485  008D                     # 1817 "C:\Program Files (x86)\Microchip\xc8\v2.00\pic\include\pic16f887.h"
   486                           PCON equ 08Eh ;# 
   487  008E                     # 1864 "C:\Program Files (x86)\Microchip\xc8\v2.00\pic\include\pic16f887.h"
   488                           OSCCON equ 08Fh ;# 
   489  008F                     # 1929 "C:\Program Files (x86)\Microchip\xc8\v2.00\pic\include\pic16f887.h"
   490                           OSCTUNE equ 090h ;# 
   491  0090                     # 1981 "C:\Program Files (x86)\Microchip\xc8\v2.00\pic\include\pic16f887.h"
   492                           SSPCON2 equ 091h ;# 
   493  0091                     # 2043 "C:\Program Files (x86)\Microchip\xc8\v2.00\pic\include\pic16f887.h"
   494                           PR2 equ 092h ;# 
   495  0092                     # 2050 "C:\Program Files (x86)\Microchip\xc8\v2.00\pic\include\pic16f887.h"
   496                           SSPADD equ 093h ;# 
   497  0093                     # 2057 "C:\Program Files (x86)\Microchip\xc8\v2.00\pic\include\pic16f887.h"
   498                           SSPMSK equ 093h ;# 
   499  0093                     # 2062 "C:\Program Files (x86)\Microchip\xc8\v2.00\pic\include\pic16f887.h"
   500                           MSK equ 093h ;# 
   501  0093                     # 2179 "C:\Program Files (x86)\Microchip\xc8\v2.00\pic\include\pic16f887.h"
   502                           SSPSTAT equ 094h ;# 
   503  0094                     # 2348 "C:\Program Files (x86)\Microchip\xc8\v2.00\pic\include\pic16f887.h"
   504                           WPUB equ 095h ;# 
   505  0095                     # 2418 "C:\Program Files (x86)\Microchip\xc8\v2.00\pic\include\pic16f887.h"
   506                           IOCB equ 096h ;# 
   507  0096                     # 2488 "C:\Program Files (x86)\Microchip\xc8\v2.00\pic\include\pic16f887.h"
   508                           VRCON equ 097h ;# 
   509  0097                     # 2558 "C:\Program Files (x86)\Microchip\xc8\v2.00\pic\include\pic16f887.h"
   510                           TXSTA equ 098h ;# 
   511  0098                     # 2644 "C:\Program Files (x86)\Microchip\xc8\v2.00\pic\include\pic16f887.h"
   512                           SPBRG equ 099h ;# 
   513  0099                     # 2706 "C:\Program Files (x86)\Microchip\xc8\v2.00\pic\include\pic16f887.h"
   514                           SPBRGH equ 09Ah ;# 
   515  009A                     # 2776 "C:\Program Files (x86)\Microchip\xc8\v2.00\pic\include\pic16f887.h"
   516                           PWM1CON equ 09Bh ;# 
   517  009B                     # 2846 "C:\Program Files (x86)\Microchip\xc8\v2.00\pic\include\pic16f887.h"
   518                           ECCPAS equ 09Ch ;# 
   519  009C                     # 2928 "C:\Program Files (x86)\Microchip\xc8\v2.00\pic\include\pic16f887.h"
   520                           PSTRCON equ 09Dh ;# 
   521  009D                     # 2972 "C:\Program Files (x86)\Microchip\xc8\v2.00\pic\include\pic16f887.h"
   522                           ADRESL equ 09Eh ;# 
   523  009E                     # 2979 "C:\Program Files (x86)\Microchip\xc8\v2.00\pic\include\pic16f887.h"
   524                           ADCON1 equ 09Fh ;# 
   525  009F                     # 3013 "C:\Program Files (x86)\Microchip\xc8\v2.00\pic\include\pic16f887.h"
   526                           WDTCON equ 0105h ;# 
   527  0105                     # 3066 "C:\Program Files (x86)\Microchip\xc8\v2.00\pic\include\pic16f887.h"
   528                           CM1CON0 equ 0107h ;# 
   529  0107                     # 3131 "C:\Program Files (x86)\Microchip\xc8\v2.00\pic\include\pic16f887.h"
   530                           CM2CON0 equ 0108h ;# 
   531  0108                     # 3196 "C:\Program Files (x86)\Microchip\xc8\v2.00\pic\include\pic16f887.h"
   532                           CM2CON1 equ 0109h ;# 
   533  0109                     # 3247 "C:\Program Files (x86)\Microchip\xc8\v2.00\pic\include\pic16f887.h"
   534                           EEDATA equ 010Ch ;# 
   535  010C                     # 3252 "C:\Program Files (x86)\Microchip\xc8\v2.00\pic\include\pic16f887.h"
   536                           EEDAT equ 010Ch ;# 
   537  010C                     # 3259 "C:\Program Files (x86)\Microchip\xc8\v2.00\pic\include\pic16f887.h"
   538                           EEADR equ 010Dh ;# 
   539  010D                     # 3266 "C:\Program Files (x86)\Microchip\xc8\v2.00\pic\include\pic16f887.h"
   540                           EEDATH equ 010Eh ;# 
   541  010E                     # 3273 "C:\Program Files (x86)\Microchip\xc8\v2.00\pic\include\pic16f887.h"
   542                           EEADRH equ 010Fh ;# 
   543  010F                     # 3280 "C:\Program Files (x86)\Microchip\xc8\v2.00\pic\include\pic16f887.h"
   544                           SRCON equ 0185h ;# 
   545  0185                     # 3337 "C:\Program Files (x86)\Microchip\xc8\v2.00\pic\include\pic16f887.h"
   546                           BAUDCTL equ 0187h ;# 
   547  0187                     # 3389 "C:\Program Files (x86)\Microchip\xc8\v2.00\pic\include\pic16f887.h"
   548                           ANSEL equ 0188h ;# 
   549  0188                     # 3451 "C:\Program Files (x86)\Microchip\xc8\v2.00\pic\include\pic16f887.h"
   550                           ANSELH equ 0189h ;# 
   551  0189                     # 3501 "C:\Program Files (x86)\Microchip\xc8\v2.00\pic\include\pic16f887.h"
   552                           EECON1 equ 018Ch ;# 
   553  018C                     # 3546 "C:\Program Files (x86)\Microchip\xc8\v2.00\pic\include\pic16f887.h"
   554                           EECON2 equ 018Dh ;# 
   555  018D                     	FNCALL	_main,_I2C_Slave_Init
   556                           	FNCALL	_main,_mide_distancia
   557                           	FNCALL	_mide_distancia,___flmul
   558                           	FNCALL	_mide_distancia,___fltol
   559                           	FNCALL	_mide_distancia,___xxtofl
   560                           	FNCALL	___flmul,__Umul8_16
   561                           	FNROOT	_main
   562                           	FNCALL	intlevel1,_ISR
   563                           	global	intlevel1
   564                           	FNROOT	intlevel1
   565                           	global	_recibido
   566                           	global	_z
   567                           	global	_distancia
   568                           	global	_tiempo_eco
   569                           	global	_TMR1L
   570                           _TMR1L	set	0xE
   571  000E                     	global	_TMR1H
   572                           _TMR1H	set	0xF
   573  000F                     	global	_PORTAbits
   574                           _PORTAbits	set	0x5
   575  0005                     	global	_T1CONbits
   576                           _T1CONbits	set	0x10
   577  0010                     	global	_SSPCONbits
   578                           _SSPCONbits	set	0x14
   579  0014                     	global	_PIR1bits
   580                           _PIR1bits	set	0xC
   581  000C                     	global	_SSPBUF
   582                           _SSPBUF	set	0x13
   583  0013                     	global	_SSPCON
   584                           _SSPCON	set	0x14
   585  0014                     	global	_TMR1IF
   586                           _TMR1IF	set	0x60
   587  0060                     	global	_TMR1ON
   588                           _TMR1ON	set	0x80
   589  0080                     	global	_SSPIF
   590                           _SSPIF	set	0x63
   591  0063                     	global	_PEIE
   592                           _PEIE	set	0x5E
   593  005E                     	global	_GIE
   594                           _GIE	set	0x5F
   595  005F                     	global	_TRISAbits
   596                           _TRISAbits	set	0x85
   597  0085                     	global	_SSPSTATbits
   598                           _SSPSTATbits	set	0x94
   599  0094                     	global	_SSPCON2bits
   600                           _SSPCON2bits	set	0x91
   601  0091                     	global	_TRISCbits
   602                           _TRISCbits	set	0x87
   603  0087                     	global	_SSPSTAT
   604                           _SSPSTAT	set	0x94
   605  0094                     	global	_SSPADD
   606                           _SSPADD	set	0x93
   607  0093                     	global	_SSPCON2
   608                           _SSPCON2	set	0x91
   609  0091                     	global	_BF
   610                           _BF	set	0x4A0
   611  04A0                     	global	_SSPIE
   612                           _SSPIE	set	0x463
   613  0463                     	global	_TRISC4
   614                           _TRISC4	set	0x43C
   615  043C                     	global	_TRISC3
   616                           _TRISC3	set	0x43B
   617  043B                     	global	_ANSEL
   618                           _ANSEL	set	0x188
   619  0188                     ; #config settings
   620                           global __CFG_FOSC$INTRC_NOCLKOUT
   621                           __CFG_FOSC$INTRC_NOCLKOUT equ 0x0
   622  0000                     global __CFG_WDTE$OFF
   623                           __CFG_WDTE$OFF equ 0x0
   624  0000                     global __CFG_PWRTE$OFF
   625                           __CFG_PWRTE$OFF equ 0x0
   626  0000                     global __CFG_MCLRE$OFF
   627                           __CFG_MCLRE$OFF equ 0x0
   628  0000                     global __CFG_CP$OFF
   629                           __CFG_CP$OFF equ 0x0
   630  0000                     global __CFG_CPD$OFF
   631                           __CFG_CPD$OFF equ 0x0
   632  0000                     global __CFG_BOREN$OFF
   633                           __CFG_BOREN$OFF equ 0x0
   634  0000                     global __CFG_FCMEN$OFF
   635                           __CFG_FCMEN$OFF equ 0x0
   636  0000                     global __CFG_LVP$OFF
   637                           __CFG_LVP$OFF equ 0x0
   638  0000                     global __CFG_BOR4V$BOR40V
   639                           __CFG_BOR4V$BOR40V equ 0x0
   640  0000                     global __CFG_WRT$OFF
   641                           __CFG_WRT$OFF equ 0x0
   642  0000                     	file	"C:\Users\JOSJAV~1\AppData\Local\Temp\sfj4."
   643                           	line	#
   644                           psect cinit,class=CODE,delta=2
   645                           global start_initialization
   646                           start_initialization:
   647  000F                     
   648                           global __initialization
   649                           __initialization:
   650  000F                     psect	bssCOMMON,class=COMMON,space=1,noexec
   651                           global __pbssCOMMON
   652                           __pbssCOMMON:
   653  0079                     _recibido:
   654  0079                            ds      1
   655  0079                     
   656                           _z:
   657  007A                            ds      1
   658  007A                     
   659                           psect	bssBANK0,class=BANK0,space=1,noexec
   660                           global __pbssBANK0
   661                           __pbssBANK0:
   662  005A                     _distancia:
   663  005A                            ds      2
   664  005A                     
   665                           _tiempo_eco:
   666  005C                            ds      2
   667  005C                     
   668                           	file	"C:\Users\JOSJAV~1\AppData\Local\Temp\sfj4."
   669                           	line	#
   670                           ; Clear objects allocated to COMMON
   671                           psect cinit,class=CODE,delta=2,merge=1
   672                           	clrf	((__pbssCOMMON)+0)&07Fh
   673  000F  01F9               	clrf	((__pbssCOMMON)+1)&07Fh
   674  0010  01FA               ; Clear objects allocated to BANK0
   675                           psect cinit,class=CODE,delta=2,merge=1
   676                           	bcf	status, 5	;RP0=0, select bank0
   677  0011  1283               	bcf	status, 6	;RP1=0, select bank0
   678  0012  1303               	clrf	((__pbssBANK0)+0)&07Fh
   679  0013  01DA               	clrf	((__pbssBANK0)+1)&07Fh
   680  0014  01DB               	clrf	((__pbssBANK0)+2)&07Fh
   681  0015  01DC               	clrf	((__pbssBANK0)+3)&07Fh
   682  0016  01DD               psect cinit,class=CODE,delta=2,merge=1
   683                           global end_of_initialization,__end_of__initialization
   684                           
   685                           ;End of C runtime variable initialization code
   686                           
   687                           end_of_initialization:
   688  0017                     __end_of__initialization:
   689  0017                     clrf status
   690  0017  0183               ljmp _main	;jump to C main() function
   691  0018  120A  118A  2E1D   psect	cstackCOMMON,class=COMMON,space=1,noexec
   692                           global __pcstackCOMMON
   693                           __pcstackCOMMON:
   694  0070                     ?_mide_distancia:	; 1 bytes @ 0x0
   695  0070                     ?_I2C_Slave_Init:	; 1 bytes @ 0x0
   696  0070                     ?_ISR:	; 1 bytes @ 0x0
   697  0070                     ??_ISR:	; 1 bytes @ 0x0
   698  0070                     ?_main:	; 1 bytes @ 0x0
   699  0070                     	ds	3
   700  0070                     ??_I2C_Slave_Init:	; 1 bytes @ 0x3
   701  0073                     	global	?__Umul8_16
   702                           ?__Umul8_16:	; 2 bytes @ 0x3
   703  0073                     	global	?___xxtofl
   704                           ?___xxtofl:	; 4 bytes @ 0x3
   705  0073                     	global	I2C_Slave_Init@address
   706                           I2C_Slave_Init@address:	; 1 bytes @ 0x3
   707  0073                     	global	__Umul8_16@multiplicand
   708                           __Umul8_16@multiplicand:	; 1 bytes @ 0x3
   709  0073                     	global	___xxtofl@val
   710                           ___xxtofl@val:	; 4 bytes @ 0x3
   711  0073                     	ds	2
   712  0073                     ??__Umul8_16:	; 1 bytes @ 0x5
   713  0075                     	ds	2
   714  0075                     	global	___fltol@sign1
   715                           ___fltol@sign1:	; 1 bytes @ 0x7
   716  0077                     	ds	1
   717  0077                     	global	___fltol@exp1
   718                           ___fltol@exp1:	; 1 bytes @ 0x8
   719  0078                     	ds	1
   720  0078                     psect	cstackBANK0,class=BANK0,space=1,noexec
   721                           global __pcstackBANK0
   722                           __pcstackBANK0:
   723  0020                     ??___xxtofl:	; 1 bytes @ 0x0
   724  0020                     	global	__Umul8_16@product
   725                           __Umul8_16@product:	; 2 bytes @ 0x0
   726  0020                     	ds	2
   727  0020                     	global	__Umul8_16@word_mpld
   728                           __Umul8_16@word_mpld:	; 2 bytes @ 0x2
   729  0022                     	ds	2
   730  0022                     	global	___xxtofl@sign
   731                           ___xxtofl@sign:	; 1 bytes @ 0x4
   732  0024                     	global	__Umul8_16@multiplier
   733                           __Umul8_16@multiplier:	; 1 bytes @ 0x4
   734  0024                     	ds	1
   735  0024                     	global	___xxtofl@exp
   736                           ___xxtofl@exp:	; 1 bytes @ 0x5
   737  0025                     	ds	1
   738  0025                     	global	___xxtofl@arg
   739                           ___xxtofl@arg:	; 4 bytes @ 0x6
   740  0026                     	ds	4
   741  0026                     	global	?___flmul
   742                           ?___flmul:	; 4 bytes @ 0xA
   743  002A                     	global	___flmul@b
   744                           ___flmul@b:	; 4 bytes @ 0xA
   745  002A                     	ds	4
   746  002A                     	global	___flmul@a
   747                           ___flmul@a:	; 4 bytes @ 0xE
   748  002E                     	ds	4
   749  002E                     ??___flmul:	; 1 bytes @ 0x12
   750  0032                     	ds	5
   751  0032                     	global	___flmul@sign
   752                           ___flmul@sign:	; 1 bytes @ 0x17
   753  0037                     	ds	1
   754  0037                     	global	___flmul@grs
   755                           ___flmul@grs:	; 4 bytes @ 0x18
   756  0038                     	ds	4
   757  0038                     	global	___flmul@aexp
   758                           ___flmul@aexp:	; 1 bytes @ 0x1C
   759  003C                     	ds	1
   760  003C                     	global	___flmul@bexp
   761                           ___flmul@bexp:	; 1 bytes @ 0x1D
   762  003D                     	ds	1
   763  003D                     	global	___flmul@prod
   764                           ___flmul@prod:	; 4 bytes @ 0x1E
   765  003E                     	ds	4
   766  003E                     	global	___flmul@temp
   767                           ___flmul@temp:	; 2 bytes @ 0x22
   768  0042                     	ds	2
   769  0042                     	global	?___fltol
   770                           ?___fltol:	; 4 bytes @ 0x24
   771  0044                     	global	___fltol@f1
   772                           ___fltol@f1:	; 4 bytes @ 0x24
   773  0044                     	ds	4
   774  0044                     ??___fltol:	; 1 bytes @ 0x28
   775  0048                     	ds	5
   776  0048                     ??_mide_distancia:	; 1 bytes @ 0x2D
   777  004D                     	ds	3
   778  004D                     	global	_mide_distancia$1018
   779                           _mide_distancia$1018:	; 4 bytes @ 0x30
   780  0050                     	ds	4
   781  0050                     	global	_mide_distancia$1019
   782                           _mide_distancia$1019:	; 4 bytes @ 0x34
   783  0054                     	ds	4
   784  0054                     ??_main:	; 1 bytes @ 0x38
   785  0058                     	ds	2
   786  0058                     ;!
   787                           ;!Data Sizes:
   788                           ;!    Strings     0
   789                           ;!    Constant    0
   790                           ;!    Data        0
   791                           ;!    BSS         6
   792                           ;!    Persistent  0
   793                           ;!    Stack       0
   794                           ;!
   795                           ;!Auto Spaces:
   796                           ;!    Space          Size  Autos    Used
   797                           ;!    COMMON           14      9      11
   798                           ;!    BANK0            80     58      62
   799                           ;!    BANK1            80      0       0
   800                           ;!    BANK3            96      0       0
   801                           ;!    BANK2            96      0       0
   802                           
   803                           ;!
   804                           ;!Pointer List with Targets:
   805                           ;!
   806                           ;!    None.
   807                           
   808                           
   809                           ;!
   810                           ;!Critical Paths under _main in COMMON
   811                           ;!
   812                           ;!    _mide_distancia->___fltol
   813                           ;!    ___fltol->___xxtofl
   814                           ;!    ___flmul->__Umul8_16
   815                           ;!    ___flmul->___xxtofl
   816                           ;!
   817                           ;!Critical Paths under _ISR in COMMON
   818                           ;!
   819                           ;!    None.
   820                           ;!
   821                           ;!Critical Paths under _main in BANK0
   822                           ;!
   823                           ;!    _main->_mide_distancia
   824                           ;!    _mide_distancia->___fltol
   825                           ;!    ___fltol->___flmul
   826                           ;!    ___flmul->___xxtofl
   827                           ;!
   828                           ;!Critical Paths under _ISR in BANK0
   829                           ;!
   830                           ;!    None.
   831                           ;!
   832                           ;!Critical Paths under _main in BANK1
   833                           ;!
   834                           ;!    None.
   835                           ;!
   836                           ;!Critical Paths under _ISR in BANK1
   837                           ;!
   838                           ;!    None.
   839                           ;!
   840                           ;!Critical Paths under _main in BANK3
   841                           ;!
   842                           ;!    None.
   843                           ;!
   844                           ;!Critical Paths under _ISR in BANK3
   845                           ;!
   846                           ;!    None.
   847                           ;!
   848                           ;!Critical Paths under _main in BANK2
   849                           ;!
   850                           ;!    None.
   851                           ;!
   852                           ;!Critical Paths under _ISR in BANK2
   853                           ;!
   854                           ;!    None.
   855                           
   856 ;;
   857 ;;Main: autosize = 0, tempsize = 2, incstack = 0, save=0
   858 ;;
   859                           
   860                           ;!
   861                           ;!Call Graph Tables:
   862                           ;!
   863                           ;! ---------------------------------------------------------------------------------
   864                           ;! (Depth) Function   	        Calls       Base Space   Used Autos Params    Refs
   865                           ;! ---------------------------------------------------------------------------------
   866                           ;! (0) _main                                                 2     2      0    3797
   867                           ;!                                             56 BANK0      2     2      0
   868                           ;!                     _I2C_Slave_Init
   869                           ;!                     _mide_distancia
   870                           ;! ---------------------------------------------------------------------------------
   871                           ;! (1) _mide_distancia                                      11    11      0    3782
   872                           ;!                                             45 BANK0     11    11      0
   873                           ;!                            ___flmul
   874                           ;!                            ___fltol
   875                           ;!                           ___xxtofl
   876                           ;! ---------------------------------------------------------------------------------
   877                           ;! (2) ___xxtofl                                            14    10      4     566
   878                           ;!                                              3 COMMON     4     0      4
   879                           ;!                                              0 BANK0     10    10      0
   880                           ;! ---------------------------------------------------------------------------------
   881                           ;! (2) ___fltol                                             11     7      4     427
   882                           ;!                                              7 COMMON     2     2      0
   883                           ;!                                             36 BANK0      9     5      4
   884                           ;!                            ___flmul (ARG)
   885                           ;!                           ___xxtofl (ARG)
   886                           ;! ---------------------------------------------------------------------------------
   887                           ;! (2) ___flmul                                             26    18      8    2721
   888                           ;!                                             10 BANK0     26    18      8
   889                           ;!                          __Umul8_16
   890                           ;!                           ___xxtofl (ARG)
   891                           ;! ---------------------------------------------------------------------------------
   892                           ;! (3) __Umul8_16                                            9     7      2     799
   893                           ;!                                              3 COMMON     4     2      2
   894                           ;!                                              0 BANK0      5     5      0
   895                           ;! ---------------------------------------------------------------------------------
   896                           ;! (1) _I2C_Slave_Init                                       1     1      0      15
   897                           ;!                                              3 COMMON     1     1      0
   898                           ;! ---------------------------------------------------------------------------------
   899                           ;! Estimated maximum stack depth 3
   900                           ;! ---------------------------------------------------------------------------------
   901                           ;! (Depth) Function   	        Calls       Base Space   Used Autos Params    Refs
   902                           ;! ---------------------------------------------------------------------------------
   903                           ;! (4) _ISR                                                  3     3      0       0
   904                           ;!                                              0 COMMON     3     3      0
   905                           ;! ---------------------------------------------------------------------------------
   906                           ;! Estimated maximum stack depth 4
   907                           ;! ---------------------------------------------------------------------------------
   908                           ;!
   909                           ;! Call Graph Graphs:
   910                           ;!
   911                           ;! _main (ROOT)
   912                           ;!   _I2C_Slave_Init
   913                           ;!   _mide_distancia
   914                           ;!     ___flmul
   915                           ;!       __Umul8_16
   916                           ;!       ___xxtofl (ARG)
   917                           ;!     ___fltol
   918                           ;!       ___flmul (ARG)
   919                           ;!         __Umul8_16
   920                           ;!         ___xxtofl (ARG)
   921                           ;!       ___xxtofl (ARG)
   922                           ;!     ___xxtofl
   923                           ;!
   924                           ;! _ISR (ROOT)
   925                           ;!
   926                           
   927                           ;! Address spaces:
   928                           
   929                           ;!Name               Size   Autos  Total    Cost      Usage
   930                           ;!BITCOMMON            E      0       0       0        0.0%
   931                           ;!EEDATA             100      0       0       0        0.0%
   932                           ;!NULL                 0      0       0       0        0.0%
   933                           ;!CODE                 0      0       0       0        0.0%
   934                           ;!COMMON               E      9       B       1       78.6%
   935                           ;!BITSFR0              0      0       0       1        0.0%
   936                           ;!SFR0                 0      0       0       1        0.0%
   937                           ;!BITSFR1              0      0       0       2        0.0%
   938                           ;!SFR1                 0      0       0       2        0.0%
   939                           ;!STACK                0      0       0       2        0.0%
   940                           ;!ABS                  0      0      49       3        0.0%
   941                           ;!BITBANK0            50      0       0       4        0.0%
   942                           ;!BITSFR3              0      0       0       4        0.0%
   943                           ;!SFR3                 0      0       0       4        0.0%
   944                           ;!BANK0               50     3A      3E       5       77.5%
   945                           ;!BITSFR2              0      0       0       5        0.0%
   946                           ;!SFR2                 0      0       0       5        0.0%
   947                           ;!BITBANK1            50      0       0       6        0.0%
   948                           ;!BANK1               50      0       0       7        0.0%
   949                           ;!BITBANK3            60      0       0       8        0.0%
   950                           ;!BANK3               60      0       0       9        0.0%
   951                           ;!BITBANK2            60      0       0      10        0.0%
   952                           ;!BANK2               60      0       0      11        0.0%
   953                           ;!DATA                 0      0      49      12        0.0%
   954                           
   955                           	global	_main
   956                           
   957 ;; *************** function _main *****************
   958 ;; Defined at:
   959 ;;		line 73 in file "Prin3.c"
   960 ;; Parameters:    Size  Location     Type
   961 ;;		None
   962 ;; Auto vars:     Size  Location     Type
   963 ;;		None
   964 ;; Return value:  Size  Location     Type
   965 ;;                  1    wreg      void 
   966 ;; Registers used:
   967 ;;		wreg, status,2, status,0, btemp+1, pclath, cstack
   968 ;; Tracked objects:
   969 ;;		On entry : B00/0
   970 ;;		On exit  : 0/0
   971 ;;		Unchanged: 0/0
   972 ;; Data sizes:     COMMON   BANK0   BANK1   BANK3   BANK2
   973 ;;      Params:         0       0       0       0       0
   974 ;;      Locals:         0       0       0       0       0
   975 ;;      Temps:          0       2       0       0       0
   976 ;;      Totals:         0       2       0       0       0
   977 ;;Total ram usage:        2 bytes
   978 ;; Hardware stack levels required when called:    4
   979 ;; This function calls:
   980 ;;		_I2C_Slave_Init
   981 ;;		_mide_distancia
   982 ;; This function is called by:
   983 ;;		Startup code after reset
   984 ;; This function uses a non-reentrant model
   985 ;;
   986                           psect	maintext,global,class=CODE,delta=2,split=1,group=0
   987                           	file	"Prin3.c"
   988                           	line	73
   989                           global __pmaintext
   990                           __pmaintext:	;psect for function _main
   991  061D                     psect	maintext
   992                           	file	"Prin3.c"
   993                           	line	73
   994                           	global	__size_of_main
   995                           	__size_of_main	equ	__end_of_main-_main
   996  0030                     	
   997                           _main:	
   998  061D                     ;incstack = 0
   999                           	opt	stack 4
  1000                           ; Regs used in _main: [wreg+status,2+status,0+btemp+1+pclath+cstack]
  1001                           	line	74
  1002                           	
  1003                           l1495:	
  1004  061D                     ;Prin3.c: 74:     I2C_Slave_Init(0x60);
  1005                           	movlw	low(060h)
  1006  061D  3060               	fcall	_I2C_Slave_Init
  1007  061E  120A  118A  2679  120A  118A  	line	76
  1008                           	
  1009                           l1497:	
  1010  0623                     ;Prin3.c: 76:     T1CONbits.T1CKPS = 0b00;
  1011                           	movlw	((0 & ((1<<2)-1))<<4)|not (((1<<2)-1)<<4)
  1012  0623  30CF               	bcf	status, 5	;RP0=0, select bank0
  1013  0624  1283               	bcf	status, 6	;RP1=0, select bank0
  1014  0625  1303               	andwf	(16),f	;volatile
  1015  0626  0590               	line	77
  1016                           	
  1017                           l1499:	
  1018  0627                     ;Prin3.c: 77:     T1CONbits.T1OSCEN = 1;
  1019                           	bsf	(16),3	;volatile
  1020  0627  1590               	line	78
  1021                           	
  1022                           l1501:	
  1023  0628                     ;Prin3.c: 78:     T1CONbits.TMR1CS = 0;
  1024                           	bcf	(16),1	;volatile
  1025  0628  1090               	line	80
  1026                           	
  1027                           l1503:	
  1028  0629                     ;Prin3.c: 80:     TRISAbits.TRISA0 = 1;
  1029                           	bsf	status, 5	;RP0=1, select bank1
  1030  0629  1683               	bcf	status, 6	;RP1=0, select bank1
  1031  062A  1303               	bsf	(133)^080h,0	;volatile
  1032  062B  1405               	line	81
  1033                           	
  1034                           l1505:	
  1035  062C                     ;Prin3.c: 81:     TRISAbits.TRISA1 = 0;
  1036                           	bcf	(133)^080h,1	;volatile
  1037  062C  1085               	line	82
  1038                           	
  1039                           l1507:	
  1040  062D                     ;Prin3.c: 82:     PORTAbits.RA1 = 0;
  1041                           	bcf	status, 5	;RP0=0, select bank0
  1042  062D  1283               	bcf	status, 6	;RP1=0, select bank0
  1043  062E  1303               	bcf	(5),1	;volatile
  1044  062F  1085               	line	83
  1045                           	
  1046                           l1509:	
  1047  0630                     ;Prin3.c: 83:     ANSEL = 0b00000000;
  1048                           	bsf	status, 5	;RP0=1, select bank3
  1049  0630  1683               	bsf	status, 6	;RP1=1, select bank3
  1050  0631  1703               	clrf	(392)^0180h	;volatile
  1051  0632  0188               	goto	l1511
  1052  0633  2E34               	line	84
  1053                           ;Prin3.c: 84:     while(1){
  1054                           	
  1055                           l118:	
  1056  0634                     	line	85
  1057                           	
  1058                           l1511:	
  1059  0634                     ;Prin3.c: 85:       TMR1H = 0;
  1060                           	bcf	status, 5	;RP0=0, select bank0
  1061  0634  1283               	bcf	status, 6	;RP1=0, select bank0
  1062  0635  1303               	clrf	(15)	;volatile
  1063  0636  018F               	line	86
  1064                           	
  1065                           l1513:	
  1066  0637                     ;Prin3.c: 86:       TMR1L = 0;
  1067                           	clrf	(14)	;volatile
  1068  0637  018E               	line	87
  1069                           	
  1070                           l1515:	
  1071  0638                     ;Prin3.c: 87:       mide_distancia();
  1072                           	fcall	_mide_distancia
  1073  0638  120A  118A  2454  120A  118A  	line	88
  1074                           	
  1075                           l1517:	
  1076  063D                     ;Prin3.c: 88:       _delay((unsigned long)((30)*(4000000/4000.0)));
  1077                           	opt asmopt_push
  1078                           opt asmopt_off
  1079                           movlw	39
  1080  063D  3027               	bcf	status, 5	;RP0=0, select bank0
  1081  063E  1283               	bcf	status, 6	;RP1=0, select bank0
  1082  063F  1303               movwf	((??_main+0)+0+1),f
  1083  0640  00D9               	movlw	244
  1084  0641  30F4               movwf	((??_main+0)+0),f
  1085  0642  00D8               	u1907:
  1086  0643                     decfsz	((??_main+0)+0),f
  1087  0643  0BD8               	goto	u1907
  1088  0644  2E43               	decfsz	((??_main+0)+0+1),f
  1089  0645  0BD9               	goto	u1907
  1090  0646  2E43               	nop
  1091  0647  0000               opt asmopt_pop
  1092                           
  1093                           	goto	l1511
  1094  0648  2E34               	line	89
  1095                           ;Prin3.c: 89:    }
  1096                           	
  1097                           l119:	
  1098  0649                     	goto	l1511
  1099  0649  2E34               	
  1100                           l120:	
  1101  064A                     	line	90
  1102                           	
  1103                           l121:	
  1104  064A                     	global	start
  1105                           	ljmp	start
  1106  064A  120A  118A  280C   	opt stack 0
  1107                           GLOBAL	__end_of_main
  1108                           	__end_of_main:
  1109  064D                     	signat	_main,89
  1110                           	global	_mide_distancia
  1111                           
  1112 ;; *************** function _mide_distancia *****************
  1113 ;; Defined at:
  1114 ;;		line 92 in file "Prin3.c"
  1115 ;; Parameters:    Size  Location     Type
  1116 ;;		None
  1117 ;; Auto vars:     Size  Location     Type
  1118 ;;		None
  1119 ;; Return value:  Size  Location     Type
  1120 ;;                  1    wreg      void 
  1121 ;; Registers used:
  1122 ;;		wreg, status,2, status,0, btemp+1, pclath, cstack
  1123 ;; Tracked objects:
  1124 ;;		On entry : 0/0
  1125 ;;		On exit  : 0/0
  1126 ;;		Unchanged: 0/0
  1127 ;; Data sizes:     COMMON   BANK0   BANK1   BANK3   BANK2
  1128 ;;      Params:         0       0       0       0       0
  1129 ;;      Locals:         0       8       0       0       0
  1130 ;;      Temps:          0       3       0       0       0
  1131 ;;      Totals:         0      11       0       0       0
  1132 ;;Total ram usage:       11 bytes
  1133 ;; Hardware stack levels used:    1
  1134 ;; Hardware stack levels required when called:    3
  1135 ;; This function calls:
  1136 ;;		___flmul
  1137 ;;		___fltol
  1138 ;;		___xxtofl
  1139 ;; This function is called by:
  1140 ;;		_main
  1141 ;; This function uses a non-reentrant model
  1142 ;;
  1143                           psect	text1,local,class=CODE,delta=2,merge=1,group=0
  1144                           	line	92
  1145                           global __ptext1
  1146                           __ptext1:	;psect for function _mide_distancia
  1147  0454                     psect	text1
  1148                           	file	"Prin3.c"
  1149                           	line	92
  1150                           	global	__size_of_mide_distancia
  1151                           	__size_of_mide_distancia	equ	__end_of_mide_distancia-_mide_distancia
  1152  00C2                     	
  1153                           _mide_distancia:	
  1154  0454                     ;incstack = 0
  1155                           	opt	stack 4
  1156                           ; Regs used in _mide_distancia: [wreg+status,2+status,0+btemp+1+pclath+cstack]
  1157                           	line	93
  1158                           	
  1159                           l1473:	
  1160  0454                     ;Prin3.c: 93:    PORTAbits.RA1 = 1;
  1161                           	bcf	status, 5	;RP0=0, select bank0
  1162  0454  1283               	bcf	status, 6	;RP1=0, select bank0
  1163  0455  1303               	bsf	(5),1	;volatile
  1164  0456  1485               	line	94
  1165                           	
  1166                           l1475:	
  1167  0457                     ;Prin3.c: 94:    _delay((unsigned long)((10)*(4000000/4000000.0)));
  1168                           	opt asmopt_push
  1169                           opt asmopt_off
  1170                           	movlw	2
  1171  0457  3002               	bcf	status, 5	;RP0=0, select bank0
  1172  0458  1283               	bcf	status, 6	;RP1=0, select bank0
  1173  0459  1303               movwf	((??_mide_distancia+0)+0),f
  1174  045A  00CD               	u1917:
  1175  045B                     decfsz	(??_mide_distancia+0)+0,f
  1176  045B  0BCD               	goto	u1917
  1177  045C  2C5B               	nop
  1178  045D  0000               opt asmopt_pop
  1179                           
  1180                           	line	95
  1181                           	
  1182                           l1477:	
  1183  045E                     ;Prin3.c: 95:    PORTAbits.RA1 = 0;
  1184                           	bcf	status, 5	;RP0=0, select bank0
  1185  045E  1283               	bcf	status, 6	;RP1=0, select bank0
  1186  045F  1303               	bcf	(5),1	;volatile
  1187  0460  1085               	line	96
  1188                           ;Prin3.c: 96:    while(!PORTAbits.RA0){
  1189                           	goto	l124
  1190  0461  2C62               	
  1191                           l125:	
  1192  0462                     	line	97
  1193                           ;Prin3.c: 97:    }
  1194                           	
  1195                           l124:	
  1196  0462                     	line	96
  1197                           ;Prin3.c: 96:    while(!PORTAbits.RA0){
  1198                           	btfss	(5),0	;volatile
  1199  0462  1C05               	goto	u1851
  1200  0463  2C65               	goto	u1850
  1201  0464  2C66               u1851:
  1202  0465                     	goto	l124
  1203  0465  2C62               u1850:
  1204  0466                     	
  1205                           l126:	
  1206  0466                     	line	98
  1207                           ;Prin3.c: 98:    TMR1ON = 1;
  1208                           	bsf	(128/8),(128)&7	;volatile
  1209  0466  1410               	line	99
  1210                           ;Prin3.c: 99:    while(PORTAbits.RA0 && !TMR1IF){
  1211                           	goto	l127
  1212  0467  2C68               	
  1213                           l128:	
  1214  0468                     	line	100
  1215                           ;Prin3.c: 100:    }
  1216                           	
  1217                           l127:	
  1218  0468                     	line	99
  1219                           ;Prin3.c: 99:    while(PORTAbits.RA0 && !TMR1IF){
  1220                           	btfss	(5),0	;volatile
  1221  0468  1C05               	goto	u1861
  1222  0469  2C6B               	goto	u1860
  1223  046A  2C6C               u1861:
  1224  046B                     	goto	l131
  1225  046B  2C71               u1860:
  1226  046C                     	
  1227                           l1479:	
  1228  046C                     	btfss	(96/8),(96)&7	;volatile
  1229  046C  1C0C               	goto	u1871
  1230  046D  2C6F               	goto	u1870
  1231  046E  2C70               u1871:
  1232  046F                     	goto	l127
  1233  046F  2C68               u1870:
  1234  0470                     	goto	l131
  1235  0470  2C71               	
  1236                           l130:	
  1237  0471                     	
  1238                           l131:	
  1239  0471                     	line	101
  1240                           ;Prin3.c: 101:    TMR1ON = 0;
  1241                           	bcf	(128/8),(128)&7	;volatile
  1242  0471  1010               	line	102
  1243                           ;Prin3.c: 102:    if(!TMR1IF){
  1244                           	btfsc	(96/8),(96)&7	;volatile
  1245  0472  180C               	goto	u1881
  1246  0473  2C75               	goto	u1880
  1247  0474  2C76               u1881:
  1248  0475                     	goto	l1483
  1249  0475  2C8C               u1880:
  1250  0476                     	line	103
  1251                           	
  1252                           l1481:	
  1253  0476                     ;Prin3.c: 103:        tiempo_eco = TMR1H;
  1254                           	movf	(15),w	;volatile
  1255  0476  080F               	movwf	(??_mide_distancia+0)+0
  1256  0477  00CD               	clrf	(??_mide_distancia+0)+0+1
  1257  0478  01CE               	movf	0+(??_mide_distancia+0)+0,w
  1258  0479  084D               	movwf	(_tiempo_eco)
  1259  047A  00DC               	movf	1+(??_mide_distancia+0)+0,w
  1260  047B  084E               	movwf	(_tiempo_eco+1)
  1261  047C  00DD               	line	104
  1262                           ;Prin3.c: 104:        tiempo_eco<<= 8;
  1263                           	movlw	08h
  1264  047D  3008               	
  1265                           u1895:
  1266  047E                     	clrc
  1267  047E  1003               	rlf	(_tiempo_eco),f
  1268  047F  0DDC               	rlf	(_tiempo_eco+1),f
  1269  0480  0DDD               	addlw	-1
  1270  0481  3EFF               	skipz
  1271  0482  1D03               	goto	u1895
  1272  0483  2C7E               	line	105
  1273                           ;Prin3.c: 105:        tiempo_eco |= TMR1L;
  1274                           	movf	(14),w	;volatile
  1275  0484  080E               	movwf	(??_mide_distancia+0)+0
  1276  0485  00CD               	clrf	(??_mide_distancia+0)+0+1
  1277  0486  01CE               	movf	0+(??_mide_distancia+0)+0,w
  1278  0487  084D               	iorwf	(_tiempo_eco),f
  1279  0488  04DC               	movf	1+(??_mide_distancia+0)+0,w
  1280  0489  084E               	iorwf	(_tiempo_eco+1),f
  1281  048A  04DD               	line	106
  1282                           ;Prin3.c: 106:    }else{
  1283                           	goto	l1487
  1284  048B  2C90               	
  1285                           l132:	
  1286  048C                     	line	107
  1287                           	
  1288                           l1483:	
  1289  048C                     ;Prin3.c: 107:        tiempo_eco = 0;
  1290                           	clrf	(_tiempo_eco)
  1291  048C  01DC               	clrf	(_tiempo_eco+1)
  1292  048D  01DD               	line	108
  1293                           	
  1294                           l1485:	
  1295  048E                     ;Prin3.c: 108:        TMR1IF = 0;
  1296                           	bcf	(96/8),(96)&7	;volatile
  1297  048E  100C               	goto	l1487
  1298  048F  2C90               	line	109
  1299                           ;Prin3.c: 109:    }
  1300                           	
  1301                           l133:	
  1302  0490                     	line	110
  1303                           	
  1304                           l1487:	
  1305  0490                     ;Prin3.c: 110:    distancia = (tiempo_eco*0.5*34*0.001);
  1306                           	movf	(_tiempo_eco),w
  1307  0490  085C               	movwf	(___xxtofl@val)
  1308  0491  00F3               	movf	(_tiempo_eco+1),w
  1309  0492  085D               	movwf	((___xxtofl@val))+1
  1310  0493  00F4               	clrf	2+((___xxtofl@val))
  1311  0494  01F5               	clrf	3+((___xxtofl@val))
  1312  0495  01F6               	movlw	low(0)
  1313  0496  3000               	fcall	___xxtofl
  1314  0497  120A  118A  2390  120A  118A  	movf	(3+(?___xxtofl)),w
  1315  049C  0876               	bcf	status, 5	;RP0=0, select bank0
  1316  049D  1283               	bcf	status, 6	;RP1=0, select bank0
  1317  049E  1303               	movwf	(___flmul@a+3)
  1318  049F  00B1               	movf	(2+(?___xxtofl)),w
  1319  04A0  0875               	movwf	(___flmul@a+2)
  1320  04A1  00B0               	movf	(1+(?___xxtofl)),w
  1321  04A2  0874               	movwf	(___flmul@a+1)
  1322  04A3  00AF               	movf	(0+(?___xxtofl)),w
  1323  04A4  0873               	movwf	(___flmul@a)
  1324  04A5  00AE               
  1325                           	movlw	0x3f
  1326  04A6  303F               	movwf	(___flmul@b+3)
  1327  04A7  00AD               	movlw	0x0
  1328  04A8  3000               	movwf	(___flmul@b+2)
  1329  04A9  00AC               	movlw	0x0
  1330  04AA  3000               	movwf	(___flmul@b+1)
  1331  04AB  00AB               	movlw	0x0
  1332  04AC  3000               	movwf	(___flmul@b)
  1333  04AD  00AA               
  1334                           	fcall	___flmul
  1335  04AE  120A  118A  201B  120A  118A  	bcf	status, 5	;RP0=0, select bank0
  1336  04B3  1283               	bcf	status, 6	;RP1=0, select bank0
  1337  04B4  1303               	movf	(3+(?___flmul)),w
  1338  04B5  082D               	movwf	(_mide_distancia$1018+3)
  1339  04B6  00D3               	movf	(2+(?___flmul)),w
  1340  04B7  082C               	movwf	(_mide_distancia$1018+2)
  1341  04B8  00D2               	movf	(1+(?___flmul)),w
  1342  04B9  082B               	movwf	(_mide_distancia$1018+1)
  1343  04BA  00D1               	movf	(0+(?___flmul)),w
  1344  04BB  082A               	movwf	(_mide_distancia$1018)
  1345  04BC  00D0               
  1346                           	
  1347                           l1489:	
  1348  04BD                     ;Prin3.c: 110:    distancia = (tiempo_eco*0.5*34*0.001);
  1349                           	movf	(_mide_distancia$1018+3),w
  1350  04BD  0853               	movwf	(___flmul@a+3)
  1351  04BE  00B1               	movf	(_mide_distancia$1018+2),w
  1352  04BF  0852               	movwf	(___flmul@a+2)
  1353  04C0  00B0               	movf	(_mide_distancia$1018+1),w
  1354  04C1  0851               	movwf	(___flmul@a+1)
  1355  04C2  00AF               	movf	(_mide_distancia$1018),w
  1356  04C3  0850               	movwf	(___flmul@a)
  1357  04C4  00AE               
  1358                           	movlw	0x42
  1359  04C5  3042               	movwf	(___flmul@b+3)
  1360  04C6  00AD               	movlw	0x8
  1361  04C7  3008               	movwf	(___flmul@b+2)
  1362  04C8  00AC               	movlw	0x0
  1363  04C9  3000               	movwf	(___flmul@b+1)
  1364  04CA  00AB               	movlw	0x0
  1365  04CB  3000               	movwf	(___flmul@b)
  1366  04CC  00AA               
  1367                           	fcall	___flmul
  1368  04CD  120A  118A  201B  120A  118A  	bcf	status, 5	;RP0=0, select bank0
  1369  04D2  1283               	bcf	status, 6	;RP1=0, select bank0
  1370  04D3  1303               	movf	(3+(?___flmul)),w
  1371  04D4  082D               	movwf	(_mide_distancia$1019+3)
  1372  04D5  00D7               	movf	(2+(?___flmul)),w
  1373  04D6  082C               	movwf	(_mide_distancia$1019+2)
  1374  04D7  00D6               	movf	(1+(?___flmul)),w
  1375  04D8  082B               	movwf	(_mide_distancia$1019+1)
  1376  04D9  00D5               	movf	(0+(?___flmul)),w
  1377  04DA  082A               	movwf	(_mide_distancia$1019)
  1378  04DB  00D4               
  1379                           	
  1380                           l1491:	
  1381  04DC                     ;Prin3.c: 110:    distancia = (tiempo_eco*0.5*34*0.001);
  1382                           	movf	(_mide_distancia$1019+3),w
  1383  04DC  0857               	movwf	(___flmul@a+3)
  1384  04DD  00B1               	movf	(_mide_distancia$1019+2),w
  1385  04DE  0856               	movwf	(___flmul@a+2)
  1386  04DF  00B0               	movf	(_mide_distancia$1019+1),w
  1387  04E0  0855               	movwf	(___flmul@a+1)
  1388  04E1  00AF               	movf	(_mide_distancia$1019),w
  1389  04E2  0854               	movwf	(___flmul@a)
  1390  04E3  00AE               
  1391                           	movlw	0x3a
  1392  04E4  303A               	movwf	(___flmul@b+3)
  1393  04E5  00AD               	movlw	0x83
  1394  04E6  3083               	movwf	(___flmul@b+2)
  1395  04E7  00AC               	movlw	0x12
  1396  04E8  3012               	movwf	(___flmul@b+1)
  1397  04E9  00AB               	movlw	0x6f
  1398  04EA  306F               	movwf	(___flmul@b)
  1399  04EB  00AA               
  1400                           	fcall	___flmul
  1401  04EC  120A  118A  201B  120A  118A  	bcf	status, 5	;RP0=0, select bank0
  1402  04F1  1283               	bcf	status, 6	;RP1=0, select bank0
  1403  04F2  1303               	movf	(3+(?___flmul)),w
  1404  04F3  082D               	movwf	(___fltol@f1+3)
  1405  04F4  00C7               	movf	(2+(?___flmul)),w
  1406  04F5  082C               	movwf	(___fltol@f1+2)
  1407  04F6  00C6               	movf	(1+(?___flmul)),w
  1408  04F7  082B               	movwf	(___fltol@f1+1)
  1409  04F8  00C5               	movf	(0+(?___flmul)),w
  1410  04F9  082A               	movwf	(___fltol@f1)
  1411  04FA  00C4               
  1412                           	fcall	___fltol
  1413  04FB  120A  118A  2516  120A  118A  	bcf	status, 5	;RP0=0, select bank0
  1414  0500  1283               	bcf	status, 6	;RP1=0, select bank0
  1415  0501  1303               	movf	(1+(?___fltol)),w
  1416  0502  0845               	movwf	(_distancia+1)
  1417  0503  00DB               	movf	(0+(?___fltol)),w
  1418  0504  0844               	movwf	(_distancia)
  1419  0505  00DA               	line	111
  1420                           	
  1421                           l1493:	
  1422  0506                     ;Prin3.c: 111:    _delay((unsigned long)((200)*(4000000/4000.0)));
  1423                           	opt asmopt_push
  1424                           opt asmopt_off
  1425                           movlw  2
  1426  0506  3002               	bcf	status, 5	;RP0=0, select bank0
  1427  0507  1283               	bcf	status, 6	;RP1=0, select bank0
  1428  0508  1303               movwf	((??_mide_distancia+0)+0+2),f
  1429  0509  00CF               movlw	4
  1430  050A  3004               movwf	((??_mide_distancia+0)+0+1),f
  1431  050B  00CE               	movlw	185
  1432  050C  30B9               movwf	((??_mide_distancia+0)+0),f
  1433  050D  00CD               	u1927:
  1434  050E                     decfsz	((??_mide_distancia+0)+0),f
  1435  050E  0BCD               	goto	u1927
  1436  050F  2D0E               	decfsz	((??_mide_distancia+0)+0+1),f
  1437  0510  0BCE               	goto	u1927
  1438  0511  2D0E               	decfsz	((??_mide_distancia+0)+0+2),f
  1439  0512  0BCF               	goto	u1927
  1440  0513  2D0E               	nop2
  1441  0514  2D15               opt asmopt_pop
  1442                           
  1443                           	line	112
  1444                           	
  1445                           l134:	
  1446  0515                     	return
  1447  0515  0008               	opt stack 0
  1448                           GLOBAL	__end_of_mide_distancia
  1449                           	__end_of_mide_distancia:
  1450  0516                     	signat	_mide_distancia,89
  1451                           	global	___xxtofl
  1452                           
  1453 ;; *************** function ___xxtofl *****************
  1454 ;; Defined at:
  1455 ;;		line 10 in file "C:\Program Files (x86)\Microchip\xc8\v2.00\pic\sources\c90\common\xxtofl.c"
  1456 ;; Parameters:    Size  Location     Type
  1457 ;;  sign            1    wreg     unsigned char 
  1458 ;;  val             4    3[COMMON] long 
  1459 ;; Auto vars:     Size  Location     Type
  1460 ;;  sign            1    4[BANK0 ] unsigned char 
  1461 ;;  arg             4    6[BANK0 ] unsigned long 
  1462 ;;  exp             1    5[BANK0 ] unsigned char 
  1463 ;; Return value:  Size  Location     Type
  1464 ;;                  4    3[COMMON] unsigned char 
  1465 ;; Registers used:
  1466 ;;		wreg, status,2, status,0
  1467 ;; Tracked objects:
  1468 ;;		On entry : 0/0
  1469 ;;		On exit  : 0/0
  1470 ;;		Unchanged: 0/0
  1471 ;; Data sizes:     COMMON   BANK0   BANK1   BANK3   BANK2
  1472 ;;      Params:         4       0       0       0       0
  1473 ;;      Locals:         0       6       0       0       0
  1474 ;;      Temps:          0       4       0       0       0
  1475 ;;      Totals:         4      10       0       0       0
  1476 ;;Total ram usage:       14 bytes
  1477 ;; Hardware stack levels used:    1
  1478 ;; Hardware stack levels required when called:    1
  1479 ;; This function calls:
  1480 ;;		Nothing
  1481 ;; This function is called by:
  1482 ;;		_mide_distancia
  1483 ;; This function uses a non-reentrant model
  1484 ;;
  1485                           psect	text2,local,class=CODE,delta=2,merge=1,group=1
  1486                           	file	"C:\Program Files (x86)\Microchip\xc8\v2.00\pic\sources\c90\common\xxtofl.c"
  1487                           	line	10
  1488                           global __ptext2
  1489                           __ptext2:	;psect for function ___xxtofl
  1490  0390                     psect	text2
  1491                           	file	"C:\Program Files (x86)\Microchip\xc8\v2.00\pic\sources\c90\common\xxtofl.c"
  1492                           	line	10
  1493                           	global	__size_of___xxtofl
  1494                           	__size_of___xxtofl	equ	__end_of___xxtofl-___xxtofl
  1495  00C4                     	
  1496                           ___xxtofl:	
  1497  0390                     ;incstack = 0
  1498                           	opt	stack 5
  1499                           ; Regs used in ___xxtofl: [wreg+status,2+status,0]
  1500                           ;___xxtofl@sign stored from wreg
  1501                           	bcf	status, 5	;RP0=0, select bank0
  1502  0390  1283               	bcf	status, 6	;RP1=0, select bank0
  1503  0391  1303               	movwf	(___xxtofl@sign)
  1504  0392  00A4               	line	15
  1505                           	
  1506                           l1429:	
  1507  0393                     	movf	((___xxtofl@sign)),w
  1508  0393  0824               	btfsc	status,2
  1509  0394  1903               	goto	u1711
  1510  0395  2B97               	goto	u1710
  1511  0396  2B98               u1711:
  1512  0397                     	goto	l1435
  1513  0397  2BAC               u1710:
  1514  0398                     	
  1515                           l1431:	
  1516  0398                     	btfss	(___xxtofl@val+3),7
  1517  0398  1FF6               	goto	u1721
  1518  0399  2B9B               	goto	u1720
  1519  039A  2B9C               u1721:
  1520  039B                     	goto	l1435
  1521  039B  2BAC               u1720:
  1522  039C                     	line	16
  1523                           	
  1524                           l1433:	
  1525  039C                     	comf	(___xxtofl@val)+0,w
  1526  039C  0973               	movwf	(___xxtofl@arg)
  1527  039D  00A6               	comf	(___xxtofl@val)+1,w
  1528  039E  0974               	movwf	(___xxtofl@arg+1)
  1529  039F  00A7               	comf	(___xxtofl@val)+2,w
  1530  03A0  0975               	movwf	(___xxtofl@arg+2)
  1531  03A1  00A8               	comf	(___xxtofl@val)+3,w
  1532  03A2  0976               	movwf	(___xxtofl@arg+3)
  1533  03A3  00A9               	incf	(___xxtofl@arg),f
  1534  03A4  0AA6               	skipnz
  1535  03A5  1903               	incf	(___xxtofl@arg+1),f
  1536  03A6  0AA7               	skipnz
  1537  03A7  1903               	incf	(___xxtofl@arg+2),f
  1538  03A8  0AA8               	skipnz
  1539  03A9  1903               	incf	(___xxtofl@arg+3),f
  1540  03AA  0AA9               	line	17
  1541                           	goto	l628
  1542  03AB  2BB4               	line	18
  1543                           	
  1544                           l627:	
  1545  03AC                     	line	19
  1546                           	
  1547                           l1435:	
  1548  03AC                     	movf	(___xxtofl@val+3),w
  1549  03AC  0876               	movwf	(___xxtofl@arg+3)
  1550  03AD  00A9               	movf	(___xxtofl@val+2),w
  1551  03AE  0875               	movwf	(___xxtofl@arg+2)
  1552  03AF  00A8               	movf	(___xxtofl@val+1),w
  1553  03B0  0874               	movwf	(___xxtofl@arg+1)
  1554  03B1  00A7               	movf	(___xxtofl@val),w
  1555  03B2  0873               	movwf	(___xxtofl@arg)
  1556  03B3  00A6               
  1557                           	line	20
  1558                           	
  1559                           l628:	
  1560  03B4                     	line	21
  1561                           	movf	(___xxtofl@val+3),w
  1562  03B4  0876               	iorwf	(___xxtofl@val+2),w
  1563  03B5  0475               	iorwf	(___xxtofl@val+1),w
  1564  03B6  0474               	iorwf	(___xxtofl@val),w
  1565  03B7  0473               	skipz
  1566  03B8  1D03               	goto	u1731
  1567  03B9  2BBB               	goto	u1730
  1568  03BA  2BBC               u1731:
  1569  03BB                     	goto	l1441
  1570  03BB  2BC6               u1730:
  1571  03BC                     	line	22
  1572                           	
  1573                           l1437:	
  1574  03BC                     	movlw	0x0
  1575  03BC  3000               	movwf	(?___xxtofl+3)
  1576  03BD  00F6               	movlw	0x0
  1577  03BE  3000               	movwf	(?___xxtofl+2)
  1578  03BF  00F5               	movlw	0x0
  1579  03C0  3000               	movwf	(?___xxtofl+1)
  1580  03C1  00F4               	movlw	0x0
  1581  03C2  3000               	movwf	(?___xxtofl)
  1582  03C3  00F3               
  1583                           	goto	l630
  1584  03C4  2C53               	
  1585                           l1439:	
  1586  03C5                     	goto	l630
  1587  03C5  2C53               	
  1588                           l629:	
  1589  03C6                     	line	23
  1590                           	
  1591                           l1441:	
  1592  03C6                     	movlw	low(096h)
  1593  03C6  3096               	movwf	(??___xxtofl+0)+0
  1594  03C7  00A0               	movf	(??___xxtofl+0)+0,w
  1595  03C8  0820               	movwf	(___xxtofl@exp)
  1596  03C9  00A5               	line	24
  1597                           	goto	l1445
  1598  03CA  2BD9               	
  1599                           l632:	
  1600  03CB                     	line	25
  1601                           	
  1602                           l1443:	
  1603  03CB                     	movlw	low(01h)
  1604  03CB  3001               	movwf	(??___xxtofl+0)+0
  1605  03CC  00A0               	movf	(??___xxtofl+0)+0,w
  1606  03CD  0820               	addwf	(___xxtofl@exp),f
  1607  03CE  07A5               	line	26
  1608                           	movlw	01h
  1609  03CF  3001               u1745:
  1610  03D0                     	clrc
  1611  03D0  1003               	rrf	(___xxtofl@arg+3),f
  1612  03D1  0CA9               	rrf	(___xxtofl@arg+2),f
  1613  03D2  0CA8               	rrf	(___xxtofl@arg+1),f
  1614  03D3  0CA7               	rrf	(___xxtofl@arg),f
  1615  03D4  0CA6               	addlw	-1
  1616  03D5  3EFF               	skipz
  1617  03D6  1D03               	goto	u1745
  1618  03D7  2BD0               
  1619                           	goto	l1445
  1620  03D8  2BD9               	line	27
  1621                           	
  1622                           l631:	
  1623  03D9                     	line	24
  1624                           	
  1625                           l1445:	
  1626  03D9                     	movlw	high highword(0FE000000h)
  1627  03D9  30FE               	andwf	(___xxtofl@arg+3),w
  1628  03DA  0529               	btfss	status,2
  1629  03DB  1D03               	goto	u1751
  1630  03DC  2BDE               	goto	u1750
  1631  03DD  2BDF               u1751:
  1632  03DE                     	goto	l1443
  1633  03DE  2BCB               u1750:
  1634  03DF                     	goto	l634
  1635  03DF  2BFC               	
  1636                           l633:	
  1637  03E0                     	line	28
  1638                           	goto	l634
  1639  03E0  2BFC               	
  1640                           l635:	
  1641  03E1                     	line	29
  1642                           	
  1643                           l1447:	
  1644  03E1                     	movlw	low(01h)
  1645  03E1  3001               	movwf	(??___xxtofl+0)+0
  1646  03E2  00A0               	movf	(??___xxtofl+0)+0,w
  1647  03E3  0820               	addwf	(___xxtofl@exp),f
  1648  03E4  07A5               	line	30
  1649                           	
  1650                           l1449:	
  1651  03E5                     	movlw	01h
  1652  03E5  3001               	addwf	(___xxtofl@arg),f
  1653  03E6  07A6               	movlw	0
  1654  03E7  3000               	skipnc
  1655  03E8  1803               movlw 1
  1656  03E9  3001               	addwf	(___xxtofl@arg+1),f
  1657  03EA  07A7               	movlw	0
  1658  03EB  3000               	skipnc
  1659  03EC  1803               movlw 1
  1660  03ED  3001               	addwf	(___xxtofl@arg+2),f
  1661  03EE  07A8               	movlw	0
  1662  03EF  3000               	skipnc
  1663  03F0  1803               movlw 1
  1664  03F1  3001               	addwf	(___xxtofl@arg+3),f
  1665  03F2  07A9               	line	31
  1666                           	
  1667                           l1451:	
  1668  03F3                     	movlw	01h
  1669  03F3  3001               u1765:
  1670  03F4                     	clrc
  1671  03F4  1003               	rrf	(___xxtofl@arg+3),f
  1672  03F5  0CA9               	rrf	(___xxtofl@arg+2),f
  1673  03F6  0CA8               	rrf	(___xxtofl@arg+1),f
  1674  03F7  0CA7               	rrf	(___xxtofl@arg),f
  1675  03F8  0CA6               	addlw	-1
  1676  03F9  3EFF               	skipz
  1677  03FA  1D03               	goto	u1765
  1678  03FB  2BF4               
  1679                           	line	32
  1680                           	
  1681                           l634:	
  1682  03FC                     	line	28
  1683                           	movlw	high highword(0FF000000h)
  1684  03FC  30FF               	andwf	(___xxtofl@arg+3),w
  1685  03FD  0529               	btfss	status,2
  1686  03FE  1D03               	goto	u1771
  1687  03FF  2C01               	goto	u1770
  1688  0400  2C02               u1771:
  1689  0401                     	goto	l1447
  1690  0401  2BE1               u1770:
  1691  0402                     	goto	l1455
  1692  0402  2C10               	
  1693                           l636:	
  1694  0403                     	line	33
  1695                           	goto	l1455
  1696  0403  2C10               	
  1697                           l638:	
  1698  0404                     	line	34
  1699                           	
  1700                           l1453:	
  1701  0404                     	movlw	01h
  1702  0404  3001               	subwf	(___xxtofl@exp),f
  1703  0405  02A5               	line	35
  1704                           	movlw	01h
  1705  0406  3001               	movwf	(??___xxtofl+0)+0
  1706  0407  00A0               u1785:
  1707  0408                     	clrc
  1708  0408  1003               	rlf	(___xxtofl@arg),f
  1709  0409  0DA6               	rlf	(___xxtofl@arg+1),f
  1710  040A  0DA7               	rlf	(___xxtofl@arg+2),f
  1711  040B  0DA8               	rlf	(___xxtofl@arg+3),f
  1712  040C  0DA9               	decfsz	(??___xxtofl+0)+0
  1713  040D  0BA0               	goto	u1785
  1714  040E  2C08               	goto	l1455
  1715  040F  2C10               	line	36
  1716                           	
  1717                           l637:	
  1718  0410                     	line	33
  1719                           	
  1720                           l1455:	
  1721  0410                     	btfsc	(___xxtofl@arg+2),(23)&7
  1722  0410  1BA8               	goto	u1791
  1723  0411  2C13               	goto	u1790
  1724  0412  2C14               u1791:
  1725  0413                     	goto	l641
  1726  0413  2C1B               u1790:
  1727  0414                     	
  1728                           l1457:	
  1729  0414                     	movlw	low(02h)
  1730  0414  3002               	subwf	(___xxtofl@exp),w
  1731  0415  0225               	skipnc
  1732  0416  1803               	goto	u1801
  1733  0417  2C19               	goto	u1800
  1734  0418  2C1A               u1801:
  1735  0419                     	goto	l1453
  1736  0419  2C04               u1800:
  1737  041A                     	goto	l641
  1738  041A  2C1B               	
  1739                           l640:	
  1740  041B                     	
  1741                           l641:	
  1742  041B                     	line	37
  1743                           	btfsc	(___xxtofl@exp),(0)&7
  1744  041B  1825               	goto	u1811
  1745  041C  2C1E               	goto	u1810
  1746  041D  2C1F               u1811:
  1747  041E                     	goto	l642
  1748  041E  2C27               u1810:
  1749  041F                     	line	38
  1750                           	
  1751                           l1459:	
  1752  041F                     	movlw	0FFh
  1753  041F  30FF               	andwf	(___xxtofl@arg),f
  1754  0420  05A6               	movlw	0FFh
  1755  0421  30FF               	andwf	(___xxtofl@arg+1),f
  1756  0422  05A7               	movlw	07Fh
  1757  0423  307F               	andwf	(___xxtofl@arg+2),f
  1758  0424  05A8               	movlw	0FFh
  1759  0425  30FF               	andwf	(___xxtofl@arg+3),f
  1760  0426  05A9               	
  1761                           l642:	
  1762  0427                     	line	39
  1763                           	clrc
  1764  0427  1003               	rrf	(___xxtofl@exp),f
  1765  0428  0CA5               
  1766                           	line	40
  1767                           	
  1768                           l1461:	
  1769  0429                     	movf	(___xxtofl@exp),w
  1770  0429  0825               	movwf	(??___xxtofl+0)+0
  1771  042A  00A0               	clrf	(??___xxtofl+0)+0+1
  1772  042B  01A1               	clrf	(??___xxtofl+0)+0+2
  1773  042C  01A2               	clrf	(??___xxtofl+0)+0+3
  1774  042D  01A3               	movlw	018h
  1775  042E  3018               u1825:
  1776  042F                     	clrc
  1777  042F  1003               	rlf	(??___xxtofl+0)+0,f
  1778  0430  0DA0               	rlf	(??___xxtofl+0)+1,f
  1779  0431  0DA1               	rlf	(??___xxtofl+0)+2,f
  1780  0432  0DA2               	rlf	(??___xxtofl+0)+3,f
  1781  0433  0DA3               u1820:
  1782  0434                     	addlw	-1
  1783  0434  3EFF               	skipz
  1784  0435  1D03               	goto	u1825
  1785  0436  2C2F               	movf	0+(??___xxtofl+0)+0,w
  1786  0437  0820               	iorwf	(___xxtofl@arg),f
  1787  0438  04A6               	movf	1+(??___xxtofl+0)+0,w
  1788  0439  0821               	iorwf	(___xxtofl@arg+1),f
  1789  043A  04A7               	movf	2+(??___xxtofl+0)+0,w
  1790  043B  0822               	iorwf	(___xxtofl@arg+2),f
  1791  043C  04A8               	movf	3+(??___xxtofl+0)+0,w
  1792  043D  0823               	iorwf	(___xxtofl@arg+3),f
  1793  043E  04A9               	line	41
  1794                           	
  1795                           l1463:	
  1796  043F                     	movf	((___xxtofl@sign)),w
  1797  043F  0824               	btfsc	status,2
  1798  0440  1903               	goto	u1831
  1799  0441  2C43               	goto	u1830
  1800  0442  2C44               u1831:
  1801  0443                     	goto	l1469
  1802  0443  2C4A               u1830:
  1803  0444                     	
  1804                           l1465:	
  1805  0444                     	btfss	(___xxtofl@val+3),7
  1806  0444  1FF6               	goto	u1841
  1807  0445  2C47               	goto	u1840
  1808  0446  2C48               u1841:
  1809  0447                     	goto	l1469
  1810  0447  2C4A               u1840:
  1811  0448                     	line	42
  1812                           	
  1813                           l1467:	
  1814  0448                     	bsf	(___xxtofl@arg)+(31/8),(31)&7
  1815  0448  17A9               	goto	l1469
  1816  0449  2C4A               	
  1817                           l643:	
  1818  044A                     	line	43
  1819                           	
  1820                           l1469:	
  1821  044A                     	movf	(___xxtofl@arg+3),w
  1822  044A  0829               	movwf	(?___xxtofl+3)
  1823  044B  00F6               	movf	(___xxtofl@arg+2),w
  1824  044C  0828               	movwf	(?___xxtofl+2)
  1825  044D  00F5               	movf	(___xxtofl@arg+1),w
  1826  044E  0827               	movwf	(?___xxtofl+1)
  1827  044F  00F4               	movf	(___xxtofl@arg),w
  1828  0450  0826               	movwf	(?___xxtofl)
  1829  0451  00F3               
  1830                           	goto	l630
  1831  0452  2C53               	
  1832                           l1471:	
  1833  0453                     	line	44
  1834                           	
  1835                           l630:	
  1836  0453                     	return
  1837  0453  0008               	opt stack 0
  1838                           GLOBAL	__end_of___xxtofl
  1839                           	__end_of___xxtofl:
  1840  0454                     	signat	___xxtofl,8316
  1841                           	global	___fltol
  1842                           
  1843 ;; *************** function ___fltol *****************
  1844 ;; Defined at:
  1845 ;;		line 43 in file "C:\Program Files (x86)\Microchip\xc8\v2.00\pic\sources\c90\common\fltol.c"
  1846 ;; Parameters:    Size  Location     Type
  1847 ;;  f1              4   36[BANK0 ] unsigned char 
  1848 ;; Auto vars:     Size  Location     Type
  1849 ;;  exp1            1    8[COMMON] unsigned char 
  1850 ;;  sign1           1    7[COMMON] unsigned char 
  1851 ;; Return value:  Size  Location     Type
  1852 ;;                  4   36[BANK0 ] long 
  1853 ;; Registers used:
  1854 ;;		wreg, status,2, status,0
  1855 ;; Tracked objects:
  1856 ;;		On entry : 0/0
  1857 ;;		On exit  : 0/0
  1858 ;;		Unchanged: 0/0
  1859 ;; Data sizes:     COMMON   BANK0   BANK1   BANK3   BANK2
  1860 ;;      Params:         0       4       0       0       0
  1861 ;;      Locals:         2       0       0       0       0
  1862 ;;      Temps:          0       5       0       0       0
  1863 ;;      Totals:         2       9       0       0       0
  1864 ;;Total ram usage:       11 bytes
  1865 ;; Hardware stack levels used:    1
  1866 ;; Hardware stack levels required when called:    1
  1867 ;; This function calls:
  1868 ;;		Nothing
  1869 ;; This function is called by:
  1870 ;;		_mide_distancia
  1871 ;; This function uses a non-reentrant model
  1872 ;;
  1873                           psect	text3,local,class=CODE,delta=2,merge=1,group=1
  1874                           	file	"C:\Program Files (x86)\Microchip\xc8\v2.00\pic\sources\c90\common\fltol.c"
  1875                           	line	43
  1876                           global __ptext3
  1877                           __ptext3:	;psect for function ___fltol
  1878  0516                     psect	text3
  1879                           	file	"C:\Program Files (x86)\Microchip\xc8\v2.00\pic\sources\c90\common\fltol.c"
  1880                           	line	43
  1881                           	global	__size_of___fltol
  1882                           	__size_of___fltol	equ	__end_of___fltol-___fltol
  1883  009C                     	
  1884                           ___fltol:	
  1885  0516                     ;incstack = 0
  1886                           	opt	stack 5
  1887                           ; Regs used in ___fltol: [wreg+status,2+status,0]
  1888                           	line	47
  1889                           	
  1890                           l1393:	
  1891  0516                     	bcf	status, 5	;RP0=0, select bank0
  1892  0516  1283               	bcf	status, 6	;RP1=0, select bank0
  1893  0517  1303               	movf	(___fltol@f1),w
  1894  0518  0844               	movwf	(??___fltol+0)+0
  1895  0519  00C8               	movf	(___fltol@f1+1),w
  1896  051A  0845               	movwf	((??___fltol+0)+0+1)
  1897  051B  00C9               	movf	(___fltol@f1+2),w
  1898  051C  0846               	movwf	((??___fltol+0)+0+2)
  1899  051D  00CA               	movf	(___fltol@f1+3),w
  1900  051E  0847               	movwf	((??___fltol+0)+0+3)
  1901  051F  00CB               	clrc
  1902  0520  1003               	rlf	(??___fltol+0)+2,w
  1903  0521  0D4A               	rlf	(??___fltol+0)+3,w
  1904  0522  0D4B               	movwf	(??___fltol+4)+0
  1905  0523  00CC               	movf	(??___fltol+4)+0,w
  1906  0524  084C               	movwf	(___fltol@exp1)
  1907  0525  00F8               	movf	(((___fltol@exp1))),w
  1908  0526  0878               	btfss	status,2
  1909  0527  1D03               	goto	u1611
  1910  0528  2D2A               	goto	u1610
  1911  0529  2D2B               u1611:
  1912  052A                     	goto	l1399
  1913  052A  2D35               u1610:
  1914  052B                     	line	48
  1915                           	
  1916                           l1395:	
  1917  052B                     	movlw	high highword(0)
  1918  052B  3000               	movwf	(?___fltol+3)
  1919  052C  00C7               	movlw	low highword(0)
  1920  052D  3000               	movwf	(?___fltol+2)
  1921  052E  00C6               	movlw	high(0)
  1922  052F  3000               	movwf	(?___fltol+1)
  1923  0530  00C5               	movlw	low(0)
  1924  0531  3000               	movwf	(?___fltol)
  1925  0532  00C4               
  1926                           	goto	l406
  1927  0533  2DB1               	
  1928                           l1397:	
  1929  0534                     	goto	l406
  1930  0534  2DB1               	
  1931                           l405:	
  1932  0535                     	line	49
  1933                           	
  1934                           l1399:	
  1935  0535                     	movf	(___fltol@f1),w
  1936  0535  0844               	movwf	(??___fltol+0)+0
  1937  0536  00C8               	movf	(___fltol@f1+1),w
  1938  0537  0845               	movwf	((??___fltol+0)+0+1)
  1939  0538  00C9               	movf	(___fltol@f1+2),w
  1940  0539  0846               	movwf	((??___fltol+0)+0+2)
  1941  053A  00CA               	movf	(___fltol@f1+3),w
  1942  053B  0847               	movwf	((??___fltol+0)+0+3)
  1943  053C  00CB               	movlw	01Fh
  1944  053D  301F               u1625:
  1945  053E                     	clrc
  1946  053E  1003               	rrf	(??___fltol+0)+3,f
  1947  053F  0CCB               	rrf	(??___fltol+0)+2,f
  1948  0540  0CCA               	rrf	(??___fltol+0)+1,f
  1949  0541  0CC9               	rrf	(??___fltol+0)+0,f
  1950  0542  0CC8               u1620:
  1951  0543                     	addlw	-1
  1952  0543  3EFF               	skipz
  1953  0544  1D03               	goto	u1625
  1954  0545  2D3E               	movf	0+(??___fltol+0)+0,w
  1955  0546  0848               	movwf	(??___fltol+4)+0
  1956  0547  00CC               	movf	(??___fltol+4)+0,w
  1957  0548  084C               	movwf	(___fltol@sign1)
  1958  0549  00F7               	line	50
  1959                           	
  1960                           l1401:	
  1961  054A                     	bsf	(___fltol@f1)+(23/8),(23)&7
  1962  054A  17C6               	line	51
  1963                           	
  1964                           l1403:	
  1965  054B                     	movlw	0FFh
  1966  054B  30FF               	andwf	(___fltol@f1),f
  1967  054C  05C4               	movlw	0FFh
  1968  054D  30FF               	andwf	(___fltol@f1+1),f
  1969  054E  05C5               	movlw	0FFh
  1970  054F  30FF               	andwf	(___fltol@f1+2),f
  1971  0550  05C6               	movlw	0
  1972  0551  3000               	andwf	(___fltol@f1+3),f
  1973  0552  05C7               	line	52
  1974                           	
  1975                           l1405:	
  1976  0553                     	movlw	096h
  1977  0553  3096               	subwf	(___fltol@exp1),f
  1978  0554  02F8               	line	53
  1979                           	
  1980                           l1407:	
  1981  0555                     	btfss	(___fltol@exp1),7
  1982  0555  1FF8               	goto	u1631
  1983  0556  2D58               	goto	u1630
  1984  0557  2D59               u1631:
  1985  0558                     	goto	l1417
  1986  0558  2D7E               u1630:
  1987  0559                     	line	54
  1988                           	
  1989                           l1409:	
  1990  0559                     	movf	(___fltol@exp1),w
  1991  0559  0878               	xorlw	80h
  1992  055A  3A80               	addlw	-((-23)^80h)
  1993  055B  3E97               	skipnc
  1994  055C  1803               	goto	u1641
  1995  055D  2D5F               	goto	u1640
  1996  055E  2D60               u1641:
  1997  055F                     	goto	l1415
  1998  055F  2D6B               u1640:
  1999  0560                     	line	55
  2000                           	
  2001                           l1411:	
  2002  0560                     	movlw	high highword(0)
  2003  0560  3000               	movwf	(?___fltol+3)
  2004  0561  00C7               	movlw	low highword(0)
  2005  0562  3000               	movwf	(?___fltol+2)
  2006  0563  00C6               	movlw	high(0)
  2007  0564  3000               	movwf	(?___fltol+1)
  2008  0565  00C5               	movlw	low(0)
  2009  0566  3000               	movwf	(?___fltol)
  2010  0567  00C4               
  2011                           	goto	l406
  2012  0568  2DB1               	
  2013                           l1413:	
  2014  0569                     	goto	l406
  2015  0569  2DB1               	
  2016                           l408:	
  2017  056A                     	goto	l1415
  2018  056A  2D6B               	line	56
  2019                           	
  2020                           l409:	
  2021  056B                     	line	57
  2022                           	
  2023                           l1415:	
  2024  056B                     	movlw	01h
  2025  056B  3001               u1655:
  2026  056C                     	clrc
  2027  056C  1003               	rrf	(___fltol@f1+3),f
  2028  056D  0CC7               	rrf	(___fltol@f1+2),f
  2029  056E  0CC6               	rrf	(___fltol@f1+1),f
  2030  056F  0CC5               	rrf	(___fltol@f1),f
  2031  0570  0CC4               	addlw	-1
  2032  0571  3EFF               	skipz
  2033  0572  1D03               	goto	u1655
  2034  0573  2D6C               
  2035                           	line	58
  2036                           	movlw	low(01h)
  2037  0574  3001               	movwf	(??___fltol+0)+0
  2038  0575  00C8               	movf	(??___fltol+0)+0,w
  2039  0576  0848               	addwf	(___fltol@exp1),f
  2040  0577  07F8               	btfss	status,2
  2041  0578  1D03               	goto	u1661
  2042  0579  2D7B               	goto	u1660
  2043  057A  2D7C               u1661:
  2044  057B                     	goto	l1415
  2045  057B  2D6B               u1660:
  2046  057C                     	goto	l1425
  2047  057C  2DA1               	
  2048                           l410:	
  2049  057D                     	line	59
  2050                           	goto	l1425
  2051  057D  2DA1               	
  2052                           l407:	
  2053  057E                     	line	60
  2054                           	
  2055                           l1417:	
  2056  057E                     	movlw	low(020h)
  2057  057E  3020               	subwf	(___fltol@exp1),w
  2058  057F  0278               	skipc
  2059  0580  1C03               	goto	u1671
  2060  0581  2D83               	goto	u1670
  2061  0582  2D84               u1671:
  2062  0583                     	goto	l413
  2063  0583  2D9A               u1670:
  2064  0584                     	line	61
  2065                           	
  2066                           l1419:	
  2067  0584                     	movlw	high highword(0)
  2068  0584  3000               	movwf	(?___fltol+3)
  2069  0585  00C7               	movlw	low highword(0)
  2070  0586  3000               	movwf	(?___fltol+2)
  2071  0587  00C6               	movlw	high(0)
  2072  0588  3000               	movwf	(?___fltol+1)
  2073  0589  00C5               	movlw	low(0)
  2074  058A  3000               	movwf	(?___fltol)
  2075  058B  00C4               
  2076                           	goto	l406
  2077  058C  2DB1               	
  2078                           l1421:	
  2079  058D                     	goto	l406
  2080  058D  2DB1               	
  2081                           l412:	
  2082  058E                     	line	62
  2083                           	goto	l413
  2084  058E  2D9A               	
  2085                           l414:	
  2086  058F                     	line	63
  2087                           	
  2088                           l1423:	
  2089  058F                     	movlw	01h
  2090  058F  3001               	movwf	(??___fltol+0)+0
  2091  0590  00C8               u1685:
  2092  0591                     	clrc
  2093  0591  1003               	rlf	(___fltol@f1),f
  2094  0592  0DC4               	rlf	(___fltol@f1+1),f
  2095  0593  0DC5               	rlf	(___fltol@f1+2),f
  2096  0594  0DC6               	rlf	(___fltol@f1+3),f
  2097  0595  0DC7               	decfsz	(??___fltol+0)+0
  2098  0596  0BC8               	goto	u1685
  2099  0597  2D91               	line	64
  2100                           	movlw	01h
  2101  0598  3001               	subwf	(___fltol@exp1),f
  2102  0599  02F8               	line	65
  2103                           	
  2104                           l413:	
  2105  059A                     	line	62
  2106                           	movf	((___fltol@exp1)),w
  2107  059A  0878               	btfss	status,2
  2108  059B  1D03               	goto	u1691
  2109  059C  2D9E               	goto	u1690
  2110  059D  2D9F               u1691:
  2111  059E                     	goto	l1423
  2112  059E  2D8F               u1690:
  2113  059F                     	goto	l1425
  2114  059F  2DA1               	
  2115                           l415:	
  2116  05A0                     	goto	l1425
  2117  05A0  2DA1               	line	66
  2118                           	
  2119                           l411:	
  2120  05A1                     	line	67
  2121                           	
  2122                           l1425:	
  2123  05A1                     	movf	((___fltol@sign1)),w
  2124  05A1  0877               	btfsc	status,2
  2125  05A2  1903               	goto	u1701
  2126  05A3  2DA5               	goto	u1700
  2127  05A4  2DA6               u1701:
  2128  05A5                     	goto	l416
  2129  05A5  2DB1               u1700:
  2130  05A6                     	line	68
  2131                           	
  2132                           l1427:	
  2133  05A6                     	comf	(___fltol@f1),f
  2134  05A6  09C4               	comf	(___fltol@f1+1),f
  2135  05A7  09C5               	comf	(___fltol@f1+2),f
  2136  05A8  09C6               	comf	(___fltol@f1+3),f
  2137  05A9  09C7               	incf	(___fltol@f1),f
  2138  05AA  0AC4               	skipnz
  2139  05AB  1903               	incf	(___fltol@f1+1),f
  2140  05AC  0AC5               	skipnz
  2141  05AD  1903               	incf	(___fltol@f1+2),f
  2142  05AE  0AC6               	skipnz
  2143  05AF  1903               	incf	(___fltol@f1+3),f
  2144  05B0  0AC7               	
  2145                           l416:	
  2146  05B1                     	line	69
  2147                           	line	70
  2148                           	
  2149                           l406:	
  2150  05B1                     	return
  2151  05B1  0008               	opt stack 0
  2152                           GLOBAL	__end_of___fltol
  2153                           	__end_of___fltol:
  2154  05B2                     	signat	___fltol,4220
  2155                           	global	___flmul
  2156                           
  2157 ;; *************** function ___flmul *****************
  2158 ;; Defined at:
  2159 ;;		line 8 in file "C:\Program Files (x86)\Microchip\xc8\v2.00\pic\sources\c90\common\sprcmul.c"
  2160 ;; Parameters:    Size  Location     Type
  2161 ;;  b               4   10[BANK0 ] long 
  2162 ;;  a               4   14[BANK0 ] long 
  2163 ;; Auto vars:     Size  Location     Type
  2164 ;;  prod            4   30[BANK0 ] struct .
  2165 ;;  grs             4   24[BANK0 ] unsigned long 
  2166 ;;  temp            2   34[BANK0 ] struct .
  2167 ;;  bexp            1   29[BANK0 ] unsigned char 
  2168 ;;  aexp            1   28[BANK0 ] unsigned char 
  2169 ;;  sign            1   23[BANK0 ] unsigned char 
  2170 ;; Return value:  Size  Location     Type
  2171 ;;                  4   10[BANK0 ] unsigned char 
  2172 ;; Registers used:
  2173 ;;		wreg, status,2, status,0, btemp+1, pclath, cstack
  2174 ;; Tracked objects:
  2175 ;;		On entry : 0/0
  2176 ;;		On exit  : 0/0
  2177 ;;		Unchanged: 0/0
  2178 ;; Data sizes:     COMMON   BANK0   BANK1   BANK3   BANK2
  2179 ;;      Params:         0       8       0       0       0
  2180 ;;      Locals:         0      13       0       0       0
  2181 ;;      Temps:          0       5       0       0       0
  2182 ;;      Totals:         0      26       0       0       0
  2183 ;;Total ram usage:       26 bytes
  2184 ;; Hardware stack levels used:    1
  2185 ;; Hardware stack levels required when called:    2
  2186 ;; This function calls:
  2187 ;;		__Umul8_16
  2188 ;; This function is called by:
  2189 ;;		_mide_distancia
  2190 ;; This function uses a non-reentrant model
  2191 ;;
  2192                           psect	text4,local,class=CODE,delta=2,merge=1,group=1
  2193                           	file	"C:\Program Files (x86)\Microchip\xc8\v2.00\pic\sources\c90\common\sprcmul.c"
  2194                           	line	8
  2195                           global __ptext4
  2196                           __ptext4:	;psect for function ___flmul
  2197  001B                     psect	text4
  2198                           	file	"C:\Program Files (x86)\Microchip\xc8\v2.00\pic\sources\c90\common\sprcmul.c"
  2199                           	line	8
  2200                           	global	__size_of___flmul
  2201                           	__size_of___flmul	equ	__end_of___flmul-___flmul
  2202  0375                     	
  2203                           ___flmul:	
  2204  001B                     ;incstack = 0
  2205                           	opt	stack 4
  2206                           ; Regs used in ___flmul: [wreg+status,2+status,0+btemp+1+pclath+cstack]
  2207                           	line	17
  2208                           	
  2209                           l1129:	
  2210  001B                     	bcf	status, 5	;RP0=0, select bank0
  2211  001B  1283               	bcf	status, 6	;RP1=0, select bank0
  2212  001C  1303               	movf	0+(___flmul@b)+03h,w
  2213  001D  082D               	andlw	080h
  2214  001E  3980               	movwf	(??___flmul+0)+0
  2215  001F  00B2               	movf	(??___flmul+0)+0,w
  2216  0020  0832               	movwf	(___flmul@sign)
  2217  0021  00B7               	line	18
  2218                           	
  2219                           l1131:	
  2220  0022                     	movf	0+(___flmul@b)+03h,w
  2221  0022  082D               	movwf	(??___flmul+0)+0
  2222  0023  00B2               	addwf	(??___flmul+0)+0,w
  2223  0024  0732               	movwf	(??___flmul+1)+0
  2224  0025  00B3               	movf	(??___flmul+1)+0,w
  2225  0026  0833               	movwf	(___flmul@bexp)
  2226  0027  00BD               	line	19
  2227                           	
  2228                           l1133:	
  2229  0028                     	btfss	0+(___flmul@b)+02h,(7)&7
  2230  0028  1FAC               	goto	u961
  2231  0029  282B               	goto	u960
  2232  002A  282C               u961:
  2233  002B                     	goto	l1137
  2234  002B  282E               u960:
  2235  002C                     	line	20
  2236                           	
  2237                           l1135:	
  2238  002C                     	bsf	(___flmul@bexp)+(0/8),(0)&7
  2239  002C  143D               	goto	l1137
  2240  002D  282E               	line	21
  2241                           	
  2242                           l598:	
  2243  002E                     	line	24
  2244                           	
  2245                           l1137:	
  2246  002E                     	movf	((___flmul@bexp)),w
  2247  002E  083D               	btfsc	status,2
  2248  002F  1903               	goto	u971
  2249  0030  2832               	goto	u970
  2250  0031  2833               u971:
  2251  0032                     	goto	l1145
  2252  0032  2843               u970:
  2253  0033                     	line	26
  2254                           	
  2255                           l1139:	
  2256  0033                     		incf	((___flmul@bexp)),w
  2257  0033  0A3D               	btfss	status,2
  2258  0034  1D03               	goto	u981
  2259  0035  2837               	goto	u980
  2260  0036  2838               u981:
  2261  0037                     	goto	l1143
  2262  0037  2841               u980:
  2263  0038                     	line	28
  2264                           	
  2265                           l1141:	
  2266  0038                     	movlw	0x0
  2267  0038  3000               	movwf	(___flmul@b+3)
  2268  0039  00AD               	movlw	0x0
  2269  003A  3000               	movwf	(___flmul@b+2)
  2270  003B  00AC               	movlw	0x0
  2271  003C  3000               	movwf	(___flmul@b+1)
  2272  003D  00AB               	movlw	0x0
  2273  003E  3000               	movwf	(___flmul@b)
  2274  003F  00AA               
  2275                           	goto	l1143
  2276  0040  2841               	line	29
  2277                           	
  2278                           l600:	
  2279  0041                     	line	31
  2280                           	
  2281                           l1143:	
  2282  0041                     	bsf	(___flmul@b)+(23/8),(23)&7
  2283  0041  17AC               	line	33
  2284                           	goto	l1147
  2285  0042  284C               	line	34
  2286                           	
  2287                           l599:	
  2288  0043                     	line	36
  2289                           	
  2290                           l1145:	
  2291  0043                     	movlw	0x0
  2292  0043  3000               	movwf	(___flmul@b+3)
  2293  0044  00AD               	movlw	0x0
  2294  0045  3000               	movwf	(___flmul@b+2)
  2295  0046  00AC               	movlw	0x0
  2296  0047  3000               	movwf	(___flmul@b+1)
  2297  0048  00AB               	movlw	0x0
  2298  0049  3000               	movwf	(___flmul@b)
  2299  004A  00AA               
  2300                           	goto	l1147
  2301  004B  284C               	line	37
  2302                           	
  2303                           l601:	
  2304  004C                     	line	39
  2305                           	
  2306                           l1147:	
  2307  004C                     	movf	0+(___flmul@a)+03h,w
  2308  004C  0831               	andlw	080h
  2309  004D  3980               	movwf	(??___flmul+0)+0
  2310  004E  00B2               	movf	(??___flmul+0)+0,w
  2311  004F  0832               	xorwf	(___flmul@sign),f
  2312  0050  06B7               	line	40
  2313                           	
  2314                           l1149:	
  2315  0051                     	movf	0+(___flmul@a)+03h,w
  2316  0051  0831               	movwf	(??___flmul+0)+0
  2317  0052  00B2               	addwf	(??___flmul+0)+0,w
  2318  0053  0732               	movwf	(??___flmul+1)+0
  2319  0054  00B3               	movf	(??___flmul+1)+0,w
  2320  0055  0833               	movwf	(___flmul@aexp)
  2321  0056  00BC               	line	41
  2322                           	
  2323                           l1151:	
  2324  0057                     	btfss	0+(___flmul@a)+02h,(7)&7
  2325  0057  1FB0               	goto	u991
  2326  0058  285A               	goto	u990
  2327  0059  285B               u991:
  2328  005A                     	goto	l1155
  2329  005A  285D               u990:
  2330  005B                     	line	42
  2331                           	
  2332                           l1153:	
  2333  005B                     	bsf	(___flmul@aexp)+(0/8),(0)&7
  2334  005B  143C               	goto	l1155
  2335  005C  285D               	line	43
  2336                           	
  2337                           l602:	
  2338  005D                     	line	45
  2339                           	
  2340                           l1155:	
  2341  005D                     	movf	((___flmul@aexp)),w
  2342  005D  083C               	btfsc	status,2
  2343  005E  1903               	goto	u1001
  2344  005F  2861               	goto	u1000
  2345  0060  2862               u1001:
  2346  0061                     	goto	l1163
  2347  0061  2872               u1000:
  2348  0062                     	line	48
  2349                           	
  2350                           l1157:	
  2351  0062                     		incf	((___flmul@aexp)),w
  2352  0062  0A3C               	btfss	status,2
  2353  0063  1D03               	goto	u1011
  2354  0064  2866               	goto	u1010
  2355  0065  2867               u1011:
  2356  0066                     	goto	l1161
  2357  0066  2870               u1010:
  2358  0067                     	line	50
  2359                           	
  2360                           l1159:	
  2361  0067                     	movlw	0x0
  2362  0067  3000               	movwf	(___flmul@a+3)
  2363  0068  00B1               	movlw	0x0
  2364  0069  3000               	movwf	(___flmul@a+2)
  2365  006A  00B0               	movlw	0x0
  2366  006B  3000               	movwf	(___flmul@a+1)
  2367  006C  00AF               	movlw	0x0
  2368  006D  3000               	movwf	(___flmul@a)
  2369  006E  00AE               
  2370                           	goto	l1161
  2371  006F  2870               	line	51
  2372                           	
  2373                           l604:	
  2374  0070                     	line	53
  2375                           	
  2376                           l1161:	
  2377  0070                     	bsf	(___flmul@a)+(23/8),(23)&7
  2378  0070  17B0               	line	54
  2379                           	goto	l1165
  2380  0071  287B               	line	55
  2381                           	
  2382                           l603:	
  2383  0072                     	line	57
  2384                           	
  2385                           l1163:	
  2386  0072                     	movlw	0x0
  2387  0072  3000               	movwf	(___flmul@a+3)
  2388  0073  00B1               	movlw	0x0
  2389  0074  3000               	movwf	(___flmul@a+2)
  2390  0075  00B0               	movlw	0x0
  2391  0076  3000               	movwf	(___flmul@a+1)
  2392  0077  00AF               	movlw	0x0
  2393  0078  3000               	movwf	(___flmul@a)
  2394  0079  00AE               
  2395                           	goto	l1165
  2396  007A  287B               	line	58
  2397                           	
  2398                           l605:	
  2399  007B                     	line	65
  2400                           	
  2401                           l1165:	
  2402  007B                     	movf	((___flmul@aexp)),w
  2403  007B  083C               	btfsc	status,2
  2404  007C  1903               	goto	u1021
  2405  007D  287F               	goto	u1020
  2406  007E  2880               u1021:
  2407  007F                     	goto	l1169
  2408  007F  2886               u1020:
  2409  0080                     	
  2410                           l1167:	
  2411  0080                     	movf	((___flmul@bexp)),w
  2412  0080  083D               	btfss	status,2
  2413  0081  1D03               	goto	u1031
  2414  0082  2884               	goto	u1030
  2415  0083  2885               u1031:
  2416  0084                     	goto	l1173
  2417  0084  2890               u1030:
  2418  0085                     	goto	l1169
  2419  0085  2886               	
  2420                           l608:	
  2421  0086                     	line	66
  2422                           	
  2423                           l1169:	
  2424  0086                     	movlw	0x0
  2425  0086  3000               	movwf	(?___flmul+3)
  2426  0087  00AD               	movlw	0x0
  2427  0088  3000               	movwf	(?___flmul+2)
  2428  0089  00AC               	movlw	0x0
  2429  008A  3000               	movwf	(?___flmul+1)
  2430  008B  00AB               	movlw	0x0
  2431  008C  3000               	movwf	(?___flmul)
  2432  008D  00AA               
  2433                           	goto	l609
  2434  008E  2B8F               	
  2435                           l1171:	
  2436  008F                     	goto	l609
  2437  008F  2B8F               	line	67
  2438                           	
  2439                           l606:	
  2440  0090                     	line	119
  2441                           	
  2442                           l1173:	
  2443  0090                     	movf	(___flmul@b),w
  2444  0090  082A               	movwf	(??___flmul+0)+0
  2445  0091  00B2               	movf	(??___flmul+0)+0,w
  2446  0092  0832               	movwf	(__Umul8_16@multiplicand)
  2447  0093  00F3               	movf	0+(___flmul@a)+02h,w
  2448  0094  0830               	fcall	__Umul8_16
  2449  0095  120A  118A  264D  120A  118A  	movf	(1+(?__Umul8_16)),w
  2450  009A  0874               	bcf	status, 5	;RP0=0, select bank0
  2451  009B  1283               	bcf	status, 6	;RP1=0, select bank0
  2452  009C  1303               	movwf	(___flmul@temp+1)
  2453  009D  00C3               	movf	(0+(?__Umul8_16)),w
  2454  009E  0873               	movwf	(___flmul@temp)
  2455  009F  00C2               	line	120
  2456                           	
  2457                           l1175:	
  2458  00A0                     	movf	(___flmul@temp),w
  2459  00A0  0842               	movwf	(??___flmul+0)+0
  2460  00A1  00B2               	clrf	(??___flmul+0)+0+1
  2461  00A2  01B3               	clrf	(??___flmul+0)+0+2
  2462  00A3  01B4               	clrf	(??___flmul+0)+0+3
  2463  00A4  01B5               	movf	3+(??___flmul+0)+0,w
  2464  00A5  0835               	movwf	(___flmul@grs+3)
  2465  00A6  00BB               	movf	2+(??___flmul+0)+0,w
  2466  00A7  0834               	movwf	(___flmul@grs+2)
  2467  00A8  00BA               	movf	1+(??___flmul+0)+0,w
  2468  00A9  0833               	movwf	(___flmul@grs+1)
  2469  00AA  00B9               	movf	0+(??___flmul+0)+0,w
  2470  00AB  0832               	movwf	(___flmul@grs)
  2471  00AC  00B8               
  2472                           	line	121
  2473                           	
  2474                           l1177:	
  2475  00AD                     	movf	0+(___flmul@temp)+01h,w
  2476  00AD  0843               	movwf	(??___flmul+0)+0
  2477  00AE  00B2               	clrf	(??___flmul+0)+0+1
  2478  00AF  01B3               	clrf	(??___flmul+0)+0+2
  2479  00B0  01B4               	clrf	(??___flmul+0)+0+3
  2480  00B1  01B5               	movf	3+(??___flmul+0)+0,w
  2481  00B2  0835               	movwf	(___flmul@prod+3)
  2482  00B3  00C1               	movf	2+(??___flmul+0)+0,w
  2483  00B4  0834               	movwf	(___flmul@prod+2)
  2484  00B5  00C0               	movf	1+(??___flmul+0)+0,w
  2485  00B6  0833               	movwf	(___flmul@prod+1)
  2486  00B7  00BF               	movf	0+(??___flmul+0)+0,w
  2487  00B8  0832               	movwf	(___flmul@prod)
  2488  00B9  00BE               
  2489                           	line	122
  2490                           	movf	0+(___flmul@b)+01h,w
  2491  00BA  082B               	movwf	(??___flmul+0)+0
  2492  00BB  00B2               	movf	(??___flmul+0)+0,w
  2493  00BC  0832               	movwf	(__Umul8_16@multiplicand)
  2494  00BD  00F3               	movf	0+(___flmul@a)+01h,w
  2495  00BE  082F               	fcall	__Umul8_16
  2496  00BF  120A  118A  264D  120A  118A  	movf	(1+(?__Umul8_16)),w
  2497  00C4  0874               	bcf	status, 5	;RP0=0, select bank0
  2498  00C5  1283               	bcf	status, 6	;RP1=0, select bank0
  2499  00C6  1303               	movwf	(___flmul@temp+1)
  2500  00C7  00C3               	movf	(0+(?__Umul8_16)),w
  2501  00C8  0873               	movwf	(___flmul@temp)
  2502  00C9  00C2               	line	123
  2503                           	
  2504                           l1179:	
  2505  00CA                     	movf	(___flmul@temp),w
  2506  00CA  0842               	movwf	(??___flmul+0)+0
  2507  00CB  00B2               	clrf	(??___flmul+0)+0+1
  2508  00CC  01B3               	clrf	(??___flmul+0)+0+2
  2509  00CD  01B4               	clrf	(??___flmul+0)+0+3
  2510  00CE  01B5               	movf	0+(??___flmul+0)+0,w
  2511  00CF  0832               	addwf	(___flmul@grs),f
  2512  00D0  07B8               	movf	1+(??___flmul+0)+0,w
  2513  00D1  0833               	clrz
  2514  00D2  1103               	skipnc
  2515  00D3  1803               	addlw	1
  2516  00D4  3E01               	skipnz
  2517  00D5  1903               	goto	u1041
  2518  00D6  28D8               	addwf	(___flmul@grs+1),f
  2519  00D7  07B9               u1041:
  2520  00D8                     	movf	2+(??___flmul+0)+0,w
  2521  00D8  0834               	clrz
  2522  00D9  1103               	skipnc
  2523  00DA  1803               	addlw	1
  2524  00DB  3E01               	skipnz
  2525  00DC  1903               	goto	u1042
  2526  00DD  28DF               	addwf	(___flmul@grs+2),f
  2527  00DE  07BA               u1042:
  2528  00DF                     	movf	3+(??___flmul+0)+0,w
  2529  00DF  0835               	clrz
  2530  00E0  1103               	skipnc
  2531  00E1  1803               	addlw	1
  2532  00E2  3E01               	skipnz
  2533  00E3  1903               	goto	u1043
  2534  00E4  28E6               	addwf	(___flmul@grs+3),f
  2535  00E5  07BB               u1043:
  2536  00E6                     
  2537                           	line	124
  2538                           	
  2539                           l1181:	
  2540  00E6                     	movf	0+(___flmul@temp)+01h,w
  2541  00E6  0843               	movwf	(??___flmul+0)+0
  2542  00E7  00B2               	clrf	(??___flmul+0)+0+1
  2543  00E8  01B3               	clrf	(??___flmul+0)+0+2
  2544  00E9  01B4               	clrf	(??___flmul+0)+0+3
  2545  00EA  01B5               	movf	0+(??___flmul+0)+0,w
  2546  00EB  0832               	addwf	(___flmul@prod),f
  2547  00EC  07BE               	movf	1+(??___flmul+0)+0,w
  2548  00ED  0833               	clrz
  2549  00EE  1103               	skipnc
  2550  00EF  1803               	addlw	1
  2551  00F0  3E01               	skipnz
  2552  00F1  1903               	goto	u1051
  2553  00F2  28F4               	addwf	(___flmul@prod+1),f
  2554  00F3  07BF               u1051:
  2555  00F4                     	movf	2+(??___flmul+0)+0,w
  2556  00F4  0834               	clrz
  2557  00F5  1103               	skipnc
  2558  00F6  1803               	addlw	1
  2559  00F7  3E01               	skipnz
  2560  00F8  1903               	goto	u1052
  2561  00F9  28FB               	addwf	(___flmul@prod+2),f
  2562  00FA  07C0               u1052:
  2563  00FB                     	movf	3+(??___flmul+0)+0,w
  2564  00FB  0835               	clrz
  2565  00FC  1103               	skipnc
  2566  00FD  1803               	addlw	1
  2567  00FE  3E01               	skipnz
  2568  00FF  1903               	goto	u1053
  2569  0100  2902               	addwf	(___flmul@prod+3),f
  2570  0101  07C1               u1053:
  2571  0102                     
  2572                           	line	125
  2573                           	movf	0+(___flmul@b)+02h,w
  2574  0102  082C               	movwf	(??___flmul+0)+0
  2575  0103  00B2               	movf	(??___flmul+0)+0,w
  2576  0104  0832               	movwf	(__Umul8_16@multiplicand)
  2577  0105  00F3               	movf	(___flmul@a),w
  2578  0106  082E               	fcall	__Umul8_16
  2579  0107  120A  118A  264D  120A  118A  	movf	(1+(?__Umul8_16)),w
  2580  010C  0874               	bcf	status, 5	;RP0=0, select bank0
  2581  010D  1283               	bcf	status, 6	;RP1=0, select bank0
  2582  010E  1303               	movwf	(___flmul@temp+1)
  2583  010F  00C3               	movf	(0+(?__Umul8_16)),w
  2584  0110  0873               	movwf	(___flmul@temp)
  2585  0111  00C2               	line	126
  2586                           	
  2587                           l1183:	
  2588  0112                     	movf	(___flmul@temp),w
  2589  0112  0842               	movwf	(??___flmul+0)+0
  2590  0113  00B2               	clrf	(??___flmul+0)+0+1
  2591  0114  01B3               	clrf	(??___flmul+0)+0+2
  2592  0115  01B4               	clrf	(??___flmul+0)+0+3
  2593  0116  01B5               	movf	0+(??___flmul+0)+0,w
  2594  0117  0832               	addwf	(___flmul@grs),f
  2595  0118  07B8               	movf	1+(??___flmul+0)+0,w
  2596  0119  0833               	clrz
  2597  011A  1103               	skipnc
  2598  011B  1803               	addlw	1
  2599  011C  3E01               	skipnz
  2600  011D  1903               	goto	u1061
  2601  011E  2920               	addwf	(___flmul@grs+1),f
  2602  011F  07B9               u1061:
  2603  0120                     	movf	2+(??___flmul+0)+0,w
  2604  0120  0834               	clrz
  2605  0121  1103               	skipnc
  2606  0122  1803               	addlw	1
  2607  0123  3E01               	skipnz
  2608  0124  1903               	goto	u1062
  2609  0125  2927               	addwf	(___flmul@grs+2),f
  2610  0126  07BA               u1062:
  2611  0127                     	movf	3+(??___flmul+0)+0,w
  2612  0127  0835               	clrz
  2613  0128  1103               	skipnc
  2614  0129  1803               	addlw	1
  2615  012A  3E01               	skipnz
  2616  012B  1903               	goto	u1063
  2617  012C  292E               	addwf	(___flmul@grs+3),f
  2618  012D  07BB               u1063:
  2619  012E                     
  2620                           	line	127
  2621                           	
  2622                           l1185:	
  2623  012E                     	movf	0+(___flmul@temp)+01h,w
  2624  012E  0843               	movwf	(??___flmul+0)+0
  2625  012F  00B2               	clrf	(??___flmul+0)+0+1
  2626  0130  01B3               	clrf	(??___flmul+0)+0+2
  2627  0131  01B4               	clrf	(??___flmul+0)+0+3
  2628  0132  01B5               	movf	0+(??___flmul+0)+0,w
  2629  0133  0832               	addwf	(___flmul@prod),f
  2630  0134  07BE               	movf	1+(??___flmul+0)+0,w
  2631  0135  0833               	clrz
  2632  0136  1103               	skipnc
  2633  0137  1803               	addlw	1
  2634  0138  3E01               	skipnz
  2635  0139  1903               	goto	u1071
  2636  013A  293C               	addwf	(___flmul@prod+1),f
  2637  013B  07BF               u1071:
  2638  013C                     	movf	2+(??___flmul+0)+0,w
  2639  013C  0834               	clrz
  2640  013D  1103               	skipnc
  2641  013E  1803               	addlw	1
  2642  013F  3E01               	skipnz
  2643  0140  1903               	goto	u1072
  2644  0141  2943               	addwf	(___flmul@prod+2),f
  2645  0142  07C0               u1072:
  2646  0143                     	movf	3+(??___flmul+0)+0,w
  2647  0143  0835               	clrz
  2648  0144  1103               	skipnc
  2649  0145  1803               	addlw	1
  2650  0146  3E01               	skipnz
  2651  0147  1903               	goto	u1073
  2652  0148  294A               	addwf	(___flmul@prod+3),f
  2653  0149  07C1               u1073:
  2654  014A                     
  2655                           	line	128
  2656                           	
  2657                           l1187:	
  2658  014A                     	movlw	08h
  2659  014A  3008               	movwf	(??___flmul+0)+0
  2660  014B  00B2               u1085:
  2661  014C                     	clrc
  2662  014C  1003               	rlf	(___flmul@grs),f
  2663  014D  0DB8               	rlf	(___flmul@grs+1),f
  2664  014E  0DB9               	rlf	(___flmul@grs+2),f
  2665  014F  0DBA               	rlf	(___flmul@grs+3),f
  2666  0150  0DBB               	decfsz	(??___flmul+0)+0
  2667  0151  0BB2               	goto	u1085
  2668  0152  294C               	line	129
  2669                           	
  2670                           l1189:	
  2671  0153                     	movf	0+(___flmul@b)+01h,w
  2672  0153  082B               	movwf	(??___flmul+0)+0
  2673  0154  00B2               	movf	(??___flmul+0)+0,w
  2674  0155  0832               	movwf	(__Umul8_16@multiplicand)
  2675  0156  00F3               	movf	(___flmul@a),w
  2676  0157  082E               	fcall	__Umul8_16
  2677  0158  120A  118A  264D  120A  118A  	movf	(1+(?__Umul8_16)),w
  2678  015D  0874               	bcf	status, 5	;RP0=0, select bank0
  2679  015E  1283               	bcf	status, 6	;RP1=0, select bank0
  2680  015F  1303               	movwf	(___flmul@temp+1)
  2681  0160  00C3               	movf	(0+(?__Umul8_16)),w
  2682  0161  0873               	movwf	(___flmul@temp)
  2683  0162  00C2               	line	130
  2684                           	
  2685                           l1191:	
  2686  0163                     	movf	(___flmul@temp),w
  2687  0163  0842               	movwf	((??___flmul+0)+0)
  2688  0164  00B2               	movf	(___flmul@temp+1),w
  2689  0165  0843               	movwf	((??___flmul+0)+0+1)
  2690  0166  00B3               	clrf	((??___flmul+0)+0+2)
  2691  0167  01B4               	clrf	((??___flmul+0)+0+3)
  2692  0168  01B5               	movf	0+(??___flmul+0)+0,w
  2693  0169  0832               	addwf	(___flmul@grs),f
  2694  016A  07B8               	movf	1+(??___flmul+0)+0,w
  2695  016B  0833               	clrz
  2696  016C  1103               	skipnc
  2697  016D  1803               	addlw	1
  2698  016E  3E01               	skipnz
  2699  016F  1903               	goto	u1091
  2700  0170  2972               	addwf	(___flmul@grs+1),f
  2701  0171  07B9               u1091:
  2702  0172                     	movf	2+(??___flmul+0)+0,w
  2703  0172  0834               	clrz
  2704  0173  1103               	skipnc
  2705  0174  1803               	addlw	1
  2706  0175  3E01               	skipnz
  2707  0176  1903               	goto	u1092
  2708  0177  2979               	addwf	(___flmul@grs+2),f
  2709  0178  07BA               u1092:
  2710  0179                     	movf	3+(??___flmul+0)+0,w
  2711  0179  0835               	clrz
  2712  017A  1103               	skipnc
  2713  017B  1803               	addlw	1
  2714  017C  3E01               	skipnz
  2715  017D  1903               	goto	u1093
  2716  017E  2980               	addwf	(___flmul@grs+3),f
  2717  017F  07BB               u1093:
  2718  0180                     
  2719                           	line	131
  2720                           	
  2721                           l1193:	
  2722  0180                     	movf	(___flmul@b),w
  2723  0180  082A               	movwf	(??___flmul+0)+0
  2724  0181  00B2               	movf	(??___flmul+0)+0,w
  2725  0182  0832               	movwf	(__Umul8_16@multiplicand)
  2726  0183  00F3               	movf	0+(___flmul@a)+01h,w
  2727  0184  082F               	fcall	__Umul8_16
  2728  0185  120A  118A  264D  120A  118A  	movf	(1+(?__Umul8_16)),w
  2729  018A  0874               	bcf	status, 5	;RP0=0, select bank0
  2730  018B  1283               	bcf	status, 6	;RP1=0, select bank0
  2731  018C  1303               	movwf	(___flmul@temp+1)
  2732  018D  00C3               	movf	(0+(?__Umul8_16)),w
  2733  018E  0873               	movwf	(___flmul@temp)
  2734  018F  00C2               	line	132
  2735                           	
  2736                           l1195:	
  2737  0190                     	movf	(___flmul@temp),w
  2738  0190  0842               	movwf	((??___flmul+0)+0)
  2739  0191  00B2               	movf	(___flmul@temp+1),w
  2740  0192  0843               	movwf	((??___flmul+0)+0+1)
  2741  0193  00B3               	clrf	((??___flmul+0)+0+2)
  2742  0194  01B4               	clrf	((??___flmul+0)+0+3)
  2743  0195  01B5               	movf	0+(??___flmul+0)+0,w
  2744  0196  0832               	addwf	(___flmul@grs),f
  2745  0197  07B8               	movf	1+(??___flmul+0)+0,w
  2746  0198  0833               	clrz
  2747  0199  1103               	skipnc
  2748  019A  1803               	addlw	1
  2749  019B  3E01               	skipnz
  2750  019C  1903               	goto	u1101
  2751  019D  299F               	addwf	(___flmul@grs+1),f
  2752  019E  07B9               u1101:
  2753  019F                     	movf	2+(??___flmul+0)+0,w
  2754  019F  0834               	clrz
  2755  01A0  1103               	skipnc
  2756  01A1  1803               	addlw	1
  2757  01A2  3E01               	skipnz
  2758  01A3  1903               	goto	u1102
  2759  01A4  29A6               	addwf	(___flmul@grs+2),f
  2760  01A5  07BA               u1102:
  2761  01A6                     	movf	3+(??___flmul+0)+0,w
  2762  01A6  0835               	clrz
  2763  01A7  1103               	skipnc
  2764  01A8  1803               	addlw	1
  2765  01A9  3E01               	skipnz
  2766  01AA  1903               	goto	u1103
  2767  01AB  29AD               	addwf	(___flmul@grs+3),f
  2768  01AC  07BB               u1103:
  2769  01AD                     
  2770                           	line	133
  2771                           	
  2772                           l1197:	
  2773  01AD                     	movlw	08h
  2774  01AD  3008               	movwf	(??___flmul+0)+0
  2775  01AE  00B2               u1115:
  2776  01AF                     	clrc
  2777  01AF  1003               	rlf	(___flmul@grs),f
  2778  01B0  0DB8               	rlf	(___flmul@grs+1),f
  2779  01B1  0DB9               	rlf	(___flmul@grs+2),f
  2780  01B2  0DBA               	rlf	(___flmul@grs+3),f
  2781  01B3  0DBB               	decfsz	(??___flmul+0)+0
  2782  01B4  0BB2               	goto	u1115
  2783  01B5  29AF               	line	134
  2784                           	movf	(___flmul@b),w
  2785  01B6  082A               	movwf	(??___flmul+0)+0
  2786  01B7  00B2               	movf	(??___flmul+0)+0,w
  2787  01B8  0832               	movwf	(__Umul8_16@multiplicand)
  2788  01B9  00F3               	movf	(___flmul@a),w
  2789  01BA  082E               	fcall	__Umul8_16
  2790  01BB  120A  118A  264D  120A  118A  	movf	(1+(?__Umul8_16)),w
  2791  01C0  0874               	bcf	status, 5	;RP0=0, select bank0
  2792  01C1  1283               	bcf	status, 6	;RP1=0, select bank0
  2793  01C2  1303               	movwf	(___flmul@temp+1)
  2794  01C3  00C3               	movf	(0+(?__Umul8_16)),w
  2795  01C4  0873               	movwf	(___flmul@temp)
  2796  01C5  00C2               	line	135
  2797                           	
  2798                           l1199:	
  2799  01C6                     	movf	(___flmul@temp),w
  2800  01C6  0842               	movwf	((??___flmul+0)+0)
  2801  01C7  00B2               	movf	(___flmul@temp+1),w
  2802  01C8  0843               	movwf	((??___flmul+0)+0+1)
  2803  01C9  00B3               	clrf	((??___flmul+0)+0+2)
  2804  01CA  01B4               	clrf	((??___flmul+0)+0+3)
  2805  01CB  01B5               	movf	0+(??___flmul+0)+0,w
  2806  01CC  0832               	addwf	(___flmul@grs),f
  2807  01CD  07B8               	movf	1+(??___flmul+0)+0,w
  2808  01CE  0833               	clrz
  2809  01CF  1103               	skipnc
  2810  01D0  1803               	addlw	1
  2811  01D1  3E01               	skipnz
  2812  01D2  1903               	goto	u1121
  2813  01D3  29D5               	addwf	(___flmul@grs+1),f
  2814  01D4  07B9               u1121:
  2815  01D5                     	movf	2+(??___flmul+0)+0,w
  2816  01D5  0834               	clrz
  2817  01D6  1103               	skipnc
  2818  01D7  1803               	addlw	1
  2819  01D8  3E01               	skipnz
  2820  01D9  1903               	goto	u1122
  2821  01DA  29DC               	addwf	(___flmul@grs+2),f
  2822  01DB  07BA               u1122:
  2823  01DC                     	movf	3+(??___flmul+0)+0,w
  2824  01DC  0835               	clrz
  2825  01DD  1103               	skipnc
  2826  01DE  1803               	addlw	1
  2827  01DF  3E01               	skipnz
  2828  01E0  1903               	goto	u1123
  2829  01E1  29E3               	addwf	(___flmul@grs+3),f
  2830  01E2  07BB               u1123:
  2831  01E3                     
  2832                           	line	136
  2833                           	
  2834                           l1201:	
  2835  01E3                     	movf	0+(___flmul@b)+01h,w
  2836  01E3  082B               	movwf	(??___flmul+0)+0
  2837  01E4  00B2               	movf	(??___flmul+0)+0,w
  2838  01E5  0832               	movwf	(__Umul8_16@multiplicand)
  2839  01E6  00F3               	movf	0+(___flmul@a)+02h,w
  2840  01E7  0830               	fcall	__Umul8_16
  2841  01E8  120A  118A  264D  120A  118A  	movf	(1+(?__Umul8_16)),w
  2842  01ED  0874               	bcf	status, 5	;RP0=0, select bank0
  2843  01EE  1283               	bcf	status, 6	;RP1=0, select bank0
  2844  01EF  1303               	movwf	(___flmul@temp+1)
  2845  01F0  00C3               	movf	(0+(?__Umul8_16)),w
  2846  01F1  0873               	movwf	(___flmul@temp)
  2847  01F2  00C2               	line	137
  2848                           	movf	(___flmul@temp),w
  2849  01F3  0842               	movwf	((??___flmul+0)+0)
  2850  01F4  00B2               	movf	(___flmul@temp+1),w
  2851  01F5  0843               	movwf	((??___flmul+0)+0+1)
  2852  01F6  00B3               	clrf	((??___flmul+0)+0+2)
  2853  01F7  01B4               	clrf	((??___flmul+0)+0+3)
  2854  01F8  01B5               	movf	0+(??___flmul+0)+0,w
  2855  01F9  0832               	addwf	(___flmul@prod),f
  2856  01FA  07BE               	movf	1+(??___flmul+0)+0,w
  2857  01FB  0833               	clrz
  2858  01FC  1103               	skipnc
  2859  01FD  1803               	addlw	1
  2860  01FE  3E01               	skipnz
  2861  01FF  1903               	goto	u1131
  2862  0200  2A02               	addwf	(___flmul@prod+1),f
  2863  0201  07BF               u1131:
  2864  0202                     	movf	2+(??___flmul+0)+0,w
  2865  0202  0834               	clrz
  2866  0203  1103               	skipnc
  2867  0204  1803               	addlw	1
  2868  0205  3E01               	skipnz
  2869  0206  1903               	goto	u1132
  2870  0207  2A09               	addwf	(___flmul@prod+2),f
  2871  0208  07C0               u1132:
  2872  0209                     	movf	3+(??___flmul+0)+0,w
  2873  0209  0835               	clrz
  2874  020A  1103               	skipnc
  2875  020B  1803               	addlw	1
  2876  020C  3E01               	skipnz
  2877  020D  1903               	goto	u1133
  2878  020E  2A10               	addwf	(___flmul@prod+3),f
  2879  020F  07C1               u1133:
  2880  0210                     
  2881                           	line	138
  2882                           	
  2883                           l1203:	
  2884  0210                     	movf	0+(___flmul@b)+02h,w
  2885  0210  082C               	movwf	(??___flmul+0)+0
  2886  0211  00B2               	movf	(??___flmul+0)+0,w
  2887  0212  0832               	movwf	(__Umul8_16@multiplicand)
  2888  0213  00F3               	movf	0+(___flmul@a)+01h,w
  2889  0214  082F               	fcall	__Umul8_16
  2890  0215  120A  118A  264D  120A  118A  	movf	(1+(?__Umul8_16)),w
  2891  021A  0874               	bcf	status, 5	;RP0=0, select bank0
  2892  021B  1283               	bcf	status, 6	;RP1=0, select bank0
  2893  021C  1303               	movwf	(___flmul@temp+1)
  2894  021D  00C3               	movf	(0+(?__Umul8_16)),w
  2895  021E  0873               	movwf	(___flmul@temp)
  2896  021F  00C2               	line	139
  2897                           	
  2898                           l1205:	
  2899  0220                     	movf	(___flmul@temp),w
  2900  0220  0842               	movwf	((??___flmul+0)+0)
  2901  0221  00B2               	movf	(___flmul@temp+1),w
  2902  0222  0843               	movwf	((??___flmul+0)+0+1)
  2903  0223  00B3               	clrf	((??___flmul+0)+0+2)
  2904  0224  01B4               	clrf	((??___flmul+0)+0+3)
  2905  0225  01B5               	movf	0+(??___flmul+0)+0,w
  2906  0226  0832               	addwf	(___flmul@prod),f
  2907  0227  07BE               	movf	1+(??___flmul+0)+0,w
  2908  0228  0833               	clrz
  2909  0229  1103               	skipnc
  2910  022A  1803               	addlw	1
  2911  022B  3E01               	skipnz
  2912  022C  1903               	goto	u1141
  2913  022D  2A2F               	addwf	(___flmul@prod+1),f
  2914  022E  07BF               u1141:
  2915  022F                     	movf	2+(??___flmul+0)+0,w
  2916  022F  0834               	clrz
  2917  0230  1103               	skipnc
  2918  0231  1803               	addlw	1
  2919  0232  3E01               	skipnz
  2920  0233  1903               	goto	u1142
  2921  0234  2A36               	addwf	(___flmul@prod+2),f
  2922  0235  07C0               u1142:
  2923  0236                     	movf	3+(??___flmul+0)+0,w
  2924  0236  0835               	clrz
  2925  0237  1103               	skipnc
  2926  0238  1803               	addlw	1
  2927  0239  3E01               	skipnz
  2928  023A  1903               	goto	u1143
  2929  023B  2A3D               	addwf	(___flmul@prod+3),f
  2930  023C  07C1               u1143:
  2931  023D                     
  2932                           	line	140
  2933                           	movf	0+(___flmul@b)+02h,w
  2934  023D  082C               	movwf	(??___flmul+0)+0
  2935  023E  00B2               	movf	(??___flmul+0)+0,w
  2936  023F  0832               	movwf	(__Umul8_16@multiplicand)
  2937  0240  00F3               	movf	0+(___flmul@a)+02h,w
  2938  0241  0830               	fcall	__Umul8_16
  2939  0242  120A  118A  264D  120A  118A  	movf	(1+(?__Umul8_16)),w
  2940  0247  0874               	bcf	status, 5	;RP0=0, select bank0
  2941  0248  1283               	bcf	status, 6	;RP1=0, select bank0
  2942  0249  1303               	movwf	(___flmul@temp+1)
  2943  024A  00C3               	movf	(0+(?__Umul8_16)),w
  2944  024B  0873               	movwf	(___flmul@temp)
  2945  024C  00C2               	line	141
  2946                           	
  2947                           l1207:	
  2948  024D                     	movf	(___flmul@temp),w
  2949  024D  0842               	movwf	((??___flmul+0)+0)
  2950  024E  00B2               	movf	(___flmul@temp+1),w
  2951  024F  0843               	movwf	((??___flmul+0)+0+1)
  2952  0250  00B3               	clrf	((??___flmul+0)+0+2)
  2953  0251  01B4               	clrf	((??___flmul+0)+0+3)
  2954  0252  01B5               	movlw	08h
  2955  0253  3008               u1155:
  2956  0254                     	clrc
  2957  0254  1003               	rlf	(??___flmul+0)+0,f
  2958  0255  0DB2               	rlf	(??___flmul+0)+1,f
  2959  0256  0DB3               	rlf	(??___flmul+0)+2,f
  2960  0257  0DB4               	rlf	(??___flmul+0)+3,f
  2961  0258  0DB5               u1150:
  2962  0259                     	addlw	-1
  2963  0259  3EFF               	skipz
  2964  025A  1D03               	goto	u1155
  2965  025B  2A54               	movf	0+(??___flmul+0)+0,w
  2966  025C  0832               	addwf	(___flmul@prod),f
  2967  025D  07BE               	movf	1+(??___flmul+0)+0,w
  2968  025E  0833               	clrz
  2969  025F  1103               	skipnc
  2970  0260  1803               	addlw	1
  2971  0261  3E01               	skipnz
  2972  0262  1903               	goto	u1161
  2973  0263  2A65               	addwf	(___flmul@prod+1),f
  2974  0264  07BF               u1161:
  2975  0265                     	movf	2+(??___flmul+0)+0,w
  2976  0265  0834               	clrz
  2977  0266  1103               	skipnc
  2978  0267  1803               	addlw	1
  2979  0268  3E01               	skipnz
  2980  0269  1903               	goto	u1162
  2981  026A  2A6C               	addwf	(___flmul@prod+2),f
  2982  026B  07C0               u1162:
  2983  026C                     	movf	3+(??___flmul+0)+0,w
  2984  026C  0835               	clrz
  2985  026D  1103               	skipnc
  2986  026E  1803               	addlw	1
  2987  026F  3E01               	skipnz
  2988  0270  1903               	goto	u1163
  2989  0271  2A73               	addwf	(___flmul@prod+3),f
  2990  0272  07C1               u1163:
  2991  0273                     
  2992                           	line	145
  2993                           	
  2994                           l1209:	
  2995  0273                     	movf	(___flmul@grs),w
  2996  0273  0838               	movwf	(??___flmul+0)+0
  2997  0274  00B2               	movf	(___flmul@grs+1),w
  2998  0275  0839               	movwf	((??___flmul+0)+0+1)
  2999  0276  00B3               	movf	(___flmul@grs+2),w
  3000  0277  083A               	movwf	((??___flmul+0)+0+2)
  3001  0278  00B4               	movf	(___flmul@grs+3),w
  3002  0279  083B               	movwf	((??___flmul+0)+0+3)
  3003  027A  00B5               	movlw	018h
  3004  027B  3018               u1175:
  3005  027C                     	clrc
  3006  027C  1003               	rrf	(??___flmul+0)+3,f
  3007  027D  0CB5               	rrf	(??___flmul+0)+2,f
  3008  027E  0CB4               	rrf	(??___flmul+0)+1,f
  3009  027F  0CB3               	rrf	(??___flmul+0)+0,f
  3010  0280  0CB2               u1170:
  3011  0281                     	addlw	-1
  3012  0281  3EFF               	skipz
  3013  0282  1D03               	goto	u1175
  3014  0283  2A7C               	movf	0+(??___flmul+0)+0,w
  3015  0284  0832               	addwf	(___flmul@prod),f
  3016  0285  07BE               	movf	1+(??___flmul+0)+0,w
  3017  0286  0833               	clrz
  3018  0287  1103               	skipnc
  3019  0288  1803               	addlw	1
  3020  0289  3E01               	skipnz
  3021  028A  1903               	goto	u1181
  3022  028B  2A8D               	addwf	(___flmul@prod+1),f
  3023  028C  07BF               u1181:
  3024  028D                     	movf	2+(??___flmul+0)+0,w
  3025  028D  0834               	clrz
  3026  028E  1103               	skipnc
  3027  028F  1803               	addlw	1
  3028  0290  3E01               	skipnz
  3029  0291  1903               	goto	u1182
  3030  0292  2A94               	addwf	(___flmul@prod+2),f
  3031  0293  07C0               u1182:
  3032  0294                     	movf	3+(??___flmul+0)+0,w
  3033  0294  0835               	clrz
  3034  0295  1103               	skipnc
  3035  0296  1803               	addlw	1
  3036  0297  3E01               	skipnz
  3037  0298  1903               	goto	u1183
  3038  0299  2A9B               	addwf	(___flmul@prod+3),f
  3039  029A  07C1               u1183:
  3040  029B                     
  3041                           	line	146
  3042                           	
  3043                           l1211:	
  3044  029B                     	movlw	08h
  3045  029B  3008               	movwf	(??___flmul+0)+0
  3046  029C  00B2               u1195:
  3047  029D                     	clrc
  3048  029D  1003               	rlf	(___flmul@grs),f
  3049  029E  0DB8               	rlf	(___flmul@grs+1),f
  3050  029F  0DB9               	rlf	(___flmul@grs+2),f
  3051  02A0  0DBA               	rlf	(___flmul@grs+3),f
  3052  02A1  0DBB               	decfsz	(??___flmul+0)+0
  3053  02A2  0BB2               	goto	u1195
  3054  02A3  2A9D               	line	149
  3055                           	
  3056                           l1213:	
  3057  02A4                     	movf	(___flmul@bexp),w
  3058  02A4  083D               	addwf	(___flmul@aexp),w
  3059  02A5  073C               	movwf	(??___flmul+0)+0
  3060  02A6  00B2               	clrf	(??___flmul+0)+0+1
  3061  02A7  01B3               	rlf	1+(??___flmul+0)+0,f
  3062  02A8  0DB3               	
  3063                           	movf	0+(??___flmul+0)+0,w
  3064  02A9  0832               	addlw	low(-126)
  3065  02AA  3E82               	movwf	(___flmul@temp)
  3066  02AB  00C2               	movf	1+(??___flmul+0)+0,w
  3067  02AC  0833               	skipnc
  3068  02AD  1803               	addlw	1
  3069  02AE  3E01               	addlw	high(-126)
  3070  02AF  3EFF               	movwf	1+(___flmul@temp)
  3071  02B0  00C3               	line	152
  3072                           	goto	l1225
  3073  02B1  2AD1               	
  3074                           l611:	
  3075  02B2                     	line	153
  3076                           	
  3077                           l1215:	
  3078  02B2                     	movlw	01h
  3079  02B2  3001               	movwf	(??___flmul+0)+0
  3080  02B3  00B2               u1205:
  3081  02B4                     	clrc
  3082  02B4  1003               	rlf	(___flmul@prod),f
  3083  02B5  0DBE               	rlf	(___flmul@prod+1),f
  3084  02B6  0DBF               	rlf	(___flmul@prod+2),f
  3085  02B7  0DC0               	rlf	(___flmul@prod+3),f
  3086  02B8  0DC1               	decfsz	(??___flmul+0)+0
  3087  02B9  0BB2               	goto	u1205
  3088  02BA  2AB4               	line	154
  3089                           	
  3090                           l1217:	
  3091  02BB                     	btfss	(___flmul@grs+3),(31)&7
  3092  02BB  1FBB               	goto	u1211
  3093  02BC  2ABE               	goto	u1210
  3094  02BD  2ABF               u1211:
  3095  02BE                     	goto	l1221
  3096  02BE  2AC1               u1210:
  3097  02BF                     	line	155
  3098                           	
  3099                           l1219:	
  3100  02BF                     	bsf	(___flmul@prod)+(0/8),(0)&7
  3101  02BF  143E               	goto	l1221
  3102  02C0  2AC1               	line	156
  3103                           	
  3104                           l612:	
  3105  02C1                     	line	157
  3106                           	
  3107                           l1221:	
  3108  02C1                     	movlw	01h
  3109  02C1  3001               	movwf	(??___flmul+0)+0
  3110  02C2  00B2               u1225:
  3111  02C3                     	clrc
  3112  02C3  1003               	rlf	(___flmul@grs),f
  3113  02C4  0DB8               	rlf	(___flmul@grs+1),f
  3114  02C5  0DB9               	rlf	(___flmul@grs+2),f
  3115  02C6  0DBA               	rlf	(___flmul@grs+3),f
  3116  02C7  0DBB               	decfsz	(??___flmul+0)+0
  3117  02C8  0BB2               	goto	u1225
  3118  02C9  2AC3               	line	158
  3119                           	
  3120                           l1223:	
  3121  02CA                     	movlw	0FFh
  3122  02CA  30FF               	addwf	(___flmul@temp),f
  3123  02CB  07C2               	skipnc
  3124  02CC  1803               	incf	(___flmul@temp+1),f
  3125  02CD  0AC3               	movlw	0FFh
  3126  02CE  30FF               	addwf	(___flmul@temp+1),f
  3127  02CF  07C3               	goto	l1225
  3128  02D0  2AD1               	line	159
  3129                           	
  3130                           l610:	
  3131  02D1                     	line	152
  3132                           	
  3133                           l1225:	
  3134  02D1                     	btfss	(___flmul@prod+2),(23)&7
  3135  02D1  1FC0               	goto	u1231
  3136  02D2  2AD4               	goto	u1230
  3137  02D3  2AD5               u1231:
  3138  02D4                     	goto	l1215
  3139  02D4  2AB2               u1230:
  3140  02D5                     	goto	l1227
  3141  02D5  2AD6               	
  3142                           l613:	
  3143  02D6                     	line	163
  3144                           	
  3145                           l1227:	
  3146  02D6                     	clrf	(___flmul@aexp)
  3147  02D6  01BC               	line	164
  3148                           	
  3149                           l1229:	
  3150  02D7                     	btfss	(___flmul@grs+3),(31)&7
  3151  02D7  1FBB               	goto	u1241
  3152  02D8  2ADA               	goto	u1240
  3153  02D9  2ADB               u1241:
  3154  02DA                     	goto	l1237
  3155  02DA  2AFB               u1240:
  3156  02DB                     	line	165
  3157                           	
  3158                           l1231:	
  3159  02DB                     	movlw	0FFh
  3160  02DB  30FF               	andwf	(___flmul@grs),w
  3161  02DC  0538               	movwf	(??___flmul+0)+0
  3162  02DD  00B2               	movlw	0FFh
  3163  02DE  30FF               	andwf	(___flmul@grs+1),w
  3164  02DF  0539               	movwf	((??___flmul+0)+0+1)
  3165  02E0  00B3               	movlw	0FFh
  3166  02E1  30FF               	andwf	(___flmul@grs+2),w
  3167  02E2  053A               	movwf	((??___flmul+0)+0+2)
  3168  02E3  00B4               	movlw	07Fh
  3169  02E4  307F               	andwf	(___flmul@grs+3),w
  3170  02E5  053B               	movwf	((??___flmul+0)+0+3)
  3171  02E6  00B5               	movf	3+(??___flmul+0)+0,w
  3172  02E7  0835               	iorwf	2+(??___flmul+0)+0,w
  3173  02E8  0434               	iorwf	1+(??___flmul+0)+0,w
  3174  02E9  0433               	iorwf	0+(??___flmul+0)+0,w
  3175  02EA  0432               	skipnz
  3176  02EB  1903               	goto	u1251
  3177  02EC  2AEE               	goto	u1250
  3178  02ED  2AEF               u1251:
  3179  02EE                     	goto	l615
  3180  02EE  2AF2               u1250:
  3181  02EF                     	line	166
  3182                           	
  3183                           l1233:	
  3184  02EF                     	clrf	(___flmul@aexp)
  3185  02EF  01BC               	incf	(___flmul@aexp),f
  3186  02F0  0ABC               	line	167
  3187                           	goto	l1237
  3188  02F1  2AFB               	line	168
  3189                           	
  3190                           l615:	
  3191  02F2                     	line	169
  3192                           	btfss	(___flmul@prod),(0)&7
  3193  02F2  1C3E               	goto	u1261
  3194  02F3  2AF5               	goto	u1260
  3195  02F4  2AF6               u1261:
  3196  02F5                     	goto	l1237
  3197  02F5  2AFB               u1260:
  3198  02F6                     	line	170
  3199                           	
  3200                           l1235:	
  3201  02F6                     	clrf	(___flmul@aexp)
  3202  02F6  01BC               	incf	(___flmul@aexp),f
  3203  02F7  0ABC               	goto	l1237
  3204  02F8  2AFB               	line	171
  3205                           	
  3206                           l617:	
  3207  02F9                     	goto	l1237
  3208  02F9  2AFB               	line	172
  3209                           	
  3210                           l616:	
  3211  02FA                     	goto	l1237
  3212  02FA  2AFB               	line	173
  3213                           	
  3214                           l614:	
  3215  02FB                     	line	174
  3216                           	
  3217                           l1237:	
  3218  02FB                     	movf	((___flmul@aexp)),w
  3219  02FB  083C               	btfsc	status,2
  3220  02FC  1903               	goto	u1271
  3221  02FD  2AFF               	goto	u1270
  3222  02FE  2B00               u1271:
  3223  02FF                     	goto	l1247
  3224  02FF  2B33               u1270:
  3225  0300                     	line	175
  3226                           	
  3227                           l1239:	
  3228  0300                     	movlw	01h
  3229  0300  3001               	addwf	(___flmul@prod),f
  3230  0301  07BE               	movlw	0
  3231  0302  3000               	skipnc
  3232  0303  1803               movlw 1
  3233  0304  3001               	addwf	(___flmul@prod+1),f
  3234  0305  07BF               	movlw	0
  3235  0306  3000               	skipnc
  3236  0307  1803               movlw 1
  3237  0308  3001               	addwf	(___flmul@prod+2),f
  3238  0309  07C0               	movlw	0
  3239  030A  3000               	skipnc
  3240  030B  1803               movlw 1
  3241  030C  3001               	addwf	(___flmul@prod+3),f
  3242  030D  07C1               	line	176
  3243                           	
  3244                           l1241:	
  3245  030E                     	btfss	(___flmul@prod+3),(24)&7
  3246  030E  1C41               	goto	u1281
  3247  030F  2B11               	goto	u1280
  3248  0310  2B12               u1281:
  3249  0311                     	goto	l1247
  3250  0311  2B33               u1280:
  3251  0312                     	line	177
  3252                           	
  3253                           l1243:	
  3254  0312                     	movf	(___flmul@prod),w
  3255  0312  083E               	movwf	(??___flmul+0)+0
  3256  0313  00B2               	movf	(___flmul@prod+1),w
  3257  0314  083F               	movwf	((??___flmul+0)+0+1)
  3258  0315  00B3               	movf	(___flmul@prod+2),w
  3259  0316  0840               	movwf	((??___flmul+0)+0+2)
  3260  0317  00B4               	movf	(___flmul@prod+3),w
  3261  0318  0841               	movwf	((??___flmul+0)+0+3)
  3262  0319  00B5               	movlw	01h
  3263  031A  3001               	movwf	(??___flmul+4)+0
  3264  031B  00B6               u1295:
  3265  031C                     	rlf	(??___flmul+0)+3,w
  3266  031C  0D35               	rrf	(??___flmul+0)+3,f
  3267  031D  0CB5               	rrf	(??___flmul+0)+2,f
  3268  031E  0CB4               	rrf	(??___flmul+0)+1,f
  3269  031F  0CB3               	rrf	(??___flmul+0)+0,f
  3270  0320  0CB2               u1290:
  3271  0321                     	decfsz	(??___flmul+4)+0,f
  3272  0321  0BB6               	goto	u1295
  3273  0322  2B1C               	movf	3+(??___flmul+0)+0,w
  3274  0323  0835               	movwf	(___flmul@prod+3)
  3275  0324  00C1               	movf	2+(??___flmul+0)+0,w
  3276  0325  0834               	movwf	(___flmul@prod+2)
  3277  0326  00C0               	movf	1+(??___flmul+0)+0,w
  3278  0327  0833               	movwf	(___flmul@prod+1)
  3279  0328  00BF               	movf	0+(??___flmul+0)+0,w
  3280  0329  0832               	movwf	(___flmul@prod)
  3281  032A  00BE               
  3282                           	line	178
  3283                           	
  3284                           l1245:	
  3285  032B                     	movlw	01h
  3286  032B  3001               	addwf	(___flmul@temp),f
  3287  032C  07C2               	skipnc
  3288  032D  1803               	incf	(___flmul@temp+1),f
  3289  032E  0AC3               	movlw	0
  3290  032F  3000               	addwf	(___flmul@temp+1),f
  3291  0330  07C3               	goto	l1247
  3292  0331  2B33               	line	179
  3293                           	
  3294                           l619:	
  3295  0332                     	goto	l1247
  3296  0332  2B33               	line	180
  3297                           	
  3298                           l618:	
  3299  0333                     	line	183
  3300                           	
  3301                           l1247:	
  3302  0333                     	movf	(___flmul@temp+1),w
  3303  0333  0843               	xorlw	80h
  3304  0334  3A80               	movwf	btemp+1
  3305  0335  00FF               	movlw	(0)^80h
  3306  0336  3080               	subwf	btemp+1,w
  3307  0337  027F               	skipz
  3308  0338  1D03               	goto	u1305
  3309  0339  2B3C               	movlw	0FFh
  3310  033A  30FF               	subwf	(___flmul@temp),w
  3311  033B  0242               u1305:
  3312  033C                     
  3313                           	skipc
  3314  033C  1C03               	goto	u1301
  3315  033D  2B3F               	goto	u1300
  3316  033E  2B40               u1301:
  3317  033F                     	goto	l1251
  3318  033F  2B4B               u1300:
  3319  0340                     	line	184
  3320                           	
  3321                           l1249:	
  3322  0340                     	movlw	07Fh
  3323  0340  307F               	bcf	status, 5	;RP0=0, select bank0
  3324  0341  1283               	bcf	status, 6	;RP1=0, select bank0
  3325  0342  1303               	movwf	(___flmul@prod+3)
  3326  0343  00C1               	movlw	080h
  3327  0344  3080               	movwf	(___flmul@prod+2)
  3328  0345  00C0               	movlw	0
  3329  0346  3000               	movwf	(___flmul@prod+1)
  3330  0347  00BF               	movlw	0
  3331  0348  3000               	movwf	(___flmul@prod)
  3332  0349  00BE               
  3333                           	line	185
  3334                           	goto	l621
  3335  034A  2B82               	line	187
  3336                           	
  3337                           l620:	
  3338  034B                     	
  3339                           l1251:	
  3340  034B                     	bcf	status, 5	;RP0=0, select bank0
  3341  034B  1283               	bcf	status, 6	;RP1=0, select bank0
  3342  034C  1303               	movf	(___flmul@temp+1),w
  3343  034D  0843               	xorlw	80h
  3344  034E  3A80               	movwf	btemp+1
  3345  034F  00FF               	movlw	(0)^80h
  3346  0350  3080               	subwf	btemp+1,w
  3347  0351  027F               	skipz
  3348  0352  1D03               	goto	u1315
  3349  0353  2B56               	movlw	01h
  3350  0354  3001               	subwf	(___flmul@temp),w
  3351  0355  0242               u1315:
  3352  0356                     
  3353                           	skipnc
  3354  0356  1803               	goto	u1311
  3355  0357  2B59               	goto	u1310
  3356  0358  2B5A               u1311:
  3357  0359                     	goto	l1257
  3358  0359  2B66               u1310:
  3359  035A                     	line	188
  3360                           	
  3361                           l1253:	
  3362  035A                     	movlw	high highword(0)
  3363  035A  3000               	bcf	status, 5	;RP0=0, select bank0
  3364  035B  1283               	bcf	status, 6	;RP1=0, select bank0
  3365  035C  1303               	movwf	(___flmul@prod+3)
  3366  035D  00C1               	movlw	low highword(0)
  3367  035E  3000               	movwf	(___flmul@prod+2)
  3368  035F  00C0               	movlw	high(0)
  3369  0360  3000               	movwf	(___flmul@prod+1)
  3370  0361  00BF               	movlw	low(0)
  3371  0362  3000               	movwf	(___flmul@prod)
  3372  0363  00BE               
  3373                           	line	190
  3374                           	
  3375                           l1255:	
  3376  0364                     	clrf	(___flmul@sign)
  3377  0364  01B7               	line	191
  3378                           	goto	l621
  3379  0365  2B82               	line	192
  3380                           	
  3381                           l622:	
  3382  0366                     	line	194
  3383                           	
  3384                           l1257:	
  3385  0366                     	bcf	status, 5	;RP0=0, select bank0
  3386  0366  1283               	bcf	status, 6	;RP1=0, select bank0
  3387  0367  1303               	movf	(___flmul@temp),w
  3388  0368  0842               	movwf	(??___flmul+0)+0
  3389  0369  00B2               	movf	(??___flmul+0)+0,w
  3390  036A  0832               	movwf	(___flmul@bexp)
  3391  036B  00BD               	line	195
  3392                           	movlw	0FFh
  3393  036C  30FF               	andwf	(___flmul@prod),f
  3394  036D  05BE               	movlw	0FFh
  3395  036E  30FF               	andwf	(___flmul@prod+1),f
  3396  036F  05BF               	movlw	07Fh
  3397  0370  307F               	andwf	(___flmul@prod+2),f
  3398  0371  05C0               	movlw	0
  3399  0372  3000               	andwf	(___flmul@prod+3),f
  3400  0373  05C1               	line	196
  3401                           	
  3402                           l1259:	
  3403  0374                     	btfss	(___flmul@bexp),(0)&7
  3404  0374  1C3D               	goto	u1321
  3405  0375  2B77               	goto	u1320
  3406  0376  2B78               u1321:
  3407  0377                     	goto	l1263
  3408  0377  2B7A               u1320:
  3409  0378                     	line	197
  3410                           	
  3411                           l1261:	
  3412  0378                     	bsf	0+(___flmul@prod)+02h+(7/8),(7)&7
  3413  0378  17C0               	goto	l1263
  3414  0379  2B7A               	line	198
  3415                           	
  3416                           l624:	
  3417  037A                     	line	199
  3418                           	
  3419                           l1263:	
  3420  037A                     	movf	(___flmul@bexp),w
  3421  037A  083D               	movwf	(??___flmul+0)+0
  3422  037B  00B2               	clrc
  3423  037C  1003               	rrf	(??___flmul+0)+0,w
  3424  037D  0C32               	movwf	(??___flmul+1)+0
  3425  037E  00B3               	movf	(??___flmul+1)+0,w
  3426  037F  0833               	movwf	0+(___flmul@prod)+03h
  3427  0380  00C1               	goto	l621
  3428  0381  2B82               	line	200
  3429                           	
  3430                           l623:	
  3431  0382                     	
  3432                           l621:	
  3433  0382                     	line	201
  3434                           	movf	(___flmul@sign),w
  3435  0382  0837               	movwf	(??___flmul+0)+0
  3436  0383  00B2               	movf	(??___flmul+0)+0,w
  3437  0384  0832               	iorwf	0+(___flmul@prod)+03h,f
  3438  0385  04C1               	line	203
  3439                           	
  3440                           l1265:	
  3441  0386                     	movf	(___flmul@prod+3),w
  3442  0386  0841               	movwf	(?___flmul+3)
  3443  0387  00AD               	movf	(___flmul@prod+2),w
  3444  0388  0840               	movwf	(?___flmul+2)
  3445  0389  00AC               	movf	(___flmul@prod+1),w
  3446  038A  083F               	movwf	(?___flmul+1)
  3447  038B  00AB               	movf	(___flmul@prod),w
  3448  038C  083E               	movwf	(?___flmul)
  3449  038D  00AA               
  3450                           	goto	l609
  3451  038E  2B8F               	
  3452                           l1267:	
  3453  038F                     	line	205
  3454                           	
  3455                           l609:	
  3456  038F                     	return
  3457  038F  0008               	opt stack 0
  3458                           GLOBAL	__end_of___flmul
  3459                           	__end_of___flmul:
  3460  0390                     	signat	___flmul,8316
  3461                           	global	__Umul8_16
  3462                           
  3463 ;; *************** function __Umul8_16 *****************
  3464 ;; Defined at:
  3465 ;;		line 4 in file "C:\Program Files (x86)\Microchip\xc8\v2.00\pic\sources\c90\common\Umul8_16.c"
  3466 ;; Parameters:    Size  Location     Type
  3467 ;;  multiplier      1    wreg     unsigned char 
  3468 ;;  multiplicand    1    3[COMMON] unsigned char 
  3469 ;; Auto vars:     Size  Location     Type
  3470 ;;  multiplier      1    4[BANK0 ] unsigned char 
  3471 ;;  word_mpld       2    2[BANK0 ] unsigned int 
  3472 ;;  product         2    0[BANK0 ] unsigned int 
  3473 ;; Return value:  Size  Location     Type
  3474 ;;                  2    3[COMMON] unsigned int 
  3475 ;; Registers used:
  3476 ;;		wreg, status,2, status,0
  3477 ;; Tracked objects:
  3478 ;;		On entry : 0/0
  3479 ;;		On exit  : 0/0
  3480 ;;		Unchanged: 0/0
  3481 ;; Data sizes:     COMMON   BANK0   BANK1   BANK3   BANK2
  3482 ;;      Params:         2       0       0       0       0
  3483 ;;      Locals:         0       5       0       0       0
  3484 ;;      Temps:          2       0       0       0       0
  3485 ;;      Totals:         4       5       0       0       0
  3486 ;;Total ram usage:        9 bytes
  3487 ;; Hardware stack levels used:    1
  3488 ;; Hardware stack levels required when called:    1
  3489 ;; This function calls:
  3490 ;;		Nothing
  3491 ;; This function is called by:
  3492 ;;		___flmul
  3493 ;; This function uses a non-reentrant model
  3494 ;;
  3495                           psect	text5,local,class=CODE,delta=2,merge=1,group=1
  3496                           	file	"C:\Program Files (x86)\Microchip\xc8\v2.00\pic\sources\c90\common\Umul8_16.c"
  3497                           	line	4
  3498                           global __ptext5
  3499                           __ptext5:	;psect for function __Umul8_16
  3500  064D                     psect	text5
  3501                           	file	"C:\Program Files (x86)\Microchip\xc8\v2.00\pic\sources\c90\common\Umul8_16.c"
  3502                           	line	4
  3503                           	global	__size_of__Umul8_16
  3504                           	__size_of__Umul8_16	equ	__end_of__Umul8_16-__Umul8_16
  3505  002C                     	
  3506                           __Umul8_16:	
  3507  064D                     ;incstack = 0
  3508                           	opt	stack 4
  3509                           ; Regs used in __Umul8_16: [wreg+status,2+status,0]
  3510                           ;__Umul8_16@multiplier stored from wreg
  3511                           	bcf	status, 5	;RP0=0, select bank0
  3512  064D  1283               	bcf	status, 6	;RP1=0, select bank0
  3513  064E  1303               	movwf	(__Umul8_16@multiplier)
  3514  064F  00A4               	line	5
  3515                           	
  3516                           l1079:	
  3517  0650                     	clrf	(__Umul8_16@product)
  3518  0650  01A0               	clrf	(__Umul8_16@product+1)
  3519  0651  01A1               	line	6
  3520                           	
  3521                           l1081:	
  3522  0652                     	movf	(__Umul8_16@multiplicand),w
  3523  0652  0873               	movwf	(??__Umul8_16+0)+0
  3524  0653  00F5               	clrf	(??__Umul8_16+0)+0+1
  3525  0654  01F6               	movf	0+(??__Umul8_16+0)+0,w
  3526  0655  0875               	movwf	(__Umul8_16@word_mpld)
  3527  0656  00A2               	movf	1+(??__Umul8_16+0)+0,w
  3528  0657  0876               	movwf	(__Umul8_16@word_mpld+1)
  3529  0658  00A3               	goto	l1083
  3530  0659  2E5A               	line	50
  3531                           	
  3532                           l646:	
  3533  065A                     	line	51
  3534                           	
  3535                           l1083:	
  3536  065A                     	btfss	(__Umul8_16@multiplier),(0)&7
  3537  065A  1C24               	goto	u831
  3538  065B  2E5D               	goto	u830
  3539  065C  2E5E               u831:
  3540  065D                     	goto	l647
  3541  065D  2E64               u830:
  3542  065E                     	line	52
  3543                           	
  3544                           l1085:	
  3545  065E                     	movf	(__Umul8_16@word_mpld),w
  3546  065E  0822               	addwf	(__Umul8_16@product),f
  3547  065F  07A0               	skipnc
  3548  0660  1803               	incf	(__Umul8_16@product+1),f
  3549  0661  0AA1               	movf	(__Umul8_16@word_mpld+1),w
  3550  0662  0823               	addwf	(__Umul8_16@product+1),f
  3551  0663  07A1               	line	53
  3552                           	
  3553                           l647:	
  3554  0664                     	line	54
  3555                           	movlw	01h
  3556  0664  3001               	
  3557                           u845:
  3558  0665                     	clrc
  3559  0665  1003               	rlf	(__Umul8_16@word_mpld),f
  3560  0666  0DA2               	rlf	(__Umul8_16@word_mpld+1),f
  3561  0667  0DA3               	addlw	-1
  3562  0668  3EFF               	skipz
  3563  0669  1D03               	goto	u845
  3564  066A  2E65               	line	55
  3565                           	clrc
  3566  066B  1003               	rrf	(__Umul8_16@multiplier),f
  3567  066C  0CA4               
  3568                           	line	56
  3569                           	
  3570                           l1087:	
  3571  066D                     	movf	((__Umul8_16@multiplier)),w
  3572  066D  0824               	btfss	status,2
  3573  066E  1D03               	goto	u851
  3574  066F  2E71               	goto	u850
  3575  0670  2E72               u851:
  3576  0671                     	goto	l1083
  3577  0671  2E5A               u850:
  3578  0672                     	goto	l1089
  3579  0672  2E73               	
  3580                           l648:	
  3581  0673                     	line	59
  3582                           	
  3583                           l1089:	
  3584  0673                     	movf	(__Umul8_16@product+1),w
  3585  0673  0821               	movwf	(?__Umul8_16+1)
  3586  0674  00F4               	movf	(__Umul8_16@product),w
  3587  0675  0820               	movwf	(?__Umul8_16)
  3588  0676  00F3               	goto	l649
  3589  0677  2E78               	
  3590                           l1091:	
  3591  0678                     	line	60
  3592                           	
  3593                           l649:	
  3594  0678                     	return
  3595  0678  0008               	opt stack 0
  3596                           GLOBAL	__end_of__Umul8_16
  3597                           	__end_of__Umul8_16:
  3598  0679                     	signat	__Umul8_16,8314
  3599                           	global	_I2C_Slave_Init
  3600                           
  3601 ;; *************** function _I2C_Slave_Init *****************
  3602 ;; Defined at:
  3603 ;;		line 94 in file "I2C.c"
  3604 ;; Parameters:    Size  Location     Type
  3605 ;;  address         1    wreg     unsigned char 
  3606 ;; Auto vars:     Size  Location     Type
  3607 ;;  address         1    3[COMMON] unsigned char 
  3608 ;; Return value:  Size  Location     Type
  3609 ;;                  1    wreg      void 
  3610 ;; Registers used:
  3611 ;;		wreg
  3612 ;; Tracked objects:
  3613 ;;		On entry : 0/0
  3614 ;;		On exit  : 0/0
  3615 ;;		Unchanged: 0/0
  3616 ;; Data sizes:     COMMON   BANK0   BANK1   BANK3   BANK2
  3617 ;;      Params:         0       0       0       0       0
  3618 ;;      Locals:         1       0       0       0       0
  3619 ;;      Temps:          0       0       0       0       0
  3620 ;;      Totals:         1       0       0       0       0
  3621 ;;Total ram usage:        1 bytes
  3622 ;; Hardware stack levels used:    1
  3623 ;; Hardware stack levels required when called:    1
  3624 ;; This function calls:
  3625 ;;		Nothing
  3626 ;; This function is called by:
  3627 ;;		_main
  3628 ;; This function uses a non-reentrant model
  3629 ;;
  3630                           psect	text6,local,class=CODE,delta=2,merge=1,group=0
  3631                           	file	"I2C.c"
  3632                           	line	94
  3633                           global __ptext6
  3634                           __ptext6:	;psect for function _I2C_Slave_Init
  3635  0679                     psect	text6
  3636                           	file	"I2C.c"
  3637                           	line	94
  3638                           	global	__size_of_I2C_Slave_Init
  3639                           	__size_of_I2C_Slave_Init	equ	__end_of_I2C_Slave_Init-_I2C_Slave_Init
  3640  001A                     	
  3641                           _I2C_Slave_Init:	
  3642  0679                     ;incstack = 0
  3643                           	opt	stack 6
  3644                           ; Regs used in _I2C_Slave_Init: [wreg]
  3645                           ;I2C_Slave_Init@address stored from wreg
  3646                           	movwf	(I2C_Slave_Init@address)
  3647  0679  00F3               	line	96
  3648                           	
  3649                           l945:	
  3650  067A                     ;I2C.c: 94: void I2C_Slave_Init(uint8_t address);I2C.c: 95: {;I2C.c: 96:     SSPADD = ad
                                 dress;
  3651                           	movf	(I2C_Slave_Init@address),w
  3652  067A  0873               	bsf	status, 5	;RP0=1, select bank1
  3653  067B  1683               	bcf	status, 6	;RP1=0, select bank1
  3654  067C  1303               	movwf	(147)^080h	;volatile
  3655  067D  0093               	line	97
  3656                           ;I2C.c: 97:     SSPCON = 0x36;
  3657                           	movlw	low(036h)
  3658  067E  3036               	bcf	status, 5	;RP0=0, select bank0
  3659  067F  1283               	bcf	status, 6	;RP1=0, select bank0
  3660  0680  1303               	movwf	(20)	;volatile
  3661  0681  0094               	line	98
  3662                           ;I2C.c: 98:     SSPSTAT = 0x80;
  3663                           	movlw	low(080h)
  3664  0682  3080               	bsf	status, 5	;RP0=1, select bank1
  3665  0683  1683               	bcf	status, 6	;RP1=0, select bank1
  3666  0684  1303               	movwf	(148)^080h	;volatile
  3667  0685  0094               	line	99
  3668                           ;I2C.c: 99:     SSPCON2 = 0x01;
  3669                           	movlw	low(01h)
  3670  0686  3001               	movwf	(145)^080h	;volatile
  3671  0687  0091               	line	100
  3672                           	
  3673                           l947:	
  3674  0688                     ;I2C.c: 100:     TRISC3 = 1;
  3675                           	bsf	(1083/8)^080h,(1083)&7	;volatile
  3676  0688  1587               	line	101
  3677                           	
  3678                           l949:	
  3679  0689                     ;I2C.c: 101:     TRISC4 = 1;
  3680                           	bsf	(1084/8)^080h,(1084)&7	;volatile
  3681  0689  1607               	line	102
  3682                           	
  3683                           l951:	
  3684  068A                     ;I2C.c: 102:     GIE = 1;
  3685                           	bsf	(95/8),(95)&7	;volatile
  3686  068A  178B               	line	103
  3687                           	
  3688                           l953:	
  3689  068B                     ;I2C.c: 103:     PEIE = 1;
  3690                           	bsf	(94/8),(94)&7	;volatile
  3691  068B  170B               	line	104
  3692                           	
  3693                           l955:	
  3694  068C                     ;I2C.c: 104:     SSPIF = 0;
  3695                           	bcf	status, 5	;RP0=0, select bank0
  3696  068C  1283               	bcf	status, 6	;RP1=0, select bank0
  3697  068D  1303               	bcf	(99/8),(99)&7	;volatile
  3698  068E  118C               	line	105
  3699                           	
  3700                           l957:	
  3701  068F                     ;I2C.c: 105:     SSPIE = 1;
  3702                           	bsf	status, 5	;RP0=1, select bank1
  3703  068F  1683               	bcf	status, 6	;RP1=0, select bank1
  3704  0690  1303               	bsf	(1123/8)^080h,(1123)&7	;volatile
  3705  0691  158C               	line	106
  3706                           	
  3707                           l55:	
  3708  0692                     	return
  3709  0692  0008               	opt stack 0
  3710                           GLOBAL	__end_of_I2C_Slave_Init
  3711                           	__end_of_I2C_Slave_Init:
  3712  0693                     	signat	_I2C_Slave_Init,4217
  3713                           	global	_ISR
  3714                           
  3715 ;; *************** function _ISR *****************
  3716 ;; Defined at:
  3717 ;;		line 39 in file "Prin3.c"
  3718 ;; Parameters:    Size  Location     Type
  3719 ;;		None
  3720 ;; Auto vars:     Size  Location     Type
  3721 ;;		None
  3722 ;; Return value:  Size  Location     Type
  3723 ;;                  1    wreg      void 
  3724 ;; Registers used:
  3725 ;;		wreg
  3726 ;; Tracked objects:
  3727 ;;		On entry : 0/0
  3728 ;;		On exit  : 0/0
  3729 ;;		Unchanged: 0/0
  3730 ;; Data sizes:     COMMON   BANK0   BANK1   BANK3   BANK2
  3731 ;;      Params:         0       0       0       0       0
  3732 ;;      Locals:         0       0       0       0       0
  3733 ;;      Temps:          3       0       0       0       0
  3734 ;;      Totals:         3       0       0       0       0
  3735 ;;Total ram usage:        3 bytes
  3736 ;; Hardware stack levels used:    1
  3737 ;; This function calls:
  3738 ;;		Nothing
  3739 ;; This function is called by:
  3740 ;;		Interrupt level 1
  3741 ;; This function uses a non-reentrant model
  3742 ;;
  3743                           psect	text7,local,class=CODE,delta=2,merge=1,group=0
  3744                           	file	"Prin3.c"
  3745                           	line	39
  3746                           global __ptext7
  3747                           __ptext7:	;psect for function _ISR
  3748  05B2                     psect	text7
  3749                           	file	"Prin3.c"
  3750                           	line	39
  3751                           	global	__size_of_ISR
  3752                           	__size_of_ISR	equ	__end_of_ISR-_ISR
  3753  006B                     	
  3754                           _ISR:	
  3755  05B2                     ;incstack = 0
  3756                           	opt	stack 4
  3757                           ; Regs used in _ISR: [wreg]
  3758                           psect	intentry,class=CODE,delta=2
  3759                           global __pintentry
  3760                           __pintentry:
  3761  0004                     global interrupt_function
  3762                           interrupt_function:
  3763  0004                     	global saved_w
  3764                           	saved_w	set	btemp+0
  3765  007E                     	movwf	saved_w
  3766  0004  00FE               	swapf	status,w
  3767  0005  0E03               	movwf	(??_ISR+1)
  3768  0006  00F1               	movf	pclath,w
  3769  0007  080A               	movwf	(??_ISR+2)
  3770  0008  00F2               	ljmp	_ISR
  3771  0009  120A  118A  2DB2   psect	text7
  3772                           	line	40
  3773                           	
  3774                           i1l1335:	
  3775  05B2                     ;Prin3.c: 40:     if(PIR1bits.SSPIF == 1){
  3776                           	bcf	status, 5	;RP0=0, select bank0
  3777  05B2  1283               	bcf	status, 6	;RP1=0, select bank0
  3778  05B3  1303               	btfss	(12),3	;volatile
  3779  05B4  1D8C               	goto	u152_21
  3780  05B5  2DB7               	goto	u152_20
  3781  05B6  2DB8               u152_21:
  3782  05B7                     	goto	i1l113
  3783  05B7  2E16               u152_20:
  3784  05B8                     	line	42
  3785                           	
  3786                           i1l1337:	
  3787  05B8                     ;Prin3.c: 42:         SSPCONbits.CKP = 0;
  3788                           	bcf	(20),4	;volatile
  3789  05B8  1214               	line	44
  3790                           ;Prin3.c: 44:         if ((SSPCONbits.SSPOV) || (SSPCONbits.WCOL)){
  3791                           	btfsc	(20),6	;volatile
  3792  05B9  1B14               	goto	u153_21
  3793  05BA  2DBC               	goto	u153_20
  3794  05BB  2DBD               u153_21:
  3795  05BC                     	goto	i1l1341
  3796  05BC  2DC2               u153_20:
  3797  05BD                     	
  3798                           i1l1339:	
  3799  05BD                     	btfss	(20),7	;volatile
  3800  05BD  1F94               	goto	u154_21
  3801  05BE  2DC0               	goto	u154_20
  3802  05BF  2DC1               u154_21:
  3803  05C0                     	goto	i1l1349
  3804  05C0  2DCA               u154_20:
  3805  05C1                     	goto	i1l1341
  3806  05C1  2DC2               	
  3807                           i1l103:	
  3808  05C2                     	line	45
  3809                           	
  3810                           i1l1341:	
  3811  05C2                     ;Prin3.c: 45:             z = SSPBUF;
  3812                           	movf	(19),w	;volatile
  3813  05C2  0813               	movwf	(??_ISR+0)+0
  3814  05C3  00F0               	movf	(??_ISR+0)+0,w
  3815  05C4  0870               	movwf	(_z)
  3816  05C5  00FA               	line	46
  3817                           	
  3818                           i1l1343:	
  3819  05C6                     ;Prin3.c: 46:             SSPCONbits.SSPOV = 0;
  3820                           	bcf	(20),6	;volatile
  3821  05C6  1314               	line	47
  3822                           	
  3823                           i1l1345:	
  3824  05C7                     ;Prin3.c: 47:             SSPCONbits.WCOL = 0;
  3825                           	bcf	(20),7	;volatile
  3826  05C7  1394               	line	48
  3827                           	
  3828                           i1l1347:	
  3829  05C8                     ;Prin3.c: 48:             SSPCONbits.CKP = 1;
  3830                           	bsf	(20),4	;volatile
  3831  05C8  1614               	goto	i1l1349
  3832  05C9  2DCA               	line	49
  3833                           ;Prin3.c: 49:         }
  3834                           	
  3835                           i1l101:	
  3836  05CA                     	line	51
  3837                           	
  3838                           i1l1349:	
  3839  05CA                     ;Prin3.c: 51:         if(!SSPSTATbits.D_nA && !SSPSTATbits.R_nW) {
  3840                           	bsf	status, 5	;RP0=1, select bank1
  3841  05CA  1683               	bcf	status, 6	;RP1=0, select bank1
  3842  05CB  1303               	btfsc	(148)^080h,5	;volatile
  3843  05CC  1A94               	goto	u155_21
  3844  05CD  2DCF               	goto	u155_20
  3845  05CE  2DD0               u155_21:
  3846  05CF                     	goto	i1l104
  3847  05CF  2DEF               u155_20:
  3848  05D0                     	
  3849                           i1l1351:	
  3850  05D0                     	btfsc	(148)^080h,2	;volatile
  3851  05D0  1914               	goto	u156_21
  3852  05D1  2DD3               	goto	u156_20
  3853  05D2  2DD4               u156_21:
  3854  05D3                     	goto	i1l104
  3855  05D3  2DEF               u156_20:
  3856  05D4                     	line	53
  3857                           	
  3858                           i1l1353:	
  3859  05D4                     ;Prin3.c: 53:             z = SSPBUF;
  3860                           	bcf	status, 5	;RP0=0, select bank0
  3861  05D4  1283               	bcf	status, 6	;RP1=0, select bank0
  3862  05D5  1303               	movf	(19),w	;volatile
  3863  05D6  0813               	movwf	(??_ISR+0)+0
  3864  05D7  00F0               	movf	(??_ISR+0)+0,w
  3865  05D8  0870               	movwf	(_z)
  3866  05D9  00FA               	line	55
  3867                           	
  3868                           i1l1355:	
  3869  05DA                     ;Prin3.c: 55:             PIR1bits.SSPIF = 0;
  3870                           	bcf	(12),3	;volatile
  3871  05DA  118C               	line	56
  3872                           	
  3873                           i1l1357:	
  3874  05DB                     ;Prin3.c: 56:             SSPCONbits.CKP = 1;
  3875                           	bsf	(20),4	;volatile
  3876  05DB  1614               	line	57
  3877                           ;Prin3.c: 57:             while(!SSPSTATbits.BF);
  3878                           	goto	i1l105
  3879  05DC  2DDD               	
  3880                           i1l106:	
  3881  05DD                     	
  3882                           i1l105:	
  3883  05DD                     	bsf	status, 5	;RP0=1, select bank1
  3884  05DD  1683               	bcf	status, 6	;RP1=0, select bank1
  3885  05DE  1303               	btfss	(148)^080h,0	;volatile
  3886  05DF  1C14               	goto	u157_21
  3887  05E0  2DE2               	goto	u157_20
  3888  05E1  2DE3               u157_21:
  3889  05E2                     	goto	i1l105
  3890  05E2  2DDD               u157_20:
  3891  05E3                     	goto	i1l1359
  3892  05E3  2DE4               	
  3893                           i1l107:	
  3894  05E4                     	line	58
  3895                           	
  3896                           i1l1359:	
  3897  05E4                     ;Prin3.c: 58:             recibido = SSPBUF;
  3898                           	bcf	status, 5	;RP0=0, select bank0
  3899  05E4  1283               	bcf	status, 6	;RP1=0, select bank0
  3900  05E5  1303               	movf	(19),w	;volatile
  3901  05E6  0813               	movwf	(??_ISR+0)+0
  3902  05E7  00F0               	movf	(??_ISR+0)+0,w
  3903  05E8  0870               	movwf	(_recibido)
  3904  05E9  00F9               	line	59
  3905                           ;Prin3.c: 59:             _delay((unsigned long)((250)*(4000000/4000000.0)));
  3906                           	opt asmopt_push
  3907                           opt asmopt_off
  3908                           	movlw	83
  3909  05EA  3053               movwf	((??_ISR+0)+0),f
  3910  05EB  00F0               	u193_27:
  3911  05EC                     decfsz	(??_ISR+0)+0,f
  3912  05EC  0BF0               	goto	u193_27
  3913  05ED  2DEC               opt asmopt_pop
  3914                           
  3915                           	line	61
  3916                           ;Prin3.c: 61:         }else if(!SSPSTATbits.D_nA && SSPSTATbits.R_nW){
  3917                           	goto	i1l108
  3918  05EE  2E12               	
  3919                           i1l104:	
  3920  05EF                     	btfsc	(148)^080h,5	;volatile
  3921  05EF  1A94               	goto	u158_21
  3922  05F0  2DF2               	goto	u158_20
  3923  05F1  2DF3               u158_21:
  3924  05F2                     	goto	i1l108
  3925  05F2  2E12               u158_20:
  3926  05F3                     	
  3927                           i1l1361:	
  3928  05F3                     	btfss	(148)^080h,2	;volatile
  3929  05F3  1D14               	goto	u159_21
  3930  05F4  2DF6               	goto	u159_20
  3931  05F5  2DF7               u159_21:
  3932  05F6                     	goto	i1l108
  3933  05F6  2E12               u159_20:
  3934  05F7                     	line	62
  3935                           	
  3936                           i1l1363:	
  3937  05F7                     ;Prin3.c: 62:             z = SSPBUF;
  3938                           	bcf	status, 5	;RP0=0, select bank0
  3939  05F7  1283               	bcf	status, 6	;RP1=0, select bank0
  3940  05F8  1303               	movf	(19),w	;volatile
  3941  05F9  0813               	movwf	(??_ISR+0)+0
  3942  05FA  00F0               	movf	(??_ISR+0)+0,w
  3943  05FB  0870               	movwf	(_z)
  3944  05FC  00FA               	line	63
  3945                           	
  3946                           i1l1365:	
  3947  05FD                     ;Prin3.c: 63:             BF = 0;
  3948                           	bsf	status, 5	;RP0=1, select bank1
  3949  05FD  1683               	bcf	status, 6	;RP1=0, select bank1
  3950  05FE  1303               	bcf	(1184/8)^080h,(1184)&7	;volatile
  3951  05FF  1014               	line	64
  3952                           ;Prin3.c: 64:             SSPBUF = distancia;
  3953                           	bcf	status, 5	;RP0=0, select bank0
  3954  0600  1283               	bcf	status, 6	;RP1=0, select bank0
  3955  0601  1303               	movf	(_distancia),w
  3956  0602  085A               	movwf	(19)	;volatile
  3957  0603  0093               	line	65
  3958                           	
  3959                           i1l1367:	
  3960  0604                     ;Prin3.c: 65:             SSPCONbits.CKP = 1;
  3961                           	bsf	(20),4	;volatile
  3962  0604  1614               	line	66
  3963                           ;Prin3.c: 66:             _delay((unsigned long)((250)*(4000000/4000000.0)));
  3964                           	opt asmopt_push
  3965                           opt asmopt_off
  3966                           	movlw	83
  3967  0605  3053               movwf	((??_ISR+0)+0),f
  3968  0606  00F0               	u194_27:
  3969  0607                     decfsz	(??_ISR+0)+0,f
  3970  0607  0BF0               	goto	u194_27
  3971  0608  2E07               opt asmopt_pop
  3972                           
  3973                           	line	67
  3974                           ;Prin3.c: 67:             while(SSPSTATbits.BF);
  3975                           	goto	i1l110
  3976  0609  2E0A               	
  3977                           i1l111:	
  3978  060A                     	
  3979                           i1l110:	
  3980  060A                     	bsf	status, 5	;RP0=1, select bank1
  3981  060A  1683               	bcf	status, 6	;RP1=0, select bank1
  3982  060B  1303               	btfsc	(148)^080h,0	;volatile
  3983  060C  1814               	goto	u160_21
  3984  060D  2E0F               	goto	u160_20
  3985  060E  2E10               u160_21:
  3986  060F                     	goto	i1l110
  3987  060F  2E0A               u160_20:
  3988  0610                     	goto	i1l108
  3989  0610  2E12               	
  3990                           i1l112:	
  3991  0611                     	goto	i1l108
  3992  0611  2E12               	line	68
  3993                           ;Prin3.c: 68:         }
  3994                           	
  3995                           i1l109:	
  3996  0612                     	
  3997                           i1l108:	
  3998  0612                     	line	70
  3999                           ;Prin3.c: 70:         PIR1bits.SSPIF = 0;
  4000                           	bcf	status, 5	;RP0=0, select bank0
  4001  0612  1283               	bcf	status, 6	;RP1=0, select bank0
  4002  0613  1303               	bcf	(12),3	;volatile
  4003  0614  118C               	goto	i1l113
  4004  0615  2E16               	line	71
  4005                           ;Prin3.c: 71:     }
  4006                           	
  4007                           i1l100:	
  4008  0616                     	line	72
  4009                           	
  4010                           i1l113:	
  4011  0616                     	movf	(??_ISR+2),w
  4012  0616  0872               	movwf	pclath
  4013  0617  008A               	swapf	(??_ISR+1)^0FFFFFF80h,w
  4014  0618  0E71               	movwf	status
  4015  0619  0083               	swapf	saved_w,f
  4016  061A  0EFE               	swapf	saved_w,w
  4017  061B  0E7E               	retfie
  4018  061C  0009               	opt stack 0
  4019                           GLOBAL	__end_of_ISR
  4020                           	__end_of_ISR:
  4021  061D                     	signat	_ISR,89
  4022                           global	___latbits
  4023                           ___latbits	equ	2
  4024  0002                     	global	btemp
  4025                           	btemp set 07Eh
  4026  007E                     
  4027                           	DABS	1,126,2	;btemp
  4028                           	global	wtemp0
  4029                           	wtemp0 set btemp+0
  4030  007E                     	end


Data Sizes:
    Strings     0
    Constant    0
    Data        0
    BSS         6
    Persistent  0
    Stack       0

Auto Spaces:
    Space          Size  Autos    Used
    COMMON           14      9      11
    BANK0            80     58      62
    BANK1            80      0       0
    BANK3            96      0       0
    BANK2            96      0       0

Pointer List with Targets:

    None.

Critical Paths under _main in COMMON

    _mide_distancia->___fltol
    ___fltol->___xxtofl
    ___flmul->__Umul8_16
    ___flmul->___xxtofl

Critical Paths under _ISR in COMMON

    None.

Critical Paths under _main in BANK0

    _main->_mide_distancia
    _mide_distancia->___fltol
    ___fltol->___flmul
    ___flmul->___xxtofl

Critical Paths under _ISR in BANK0

    None.

Critical Paths under _main in BANK1

    None.

Critical Paths under _ISR in BANK1

    None.

Critical Paths under _main in BANK3

    None.

Critical Paths under _ISR in BANK3

    None.

Critical Paths under _main in BANK2

    None.

Critical Paths under _ISR in BANK2

    None.

Call Graph Tables:

 ---------------------------------------------------------------------------------
 (Depth) Function   	        Calls       Base Space   Used Autos Params    Refs
 ---------------------------------------------------------------------------------
 (0) _main                                                 2     2      0    3797
                                             56 BANK0      2     2      0
                     _I2C_Slave_Init
                     _mide_distancia
 ---------------------------------------------------------------------------------
 (1) _mide_distancia                                      11    11      0    3782
                                             45 BANK0     11    11      0
                            ___flmul
                            ___fltol
                           ___xxtofl
 ---------------------------------------------------------------------------------
 (2) ___xxtofl                                            14    10      4     566
                                              3 COMMON     4     0      4
                                              0 BANK0     10    10      0
 ---------------------------------------------------------------------------------
 (2) ___fltol                                             11     7      4     427
                                              7 COMMON     2     2      0
                                             36 BANK0      9     5      4
                            ___flmul (ARG)
                           ___xxtofl (ARG)
 ---------------------------------------------------------------------------------
 (2) ___flmul                                             26    18      8    2721
                                             10 BANK0     26    18      8
                          __Umul8_16
                           ___xxtofl (ARG)
 ---------------------------------------------------------------------------------
 (3) __Umul8_16                                            9     7      2     799
                                              3 COMMON     4     2      2
                                              0 BANK0      5     5      0
 ---------------------------------------------------------------------------------
 (1) _I2C_Slave_Init                                       1     1      0      15
                                              3 COMMON     1     1      0
 ---------------------------------------------------------------------------------
 Estimated maximum stack depth 3
 ---------------------------------------------------------------------------------
 (Depth) Function   	        Calls       Base Space   Used Autos Params    Refs
 ---------------------------------------------------------------------------------
 (4) _ISR                                                  3     3      0       0
                                              0 COMMON     3     3      0
 ---------------------------------------------------------------------------------
 Estimated maximum stack depth 4
 ---------------------------------------------------------------------------------

 Call Graph Graphs:

 _main (ROOT)
   _I2C_Slave_Init
   _mide_distancia
     ___flmul
       __Umul8_16
       ___xxtofl (ARG)
     ___fltol
       ___flmul (ARG)
         __Umul8_16
         ___xxtofl (ARG)
       ___xxtofl (ARG)
     ___xxtofl

 _ISR (ROOT)

 Address spaces:
Name               Size   Autos  Total    Cost      Usage
BITCOMMON            E      0       0       0        0.0%
EEDATA             100      0       0       0        0.0%
NULL                 0      0       0       0        0.0%
CODE                 0      0       0       0        0.0%
COMMON               E      9       B       1       78.6%
BITSFR0              0      0       0       1        0.0%
SFR0                 0      0       0       1        0.0%
BITSFR1              0      0       0       2        0.0%
SFR1                 0      0       0       2        0.0%
STACK                0      0       0       2        0.0%
ABS                  0      0      49       3        0.0%
BITBANK0            50      0       0       4        0.0%
BITSFR3              0      0       0       4        0.0%
SFR3                 0      0       0       4        0.0%
BANK0               50     3A      3E       5       77.5%
BITSFR2              0      0       0       5        0.0%
SFR2                 0      0       0       5        0.0%
BITBANK1            50      0       0       6        0.0%
BANK1               50      0       0       7        0.0%
BITBANK3            60      0       0       8        0.0%
BANK3               60      0       0       9        0.0%
BITBANK2            60      0       0      10        0.0%
BANK2               60      0       0      11        0.0%
DATA                 0      0      49      12        0.0%


Microchip Technology PIC Macro Assembler V2.00 build -1524193055 
Symbol Table                                                                                   Wed May 06 22:01:03 2020

                       _z 007A               __CFG_CP$OFF 0000               _SSPSTATbits 0094  
                      _BF 04A0                        l55 0692       __Umul8_16@word_mpld 0022  
                     l120 064A                       l121 064A                       l130 0471  
                     l131 0471                       l132 048C                       l124 0462  
                     l133 0490                       l125 0462                       l134 0515  
                     l126 0466                       l118 0634                       l127 0468  
                     l119 0649                       l128 0468                       l410 057D  
                     l411 05A1                       l412 058E                       l413 059A  
                     l405 0535                       l414 058F                       l406 05B1  
                     l415 05A0                       l407 057E                       l600 0041  
                     l416 05B1                       l408 056A                       l601 004C  
                     l409 056B                       l610 02D1                       l602 005D  
                     l611 02B2                       l603 0072                       l620 034B  
                     l612 02C1                       l604 0070                       l621 0382  
                     l613 02D6                       l605 007B                       l622 0366  
                     l614 02FB                       l606 0090                       l630 0453  
                     l623 0382                       l615 02F2                       l631 03D9  
                     l624 037A                       l616 02FA                       l608 0086  
                     l640 041B                       l632 03CB                       l617 02F9  
                     l609 038F                       l641 041B                       l633 03E0  
                     l618 0333                       l642 0427                       l634 03FC  
                     l619 0332                       l643 044A                       l635 03E1  
                     l627 03AC                       l636 0403                       l628 03B4  
                     l637 0410                       l629 03C6                       l646 065A  
                     l638 0404                       l647 0664                       l648 0673  
                     l649 0678                       l598 002E                       l951 068A  
                     l599 0043                       l953 068B                       l945 067A  
                     l955 068C                       l947 0688                       l957 068F  
                     l949 0689                       _GIE 005F              __CFG_CPD$OFF 0000  
                     _ISR 05B2                       u830 065E                       u831 065D  
                     u850 0672                       u851 0671                       u845 0665  
                     u960 002C                       u961 002B                       u970 0033  
                     u971 0032                       u980 0038                       u981 0037  
                     u990 005B                       u991 005A              ___flmul@aexp 003C  
            ___flmul@bexp 003D              ___flmul@sign 0037              ___flmul@temp 0042  
            ___flmul@prod 003E              __CFG_LVP$OFF 0000                      ?_ISR 0070  
            ___fltol@exp1 0078                      l1201 01E3                      l1211 029B  
                    l1203 0210                      l1131 0022                      l1221 02C1  
                    l1213 02A4                      l1205 0220                      l1141 0038  
                    l1133 0028                      l1231 02DB                      l1223 02CA  
                    l1215 02B2                      l1207 024D                      l1151 0057  
                    l1143 0041                      l1135 002C                      l1081 0652  
                    l1241 030E                      l1233 02EF                      l1217 02BB  
                    l1225 02D1                      l1209 0273                      l1161 0070  
                    l1153 005B                      l1145 0043                      l1137 002E  
                    l1129 001B                      l1401 054A                      l1091 0678  
                    l1083 065A                      l1251 034B                      l1243 0312  
                    l1235 02F6                      l1227 02D6                      l1219 02BF  
                    l1171 008F                      l1163 0072                      l1155 005D  
                    l1147 004C                      l1139 0033                      l1411 0560  
                    l1403 054B                      l1085 065E                      l1261 0378  
                    l1253 035A                      l1245 032B                      l1237 02FB  
                    l1229 02D7                      l1181 00E6                      l1173 0090  
                    l1165 007B                      l1157 0062                      l1149 0051  
                    l1421 058D                      l1413 0569                      l1405 0553  
                    l1501 0628                      l1087 066D                      l1079 0650  
                    l1263 037A                      l1255 0364                      l1239 0300  
                    l1247 0333                      l1191 0163                      l1183 0112  
                    l1175 00A0                      l1167 0080                      l1159 0067  
                    l1423 058F                      l1415 056B                      l1407 0555  
                    l1431 0398                      l1511 0634                      l1503 0629  
                    l1089 0673                      l1265 0386                      l1257 0366  
                    l1249 0340                      l1193 0180                      l1185 012E  
                    l1177 00AD                      l1169 0086                      l1425 05A1  
                    l1409 0559                      l1417 057E                      l1441 03C6  
                    l1433 039C                      l1513 0637                      l1505 062C  
                    l1267 038F                      l1259 0374                      l1195 0190  
                    l1187 014A                      l1179 00CA                      l1427 05A6  
                    l1419 0584                      l1451 03F3                      l1443 03CB  
                    l1435 03AC                      l1515 0638                      l1507 062D  
                    l1197 01AD                      l1189 0153                      l1461 0429  
                    l1453 0404                      l1445 03D9                      l1437 03BC  
                    l1429 0393                      l1517 063D                      l1509 0630  
                    l1199 01C6                      l1471 0453                      l1463 043F  
                    l1455 0410                      l1447 03E1                      l1439 03C5  
                    l1393 0516                      l1465 0444                      l1457 0414  
                    l1449 03E5                      l1481 0476                      l1473 0454  
                    l1395 052B                      l1467 0448                      l1459 041F  
                    l1491 04DC                      l1483 048C                      l1475 0457  
                    l1397 0534                      l1469 044A                      l1493 0506  
                    l1485 048E                      l1477 045E                      l1399 0535  
                    l1487 0490                      l1479 046C                      l1495 061D  
                    l1489 04BD                      l1497 0623                      l1499 0627  
                    u1000 0062                      u1001 0061                      u1010 0067  
                    u1011 0066                      u1020 0080                      u1101 019F  
                    u1021 007F                      u1102 01A6                      u1030 0085  
                    u1103 01AD                      u1031 0084                      u1121 01D5  
                    u1041 00D8                      u1210 02BF                      u1122 01DC  
                    u1042 00DF                      u1211 02BE                      u1131 0202  
                    u1123 01E3                      u1115 01AF                      u1051 00F4  
                    u1043 00E6                      u1300 0340                      u1132 0209  
                    u1052 00FB                      u1301 033F                      u1205 02B4  
                    u1141 022F                      u1133 0210                      u1061 0120  
                    u1053 0102                      u1310 035A                      u1230 02D5  
                    u1150 0259                      u1142 0236                      u1062 0127  
                    u1311 0359                      u1231 02D4                      u1143 023D  
                    u1071 013C                      u1063 012E                      u1320 0378  
                    u1240 02DB                      u1072 0143                      u1321 0377  
                    u1305 033C                      u1241 02DA                      u1225 02C3  
                    u1161 0265                      u1073 014A                      u1250 02EF  
                    u1170 0281                      u1162 026C                      u1315 0356  
                    u1251 02EE                      u1163 0273                      u1155 0254  
                    u1091 0172                      u1260 02F6                      u1092 0179  
                    u1261 02F5                      u1181 028D                      u1093 0180  
                    u1085 014C                      u1270 0300                      u1182 0294  
                    u1271 02FF                      u1183 029B                      u1175 027C  
                    u1280 0312                      u1281 0311                      u1290 0321  
                    u1610 052B                      u1195 029D                      u1611 052A  
                    u1700 05A6                      u1620 0543                      u1701 05A5  
                    u1630 0559                      u1710 0398                      u1295 031C  
                    u1631 0558                      u1711 0397                      u1640 0560  
                    u1800 041A                      u1720 039C                      u1641 055F  
                    u1625 053E                      u1801 0419                      u1721 039B  
                    u1810 041F                      u1730 03BC                      u1811 041E  
                    u1731 03BB                      u1660 057C                      u1820 0434  
                    u1661 057B                      u1670 0584                      u1830 0444  
                    u1750 03DF                      u1671 0583                      u1655 056C  
                    u1831 0443                      u1751 03DE                      u1840 0448  
                    u1841 0447                      u1825 042F                      u1745 03D0  
                    u1690 059F                      u1770 0402                      u1850 0466  
                    u1691 059E                      u1771 0401                      u1851 0465  
                    u1907 0643                      u1860 046C                      u1685 0591  
                    u1765 03F4                      u1861 046B                      u1917 045B  
                    u1790 0414                      u1870 0470                      u1791 0413  
                    u1927 050E                      u1871 046F                      u1880 0476  
                    u1785 0408                      u1881 0475                      _PEIE 005E  
                    u1895 047E              __CFG_WRT$OFF 0000                      _main 061D  
                    btemp 007E                      start 000C                     ??_ISR 0070  
           ___fltol@sign1 0077                     ?_main 0070             __CFG_WDTE$OFF 0000  
         __end_of___flmul 0390           __end_of___fltol 05B2                     _ANSEL 0188  
                   i1l100 0616                     i1l101 05CA                     i1l110 060A  
                   i1l111 060A                     i1l103 05C2                     i1l112 0611  
                   i1l104 05EF                     i1l105 05DD                     i1l113 0616  
                   i1l106 05DD                     i1l107 05E4                     i1l108 0612  
                   i1l109 0612                     _TMR1H 000F                     _TMR1L 000E  
                   _SSPIE 0463                     _SSPIF 0063            __CFG_FCMEN$OFF 0000  
          __CFG_BOREN$OFF 0000                     pclath 000A                     status 0003  
                   wtemp0 007E            __CFG_MCLRE$OFF 0000           __initialization 000F  
            __end_of_main 064D                    ??_main 0058       _mide_distancia$1018 0050  
     _mide_distancia$1019 0054                    i1l1341 05C2                    i1l1351 05D0  
                  i1l1343 05C6                    i1l1335 05B2                    i1l1361 05F3  
                  i1l1353 05D4                    i1l1345 05C7                    i1l1337 05B8  
                  i1l1363 05F7                    i1l1355 05DA                    i1l1347 05C8  
                  i1l1339 05BD                    i1l1365 05FD                    i1l1357 05DB  
                  i1l1349 05CA                    i1l1367 0604                    i1l1359 05E4  
                  u160_20 0610                    u152_20 05B8                    u160_21 060F  
                  u152_21 05B7                    u153_20 05BD                    u153_21 05BC  
                  u154_20 05C1                    u154_21 05C0                    u155_20 05D0  
                  u155_21 05CF                    u156_20 05D4                    u156_21 05D3  
                  u157_20 05E3                    u157_21 05E2                    u158_20 05F3  
                  u158_21 05F2                    u159_20 05F7                    u159_21 05F6  
                  u193_27 05EC                    u194_27 0607   __size_of_mide_distancia 00C2  
                  _TMR1IF 0060                    _TMR1ON 0080                    _SSPADD 0093  
                  _TRISC3 043B                    _TRISC4 043C                    _SSPCON 0014  
                  _SSPBUF 0013          __end_of___xxtofl 0454            __CFG_PWRTE$OFF 0000  
               ??___flmul 0032                 ??___fltol 0048        __size_of__Umul8_16 002C  
                  saved_w 007E              ___xxtofl@arg 0026              ___xxtofl@exp 0025  
            ___xxtofl@val 0073   __end_of__initialization 0017                ___fltol@f1 0044  
          __pcstackCOMMON 0070   __size_of_I2C_Slave_Init 001A     I2C_Slave_Init@address 0073  
              __pbssBANK0 005A         __end_of__Umul8_16 0679                __pmaintext 061D  
              __pintentry 0004                 ?___xxtofl 0073                   _SSPCON2 0091  
                 _SSPSTAT 0094            _mide_distancia 0454                   ___flmul 001B  
                 ___fltol 0516                   __ptext1 0454                   __ptext2 0390  
                 __ptext3 0516                   __ptext4 001B                   __ptext5 064D  
                 __ptext6 0679                   __ptext7 05B2              __size_of_ISR 006B  
               _T1CONbits 0010                ??___xxtofl 0020    __end_of_mide_distancia 0516  
    end_of_initialization 0017            _I2C_Slave_Init 0679                _tiempo_eco 005C  
               _PORTAbits 0005             ___xxtofl@sign 0024                 _TRISAbits 0085  
               _TRISCbits 0087           ?_mide_distancia 0070               ___flmul@grs 0038  
  __end_of_I2C_Slave_Init 0693       start_initialization 000F               __end_of_ISR 061D  
__CFG_FOSC$INTRC_NOCLKOUT 0000           ?_I2C_Slave_Init 0070                 __Umul8_16 064D  
               ___flmul@a 002E                 ___flmul@b 002A               __pbssCOMMON 0079  
               ___latbits 0002             __pcstackBANK0 0020         __size_of___xxtofl 00C4  
                ?___flmul 002A                  ?___fltol 0044                ?__Umul8_16 0073  
               _distancia 005A         interrupt_function 0004                  _PIR1bits 000C  
        ??_mide_distancia 004D               ??__Umul8_16 0075          __size_of___flmul 0375  
        __size_of___fltol 009C                  ___xxtofl 0390         __CFG_BOR4V$BOR40V 0000  
        ??_I2C_Slave_Init 0073             __size_of_main 0030                  _recibido 0079  
                intlevel1 0000    __Umul8_16@multiplicand 0073               _SSPCON2bits 0091  
    __Umul8_16@multiplier 0024                _SSPCONbits 0014         __Umul8_16@product 0020  
