

Microchip Technology PIC LITE Macro Assembler V2.00 build -1524193055 
                                                                                               Thu May 07 12:27:22 2020

Microchip Technology Omniscient Code Generator v2.00 (Free mode) build 20180527130849
     1  0000                     
      + 0000                     
     2                           ; Version 2.00
     3                           ; Generated 27/05/2018 GMT
     4                           
     5                           ; 
     6                           ; Copyright © 2018, Microchip Technology Inc. and its subsidiaries ("Microchip")
     7                           ; All rights reserved.
     8                           ; 
     9                           ; This software is developed by Microchip Technology Inc. and its subsidiaries ("Microch
                                 ip").
    10                           ; 
    11                           ; Redistribution and use in source and binary forms, with or without modification, are
    12                           ; permitted provided that the following conditions are met:
    13                           ; 
    14                           ;     1. Redistributions of source code must retain the above copyright notice, this lis
                                 t of
    15                           ;        conditions and the following disclaimer.
    16                           ; 
    17                           ;     2. Redistributions in binary form must reproduce the above copyright notice, this 
                                 list
    18                           ;        of conditions and the following disclaimer in the documentation and/or other
    19                           ;        materials provided with the distribution.
    20                           ; 
    21                           ;     3. Microchip's name may not be used to endorse or promote products derived from th
                                 is
    22                           ;        software without specific prior written permission.
    23                           ; 
    24                           ; THIS SOFTWARE IS PROVIDED BY MICROCHIP "AS IS" AND ANY EXPRESS OR IMPLIED WARRANTIES,

    25                           ; INCLUDING, BUT NOT LIMITED TO, THE IMPLIED WARRANTIES OF MERCHANTABILITY AND FITNESS F
                                 OR
    26                           ; PURPOSE ARE DISCLAIMED.  IN NO EVENT SHALL MICROCHIP BE LIABLE FOR ANY DIRECT, INDIREC
                                 T,
    27                           ; INCIDENTAL, SPECIAL, EXEMPLARY, OR CONSEQUENTIAL DAMAGES (INCLUDING BUT NOT LIMITED TO
                                 
    28                           ; PROCUREMENT OF SUBSTITUTE GOODS OR SERVICES; LOSS OF USE, DATA OR PROFITS; OR BUSINESS
                                 
    29                           ; INTERRUPTION) HOWSOEVER CAUSED AND ON ANY THEORY OF LIABILITY, WHETHER IN CONTRACT, ST
                                 RICT
    30                           ; LIABILITY, OR TORT (INCLUDING NEGLIGENCE OR OTHERWISE) ARISING IN ANY WAY OUT OF THE U
                                 SE OF
    31                           ; THIS SOFTWARE, EVEN IF ADVISED OF THE POSSIBILITY OF SUCH DAMAGE.
    32                           ; 
    33                           
    34                           
    35                           ; 
    36                           ; Code-generator required, PIC16F887 Definitions
    37                           ; 
    38  0004                     fsr0 equ 04h
    39  0004                     indf equ 00h
    40  0000                     indf0 equ 00h
    41  0000                     pc equ 02h
    42  0002                     pcl equ 02h
    43  0002                     pclath equ 0Ah
    44  000A                     status equ 03h
    45  0003                     
     2                           opt pagewidth 120
     3  0000                     byte0	macro	val
     4                           	(getbyte(val,0))
     5                           endm
     6  0000                     byte1	macro	val
     7                           	(getbyte(val,1))
     8                           endm
     9  0000                     byte2	macro	val
    10                           	(getbyte(val,2))
    11                           endm
    12  0000                     byte3	macro	val
    13                           	(getbyte(val,3))
    14                           endm
    15  0000                     byte4	macro	val
    16                           	(getbyte(val,4))
    17                           endm
    18  0000                     byte5	macro	val
    19                           	(getbyte(val,5))
    20                           endm
    21  0000                     byte6	macro	val
    22                           	(getbyte(val,6))
    23                           endm
    24  0000                     byte7	macro	val
    25                           	(getbyte(val,7))
    26                           endm
    27  0000                     getword	macro	val,pos
    28                           	(((val) >> (8 * pos)) and 0xffff)
    29                           endm
    30  0000                     word0	macro	val
    31                           	(getword(val,0))
    32                           endm
    33  0000                     word1	macro	val
    34                           	(getword(val,2))
    35                           endm
    36  0000                     word2	macro	val
    37                           	(getword(val,4))
    38                           endm
    39  0000                     word3	macro	val
    40                           	(getword(val,6))
    41                           endm
    42  0000                     gettword	macro	val,pos
    43                           	(((val) >> (8 * pos)) and 0xffffff)
    44                           endm
    45  0000                     tword0	macro	val
    46                           	(gettword(val,0))
    47                           endm
    48  0000                     tword1	macro	val
    49                           	(gettword(val,3))
    50                           endm
    51  0000                     tword2	macro	val
    52                           	(gettword(val,6))
    53                           endm
    54  0000                     getdword	macro	val,pos
    55                           	(((val) >> (8 * pos)) and 0xffffffff)
    56                           endm
    57  0000                     dword0	macro	val
    58                           	(getdword(val,0))
    59                           endm
    60  0000                     dword1	macro	val
    61                           	(getdword(val,4))
    62                           endm
    63  0000                     clrc	macro
    64                           	bcf	3,0
    65                           	endm
    66  0000                     clrz	macro
    67                           	bcf	3,2
    68                           	endm
    69  0000                     setc	macro
    70                           	bsf	3,0
    71                           	endm
    72  0000                     setz	macro
    73                           	bsf	3,2
    74                           	endm
    75  0000                     skipc	macro
    76                           	btfss	3,0
    77                           	endm
    78  0000                     skipz	macro
    79                           	btfss	3,2
    80                           	endm
    81  0000                     skipnc	macro
    82                           	btfsc	3,0
    83                           	endm
    84  0000                     skipnz	macro
    85                           	btfsc	3,2
    86                           	endm
    87  0000                     # 54 "C:\Program Files (x86)\Microchip\xc8\v2.00\pic\include\pic16f887.h"
    88                           INDF equ 00h ;# 
    89  0000                     # 61 "C:\Program Files (x86)\Microchip\xc8\v2.00\pic\include\pic16f887.h"
    90                           TMR0 equ 01h ;# 
    91  0001                     # 68 "C:\Program Files (x86)\Microchip\xc8\v2.00\pic\include\pic16f887.h"
    92                           PCL equ 02h ;# 
    93  0002                     # 75 "C:\Program Files (x86)\Microchip\xc8\v2.00\pic\include\pic16f887.h"
    94                           STATUS equ 03h ;# 
    95  0003                     # 161 "C:\Program Files (x86)\Microchip\xc8\v2.00\pic\include\pic16f887.h"
    96                           FSR equ 04h ;# 
    97  0004                     # 168 "C:\Program Files (x86)\Microchip\xc8\v2.00\pic\include\pic16f887.h"
    98                           PORTA equ 05h ;# 
    99  0005                     # 230 "C:\Program Files (x86)\Microchip\xc8\v2.00\pic\include\pic16f887.h"
   100                           PORTB equ 06h ;# 
   101  0006                     # 292 "C:\Program Files (x86)\Microchip\xc8\v2.00\pic\include\pic16f887.h"
   102                           PORTC equ 07h ;# 
   103  0007                     # 354 "C:\Program Files (x86)\Microchip\xc8\v2.00\pic\include\pic16f887.h"
   104                           PORTD equ 08h ;# 
   105  0008                     # 416 "C:\Program Files (x86)\Microchip\xc8\v2.00\pic\include\pic16f887.h"
   106                           PORTE equ 09h ;# 
   107  0009                     # 454 "C:\Program Files (x86)\Microchip\xc8\v2.00\pic\include\pic16f887.h"
   108                           PCLATH equ 0Ah ;# 
   109  000A                     # 461 "C:\Program Files (x86)\Microchip\xc8\v2.00\pic\include\pic16f887.h"
   110                           INTCON equ 0Bh ;# 
   111  000B                     # 539 "C:\Program Files (x86)\Microchip\xc8\v2.00\pic\include\pic16f887.h"
   112                           PIR1 equ 0Ch ;# 
   113  000C                     # 595 "C:\Program Files (x86)\Microchip\xc8\v2.00\pic\include\pic16f887.h"
   114                           PIR2 equ 0Dh ;# 
   115  000D                     # 652 "C:\Program Files (x86)\Microchip\xc8\v2.00\pic\include\pic16f887.h"
   116                           TMR1 equ 0Eh ;# 
   117  000E                     # 659 "C:\Program Files (x86)\Microchip\xc8\v2.00\pic\include\pic16f887.h"
   118                           TMR1L equ 0Eh ;# 
   119  000E                     # 666 "C:\Program Files (x86)\Microchip\xc8\v2.00\pic\include\pic16f887.h"
   120                           TMR1H equ 0Fh ;# 
   121  000F                     # 673 "C:\Program Files (x86)\Microchip\xc8\v2.00\pic\include\pic16f887.h"
   122                           T1CON equ 010h ;# 
   123  0010                     # 767 "C:\Program Files (x86)\Microchip\xc8\v2.00\pic\include\pic16f887.h"
   124                           TMR2 equ 011h ;# 
   125  0011                     # 774 "C:\Program Files (x86)\Microchip\xc8\v2.00\pic\include\pic16f887.h"
   126                           T2CON equ 012h ;# 
   127  0012                     # 845 "C:\Program Files (x86)\Microchip\xc8\v2.00\pic\include\pic16f887.h"
   128                           SSPBUF equ 013h ;# 
   129  0013                     # 852 "C:\Program Files (x86)\Microchip\xc8\v2.00\pic\include\pic16f887.h"
   130                           SSPCON equ 014h ;# 
   131  0014                     # 922 "C:\Program Files (x86)\Microchip\xc8\v2.00\pic\include\pic16f887.h"
   132                           CCPR1 equ 015h ;# 
   133  0015                     # 929 "C:\Program Files (x86)\Microchip\xc8\v2.00\pic\include\pic16f887.h"
   134                           CCPR1L equ 015h ;# 
   135  0015                     # 936 "C:\Program Files (x86)\Microchip\xc8\v2.00\pic\include\pic16f887.h"
   136                           CCPR1H equ 016h ;# 
   137  0016                     # 943 "C:\Program Files (x86)\Microchip\xc8\v2.00\pic\include\pic16f887.h"
   138                           CCP1CON equ 017h ;# 
   139  0017                     # 1040 "C:\Program Files (x86)\Microchip\xc8\v2.00\pic\include\pic16f887.h"
   140                           RCSTA equ 018h ;# 
   141  0018                     # 1135 "C:\Program Files (x86)\Microchip\xc8\v2.00\pic\include\pic16f887.h"
   142                           TXREG equ 019h ;# 
   143  0019                     # 1142 "C:\Program Files (x86)\Microchip\xc8\v2.00\pic\include\pic16f887.h"
   144                           RCREG equ 01Ah ;# 
   145  001A                     # 1149 "C:\Program Files (x86)\Microchip\xc8\v2.00\pic\include\pic16f887.h"
   146                           CCPR2 equ 01Bh ;# 
   147  001B                     # 1156 "C:\Program Files (x86)\Microchip\xc8\v2.00\pic\include\pic16f887.h"
   148                           CCPR2L equ 01Bh ;# 
   149  001B                     # 1163 "C:\Program Files (x86)\Microchip\xc8\v2.00\pic\include\pic16f887.h"
   150                           CCPR2H equ 01Ch ;# 
   151  001C                     # 1170 "C:\Program Files (x86)\Microchip\xc8\v2.00\pic\include\pic16f887.h"
   152                           CCP2CON equ 01Dh ;# 
   153  001D                     # 1240 "C:\Program Files (x86)\Microchip\xc8\v2.00\pic\include\pic16f887.h"
   154                           ADRESH equ 01Eh ;# 
   155  001E                     # 1247 "C:\Program Files (x86)\Microchip\xc8\v2.00\pic\include\pic16f887.h"
   156                           ADCON0 equ 01Fh ;# 
   157  001F                     # 1348 "C:\Program Files (x86)\Microchip\xc8\v2.00\pic\include\pic16f887.h"
   158                           OPTION_REG equ 081h ;# 
   159  0081                     # 1418 "C:\Program Files (x86)\Microchip\xc8\v2.00\pic\include\pic16f887.h"
   160                           TRISA equ 085h ;# 
   161  0085                     # 1480 "C:\Program Files (x86)\Microchip\xc8\v2.00\pic\include\pic16f887.h"
   162                           TRISB equ 086h ;# 
   163  0086                     # 1542 "C:\Program Files (x86)\Microchip\xc8\v2.00\pic\include\pic16f887.h"
   164                           TRISC equ 087h ;# 
   165  0087                     # 1604 "C:\Program Files (x86)\Microchip\xc8\v2.00\pic\include\pic16f887.h"
   166                           TRISD equ 088h ;# 
   167  0088                     # 1666 "C:\Program Files (x86)\Microchip\xc8\v2.00\pic\include\pic16f887.h"
   168                           TRISE equ 089h ;# 
   169  0089                     # 1704 "C:\Program Files (x86)\Microchip\xc8\v2.00\pic\include\pic16f887.h"
   170                           PIE1 equ 08Ch ;# 
   171  008C                     # 1760 "C:\Program Files (x86)\Microchip\xc8\v2.00\pic\include\pic16f887.h"
   172                           PIE2 equ 08Dh ;# 
   173  008D                     # 1817 "C:\Program Files (x86)\Microchip\xc8\v2.00\pic\include\pic16f887.h"
   174                           PCON equ 08Eh ;# 
   175  008E                     # 1864 "C:\Program Files (x86)\Microchip\xc8\v2.00\pic\include\pic16f887.h"
   176                           OSCCON equ 08Fh ;# 
   177  008F                     # 1929 "C:\Program Files (x86)\Microchip\xc8\v2.00\pic\include\pic16f887.h"
   178                           OSCTUNE equ 090h ;# 
   179  0090                     # 1981 "C:\Program Files (x86)\Microchip\xc8\v2.00\pic\include\pic16f887.h"
   180                           SSPCON2 equ 091h ;# 
   181  0091                     # 2043 "C:\Program Files (x86)\Microchip\xc8\v2.00\pic\include\pic16f887.h"
   182                           PR2 equ 092h ;# 
   183  0092                     # 2050 "C:\Program Files (x86)\Microchip\xc8\v2.00\pic\include\pic16f887.h"
   184                           SSPADD equ 093h ;# 
   185  0093                     # 2057 "C:\Program Files (x86)\Microchip\xc8\v2.00\pic\include\pic16f887.h"
   186                           SSPMSK equ 093h ;# 
   187  0093                     # 2062 "C:\Program Files (x86)\Microchip\xc8\v2.00\pic\include\pic16f887.h"
   188                           MSK equ 093h ;# 
   189  0093                     # 2179 "C:\Program Files (x86)\Microchip\xc8\v2.00\pic\include\pic16f887.h"
   190                           SSPSTAT equ 094h ;# 
   191  0094                     # 2348 "C:\Program Files (x86)\Microchip\xc8\v2.00\pic\include\pic16f887.h"
   192                           WPUB equ 095h ;# 
   193  0095                     # 2418 "C:\Program Files (x86)\Microchip\xc8\v2.00\pic\include\pic16f887.h"
   194                           IOCB equ 096h ;# 
   195  0096                     # 2488 "C:\Program Files (x86)\Microchip\xc8\v2.00\pic\include\pic16f887.h"
   196                           VRCON equ 097h ;# 
   197  0097                     # 2558 "C:\Program Files (x86)\Microchip\xc8\v2.00\pic\include\pic16f887.h"
   198                           TXSTA equ 098h ;# 
   199  0098                     # 2644 "C:\Program Files (x86)\Microchip\xc8\v2.00\pic\include\pic16f887.h"
   200                           SPBRG equ 099h ;# 
   201  0099                     # 2706 "C:\Program Files (x86)\Microchip\xc8\v2.00\pic\include\pic16f887.h"
   202                           SPBRGH equ 09Ah ;# 
   203  009A                     # 2776 "C:\Program Files (x86)\Microchip\xc8\v2.00\pic\include\pic16f887.h"
   204                           PWM1CON equ 09Bh ;# 
   205  009B                     # 2846 "C:\Program Files (x86)\Microchip\xc8\v2.00\pic\include\pic16f887.h"
   206                           ECCPAS equ 09Ch ;# 
   207  009C                     # 2928 "C:\Program Files (x86)\Microchip\xc8\v2.00\pic\include\pic16f887.h"
   208                           PSTRCON equ 09Dh ;# 
   209  009D                     # 2972 "C:\Program Files (x86)\Microchip\xc8\v2.00\pic\include\pic16f887.h"
   210                           ADRESL equ 09Eh ;# 
   211  009E                     # 2979 "C:\Program Files (x86)\Microchip\xc8\v2.00\pic\include\pic16f887.h"
   212                           ADCON1 equ 09Fh ;# 
   213  009F                     # 3013 "C:\Program Files (x86)\Microchip\xc8\v2.00\pic\include\pic16f887.h"
   214                           WDTCON equ 0105h ;# 
   215  0105                     # 3066 "C:\Program Files (x86)\Microchip\xc8\v2.00\pic\include\pic16f887.h"
   216                           CM1CON0 equ 0107h ;# 
   217  0107                     # 3131 "C:\Program Files (x86)\Microchip\xc8\v2.00\pic\include\pic16f887.h"
   218                           CM2CON0 equ 0108h ;# 
   219  0108                     # 3196 "C:\Program Files (x86)\Microchip\xc8\v2.00\pic\include\pic16f887.h"
   220                           CM2CON1 equ 0109h ;# 
   221  0109                     # 3247 "C:\Program Files (x86)\Microchip\xc8\v2.00\pic\include\pic16f887.h"
   222                           EEDATA equ 010Ch ;# 
   223  010C                     # 3252 "C:\Program Files (x86)\Microchip\xc8\v2.00\pic\include\pic16f887.h"
   224                           EEDAT equ 010Ch ;# 
   225  010C                     # 3259 "C:\Program Files (x86)\Microchip\xc8\v2.00\pic\include\pic16f887.h"
   226                           EEADR equ 010Dh ;# 
   227  010D                     # 3266 "C:\Program Files (x86)\Microchip\xc8\v2.00\pic\include\pic16f887.h"
   228                           EEDATH equ 010Eh ;# 
   229  010E                     # 3273 "C:\Program Files (x86)\Microchip\xc8\v2.00\pic\include\pic16f887.h"
   230                           EEADRH equ 010Fh ;# 
   231  010F                     # 3280 "C:\Program Files (x86)\Microchip\xc8\v2.00\pic\include\pic16f887.h"
   232                           SRCON equ 0185h ;# 
   233  0185                     # 3337 "C:\Program Files (x86)\Microchip\xc8\v2.00\pic\include\pic16f887.h"
   234                           BAUDCTL equ 0187h ;# 
   235  0187                     # 3389 "C:\Program Files (x86)\Microchip\xc8\v2.00\pic\include\pic16f887.h"
   236                           ANSEL equ 0188h ;# 
   237  0188                     # 3451 "C:\Program Files (x86)\Microchip\xc8\v2.00\pic\include\pic16f887.h"
   238                           ANSELH equ 0189h ;# 
   239  0189                     # 3501 "C:\Program Files (x86)\Microchip\xc8\v2.00\pic\include\pic16f887.h"
   240                           EECON1 equ 018Ch ;# 
   241  018C                     # 3546 "C:\Program Files (x86)\Microchip\xc8\v2.00\pic\include\pic16f887.h"
   242                           EECON2 equ 018Dh ;# 
   243  018D                     # 54 "C:\Program Files (x86)\Microchip\xc8\v2.00\pic\include\pic16f887.h"
   244                           INDF equ 00h ;# 
   245  0000                     # 61 "C:\Program Files (x86)\Microchip\xc8\v2.00\pic\include\pic16f887.h"
   246                           TMR0 equ 01h ;# 
   247  0001                     # 68 "C:\Program Files (x86)\Microchip\xc8\v2.00\pic\include\pic16f887.h"
   248                           PCL equ 02h ;# 
   249  0002                     # 75 "C:\Program Files (x86)\Microchip\xc8\v2.00\pic\include\pic16f887.h"
   250                           STATUS equ 03h ;# 
   251  0003                     # 161 "C:\Program Files (x86)\Microchip\xc8\v2.00\pic\include\pic16f887.h"
   252                           FSR equ 04h ;# 
   253  0004                     # 168 "C:\Program Files (x86)\Microchip\xc8\v2.00\pic\include\pic16f887.h"
   254                           PORTA equ 05h ;# 
   255  0005                     # 230 "C:\Program Files (x86)\Microchip\xc8\v2.00\pic\include\pic16f887.h"
   256                           PORTB equ 06h ;# 
   257  0006                     # 292 "C:\Program Files (x86)\Microchip\xc8\v2.00\pic\include\pic16f887.h"
   258                           PORTC equ 07h ;# 
   259  0007                     # 354 "C:\Program Files (x86)\Microchip\xc8\v2.00\pic\include\pic16f887.h"
   260                           PORTD equ 08h ;# 
   261  0008                     # 416 "C:\Program Files (x86)\Microchip\xc8\v2.00\pic\include\pic16f887.h"
   262                           PORTE equ 09h ;# 
   263  0009                     # 454 "C:\Program Files (x86)\Microchip\xc8\v2.00\pic\include\pic16f887.h"
   264                           PCLATH equ 0Ah ;# 
   265  000A                     # 461 "C:\Program Files (x86)\Microchip\xc8\v2.00\pic\include\pic16f887.h"
   266                           INTCON equ 0Bh ;# 
   267  000B                     # 539 "C:\Program Files (x86)\Microchip\xc8\v2.00\pic\include\pic16f887.h"
   268                           PIR1 equ 0Ch ;# 
   269  000C                     # 595 "C:\Program Files (x86)\Microchip\xc8\v2.00\pic\include\pic16f887.h"
   270                           PIR2 equ 0Dh ;# 
   271  000D                     # 652 "C:\Program Files (x86)\Microchip\xc8\v2.00\pic\include\pic16f887.h"
   272                           TMR1 equ 0Eh ;# 
   273  000E                     # 659 "C:\Program Files (x86)\Microchip\xc8\v2.00\pic\include\pic16f887.h"
   274                           TMR1L equ 0Eh ;# 
   275  000E                     # 666 "C:\Program Files (x86)\Microchip\xc8\v2.00\pic\include\pic16f887.h"
   276                           TMR1H equ 0Fh ;# 
   277  000F                     # 673 "C:\Program Files (x86)\Microchip\xc8\v2.00\pic\include\pic16f887.h"
   278                           T1CON equ 010h ;# 
   279  0010                     # 767 "C:\Program Files (x86)\Microchip\xc8\v2.00\pic\include\pic16f887.h"
   280                           TMR2 equ 011h ;# 
   281  0011                     # 774 "C:\Program Files (x86)\Microchip\xc8\v2.00\pic\include\pic16f887.h"
   282                           T2CON equ 012h ;# 
   283  0012                     # 845 "C:\Program Files (x86)\Microchip\xc8\v2.00\pic\include\pic16f887.h"
   284                           SSPBUF equ 013h ;# 
   285  0013                     # 852 "C:\Program Files (x86)\Microchip\xc8\v2.00\pic\include\pic16f887.h"
   286                           SSPCON equ 014h ;# 
   287  0014                     # 922 "C:\Program Files (x86)\Microchip\xc8\v2.00\pic\include\pic16f887.h"
   288                           CCPR1 equ 015h ;# 
   289  0015                     # 929 "C:\Program Files (x86)\Microchip\xc8\v2.00\pic\include\pic16f887.h"
   290                           CCPR1L equ 015h ;# 
   291  0015                     # 936 "C:\Program Files (x86)\Microchip\xc8\v2.00\pic\include\pic16f887.h"
   292                           CCPR1H equ 016h ;# 
   293  0016                     # 943 "C:\Program Files (x86)\Microchip\xc8\v2.00\pic\include\pic16f887.h"
   294                           CCP1CON equ 017h ;# 
   295  0017                     # 1040 "C:\Program Files (x86)\Microchip\xc8\v2.00\pic\include\pic16f887.h"
   296                           RCSTA equ 018h ;# 
   297  0018                     # 1135 "C:\Program Files (x86)\Microchip\xc8\v2.00\pic\include\pic16f887.h"
   298                           TXREG equ 019h ;# 
   299  0019                     # 1142 "C:\Program Files (x86)\Microchip\xc8\v2.00\pic\include\pic16f887.h"
   300                           RCREG equ 01Ah ;# 
   301  001A                     # 1149 "C:\Program Files (x86)\Microchip\xc8\v2.00\pic\include\pic16f887.h"
   302                           CCPR2 equ 01Bh ;# 
   303  001B                     # 1156 "C:\Program Files (x86)\Microchip\xc8\v2.00\pic\include\pic16f887.h"
   304                           CCPR2L equ 01Bh ;# 
   305  001B                     # 1163 "C:\Program Files (x86)\Microchip\xc8\v2.00\pic\include\pic16f887.h"
   306                           CCPR2H equ 01Ch ;# 
   307  001C                     # 1170 "C:\Program Files (x86)\Microchip\xc8\v2.00\pic\include\pic16f887.h"
   308                           CCP2CON equ 01Dh ;# 
   309  001D                     # 1240 "C:\Program Files (x86)\Microchip\xc8\v2.00\pic\include\pic16f887.h"
   310                           ADRESH equ 01Eh ;# 
   311  001E                     # 1247 "C:\Program Files (x86)\Microchip\xc8\v2.00\pic\include\pic16f887.h"
   312                           ADCON0 equ 01Fh ;# 
   313  001F                     # 1348 "C:\Program Files (x86)\Microchip\xc8\v2.00\pic\include\pic16f887.h"
   314                           OPTION_REG equ 081h ;# 
   315  0081                     # 1418 "C:\Program Files (x86)\Microchip\xc8\v2.00\pic\include\pic16f887.h"
   316                           TRISA equ 085h ;# 
   317  0085                     # 1480 "C:\Program Files (x86)\Microchip\xc8\v2.00\pic\include\pic16f887.h"
   318                           TRISB equ 086h ;# 
   319  0086                     # 1542 "C:\Program Files (x86)\Microchip\xc8\v2.00\pic\include\pic16f887.h"
   320                           TRISC equ 087h ;# 
   321  0087                     # 1604 "C:\Program Files (x86)\Microchip\xc8\v2.00\pic\include\pic16f887.h"
   322                           TRISD equ 088h ;# 
   323  0088                     # 1666 "C:\Program Files (x86)\Microchip\xc8\v2.00\pic\include\pic16f887.h"
   324                           TRISE equ 089h ;# 
   325  0089                     # 1704 "C:\Program Files (x86)\Microchip\xc8\v2.00\pic\include\pic16f887.h"
   326                           PIE1 equ 08Ch ;# 
   327  008C                     # 1760 "C:\Program Files (x86)\Microchip\xc8\v2.00\pic\include\pic16f887.h"
   328                           PIE2 equ 08Dh ;# 
   329  008D                     # 1817 "C:\Program Files (x86)\Microchip\xc8\v2.00\pic\include\pic16f887.h"
   330                           PCON equ 08Eh ;# 
   331  008E                     # 1864 "C:\Program Files (x86)\Microchip\xc8\v2.00\pic\include\pic16f887.h"
   332                           OSCCON equ 08Fh ;# 
   333  008F                     # 1929 "C:\Program Files (x86)\Microchip\xc8\v2.00\pic\include\pic16f887.h"
   334                           OSCTUNE equ 090h ;# 
   335  0090                     # 1981 "C:\Program Files (x86)\Microchip\xc8\v2.00\pic\include\pic16f887.h"
   336                           SSPCON2 equ 091h ;# 
   337  0091                     # 2043 "C:\Program Files (x86)\Microchip\xc8\v2.00\pic\include\pic16f887.h"
   338                           PR2 equ 092h ;# 
   339  0092                     # 2050 "C:\Program Files (x86)\Microchip\xc8\v2.00\pic\include\pic16f887.h"
   340                           SSPADD equ 093h ;# 
   341  0093                     # 2057 "C:\Program Files (x86)\Microchip\xc8\v2.00\pic\include\pic16f887.h"
   342                           SSPMSK equ 093h ;# 
   343  0093                     # 2062 "C:\Program Files (x86)\Microchip\xc8\v2.00\pic\include\pic16f887.h"
   344                           MSK equ 093h ;# 
   345  0093                     # 2179 "C:\Program Files (x86)\Microchip\xc8\v2.00\pic\include\pic16f887.h"
   346                           SSPSTAT equ 094h ;# 
   347  0094                     # 2348 "C:\Program Files (x86)\Microchip\xc8\v2.00\pic\include\pic16f887.h"
   348                           WPUB equ 095h ;# 
   349  0095                     # 2418 "C:\Program Files (x86)\Microchip\xc8\v2.00\pic\include\pic16f887.h"
   350                           IOCB equ 096h ;# 
   351  0096                     # 2488 "C:\Program Files (x86)\Microchip\xc8\v2.00\pic\include\pic16f887.h"
   352                           VRCON equ 097h ;# 
   353  0097                     # 2558 "C:\Program Files (x86)\Microchip\xc8\v2.00\pic\include\pic16f887.h"
   354                           TXSTA equ 098h ;# 
   355  0098                     # 2644 "C:\Program Files (x86)\Microchip\xc8\v2.00\pic\include\pic16f887.h"
   356                           SPBRG equ 099h ;# 
   357  0099                     # 2706 "C:\Program Files (x86)\Microchip\xc8\v2.00\pic\include\pic16f887.h"
   358                           SPBRGH equ 09Ah ;# 
   359  009A                     # 2776 "C:\Program Files (x86)\Microchip\xc8\v2.00\pic\include\pic16f887.h"
   360                           PWM1CON equ 09Bh ;# 
   361  009B                     # 2846 "C:\Program Files (x86)\Microchip\xc8\v2.00\pic\include\pic16f887.h"
   362                           ECCPAS equ 09Ch ;# 
   363  009C                     # 2928 "C:\Program Files (x86)\Microchip\xc8\v2.00\pic\include\pic16f887.h"
   364                           PSTRCON equ 09Dh ;# 
   365  009D                     # 2972 "C:\Program Files (x86)\Microchip\xc8\v2.00\pic\include\pic16f887.h"
   366                           ADRESL equ 09Eh ;# 
   367  009E                     # 2979 "C:\Program Files (x86)\Microchip\xc8\v2.00\pic\include\pic16f887.h"
   368                           ADCON1 equ 09Fh ;# 
   369  009F                     # 3013 "C:\Program Files (x86)\Microchip\xc8\v2.00\pic\include\pic16f887.h"
   370                           WDTCON equ 0105h ;# 
   371  0105                     # 3066 "C:\Program Files (x86)\Microchip\xc8\v2.00\pic\include\pic16f887.h"
   372                           CM1CON0 equ 0107h ;# 
   373  0107                     # 3131 "C:\Program Files (x86)\Microchip\xc8\v2.00\pic\include\pic16f887.h"
   374                           CM2CON0 equ 0108h ;# 
   375  0108                     # 3196 "C:\Program Files (x86)\Microchip\xc8\v2.00\pic\include\pic16f887.h"
   376                           CM2CON1 equ 0109h ;# 
   377  0109                     # 3247 "C:\Program Files (x86)\Microchip\xc8\v2.00\pic\include\pic16f887.h"
   378                           EEDATA equ 010Ch ;# 
   379  010C                     # 3252 "C:\Program Files (x86)\Microchip\xc8\v2.00\pic\include\pic16f887.h"
   380                           EEDAT equ 010Ch ;# 
   381  010C                     # 3259 "C:\Program Files (x86)\Microchip\xc8\v2.00\pic\include\pic16f887.h"
   382                           EEADR equ 010Dh ;# 
   383  010D                     # 3266 "C:\Program Files (x86)\Microchip\xc8\v2.00\pic\include\pic16f887.h"
   384                           EEDATH equ 010Eh ;# 
   385  010E                     # 3273 "C:\Program Files (x86)\Microchip\xc8\v2.00\pic\include\pic16f887.h"
   386                           EEADRH equ 010Fh ;# 
   387  010F                     # 3280 "C:\Program Files (x86)\Microchip\xc8\v2.00\pic\include\pic16f887.h"
   388                           SRCON equ 0185h ;# 
   389  0185                     # 3337 "C:\Program Files (x86)\Microchip\xc8\v2.00\pic\include\pic16f887.h"
   390                           BAUDCTL equ 0187h ;# 
   391  0187                     # 3389 "C:\Program Files (x86)\Microchip\xc8\v2.00\pic\include\pic16f887.h"
   392                           ANSEL equ 0188h ;# 
   393  0188                     # 3451 "C:\Program Files (x86)\Microchip\xc8\v2.00\pic\include\pic16f887.h"
   394                           ANSELH equ 0189h ;# 
   395  0189                     # 3501 "C:\Program Files (x86)\Microchip\xc8\v2.00\pic\include\pic16f887.h"
   396                           EECON1 equ 018Ch ;# 
   397  018C                     # 3546 "C:\Program Files (x86)\Microchip\xc8\v2.00\pic\include\pic16f887.h"
   398                           EECON2 equ 018Dh ;# 
   399  018D                     # 54 "C:\Program Files (x86)\Microchip\xc8\v2.00\pic\include\pic16f887.h"
   400                           INDF equ 00h ;# 
   401  0000                     # 61 "C:\Program Files (x86)\Microchip\xc8\v2.00\pic\include\pic16f887.h"
   402                           TMR0 equ 01h ;# 
   403  0001                     # 68 "C:\Program Files (x86)\Microchip\xc8\v2.00\pic\include\pic16f887.h"
   404                           PCL equ 02h ;# 
   405  0002                     # 75 "C:\Program Files (x86)\Microchip\xc8\v2.00\pic\include\pic16f887.h"
   406                           STATUS equ 03h ;# 
   407  0003                     # 161 "C:\Program Files (x86)\Microchip\xc8\v2.00\pic\include\pic16f887.h"
   408                           FSR equ 04h ;# 
   409  0004                     # 168 "C:\Program Files (x86)\Microchip\xc8\v2.00\pic\include\pic16f887.h"
   410                           PORTA equ 05h ;# 
   411  0005                     # 230 "C:\Program Files (x86)\Microchip\xc8\v2.00\pic\include\pic16f887.h"
   412                           PORTB equ 06h ;# 
   413  0006                     # 292 "C:\Program Files (x86)\Microchip\xc8\v2.00\pic\include\pic16f887.h"
   414                           PORTC equ 07h ;# 
   415  0007                     # 354 "C:\Program Files (x86)\Microchip\xc8\v2.00\pic\include\pic16f887.h"
   416                           PORTD equ 08h ;# 
   417  0008                     # 416 "C:\Program Files (x86)\Microchip\xc8\v2.00\pic\include\pic16f887.h"
   418                           PORTE equ 09h ;# 
   419  0009                     # 454 "C:\Program Files (x86)\Microchip\xc8\v2.00\pic\include\pic16f887.h"
   420                           PCLATH equ 0Ah ;# 
   421  000A                     # 461 "C:\Program Files (x86)\Microchip\xc8\v2.00\pic\include\pic16f887.h"
   422                           INTCON equ 0Bh ;# 
   423  000B                     # 539 "C:\Program Files (x86)\Microchip\xc8\v2.00\pic\include\pic16f887.h"
   424                           PIR1 equ 0Ch ;# 
   425  000C                     # 595 "C:\Program Files (x86)\Microchip\xc8\v2.00\pic\include\pic16f887.h"
   426                           PIR2 equ 0Dh ;# 
   427  000D                     # 652 "C:\Program Files (x86)\Microchip\xc8\v2.00\pic\include\pic16f887.h"
   428                           TMR1 equ 0Eh ;# 
   429  000E                     # 659 "C:\Program Files (x86)\Microchip\xc8\v2.00\pic\include\pic16f887.h"
   430                           TMR1L equ 0Eh ;# 
   431  000E                     # 666 "C:\Program Files (x86)\Microchip\xc8\v2.00\pic\include\pic16f887.h"
   432                           TMR1H equ 0Fh ;# 
   433  000F                     # 673 "C:\Program Files (x86)\Microchip\xc8\v2.00\pic\include\pic16f887.h"
   434                           T1CON equ 010h ;# 
   435  0010                     # 767 "C:\Program Files (x86)\Microchip\xc8\v2.00\pic\include\pic16f887.h"
   436                           TMR2 equ 011h ;# 
   437  0011                     # 774 "C:\Program Files (x86)\Microchip\xc8\v2.00\pic\include\pic16f887.h"
   438                           T2CON equ 012h ;# 
   439  0012                     # 845 "C:\Program Files (x86)\Microchip\xc8\v2.00\pic\include\pic16f887.h"
   440                           SSPBUF equ 013h ;# 
   441  0013                     # 852 "C:\Program Files (x86)\Microchip\xc8\v2.00\pic\include\pic16f887.h"
   442                           SSPCON equ 014h ;# 
   443  0014                     # 922 "C:\Program Files (x86)\Microchip\xc8\v2.00\pic\include\pic16f887.h"
   444                           CCPR1 equ 015h ;# 
   445  0015                     # 929 "C:\Program Files (x86)\Microchip\xc8\v2.00\pic\include\pic16f887.h"
   446                           CCPR1L equ 015h ;# 
   447  0015                     # 936 "C:\Program Files (x86)\Microchip\xc8\v2.00\pic\include\pic16f887.h"
   448                           CCPR1H equ 016h ;# 
   449  0016                     # 943 "C:\Program Files (x86)\Microchip\xc8\v2.00\pic\include\pic16f887.h"
   450                           CCP1CON equ 017h ;# 
   451  0017                     # 1040 "C:\Program Files (x86)\Microchip\xc8\v2.00\pic\include\pic16f887.h"
   452                           RCSTA equ 018h ;# 
   453  0018                     # 1135 "C:\Program Files (x86)\Microchip\xc8\v2.00\pic\include\pic16f887.h"
   454                           TXREG equ 019h ;# 
   455  0019                     # 1142 "C:\Program Files (x86)\Microchip\xc8\v2.00\pic\include\pic16f887.h"
   456                           RCREG equ 01Ah ;# 
   457  001A                     # 1149 "C:\Program Files (x86)\Microchip\xc8\v2.00\pic\include\pic16f887.h"
   458                           CCPR2 equ 01Bh ;# 
   459  001B                     # 1156 "C:\Program Files (x86)\Microchip\xc8\v2.00\pic\include\pic16f887.h"
   460                           CCPR2L equ 01Bh ;# 
   461  001B                     # 1163 "C:\Program Files (x86)\Microchip\xc8\v2.00\pic\include\pic16f887.h"
   462                           CCPR2H equ 01Ch ;# 
   463  001C                     # 1170 "C:\Program Files (x86)\Microchip\xc8\v2.00\pic\include\pic16f887.h"
   464                           CCP2CON equ 01Dh ;# 
   465  001D                     # 1240 "C:\Program Files (x86)\Microchip\xc8\v2.00\pic\include\pic16f887.h"
   466                           ADRESH equ 01Eh ;# 
   467  001E                     # 1247 "C:\Program Files (x86)\Microchip\xc8\v2.00\pic\include\pic16f887.h"
   468                           ADCON0 equ 01Fh ;# 
   469  001F                     # 1348 "C:\Program Files (x86)\Microchip\xc8\v2.00\pic\include\pic16f887.h"
   470                           OPTION_REG equ 081h ;# 
   471  0081                     # 1418 "C:\Program Files (x86)\Microchip\xc8\v2.00\pic\include\pic16f887.h"
   472                           TRISA equ 085h ;# 
   473  0085                     # 1480 "C:\Program Files (x86)\Microchip\xc8\v2.00\pic\include\pic16f887.h"
   474                           TRISB equ 086h ;# 
   475  0086                     # 1542 "C:\Program Files (x86)\Microchip\xc8\v2.00\pic\include\pic16f887.h"
   476                           TRISC equ 087h ;# 
   477  0087                     # 1604 "C:\Program Files (x86)\Microchip\xc8\v2.00\pic\include\pic16f887.h"
   478                           TRISD equ 088h ;# 
   479  0088                     # 1666 "C:\Program Files (x86)\Microchip\xc8\v2.00\pic\include\pic16f887.h"
   480                           TRISE equ 089h ;# 
   481  0089                     # 1704 "C:\Program Files (x86)\Microchip\xc8\v2.00\pic\include\pic16f887.h"
   482                           PIE1 equ 08Ch ;# 
   483  008C                     # 1760 "C:\Program Files (x86)\Microchip\xc8\v2.00\pic\include\pic16f887.h"
   484                           PIE2 equ 08Dh ;# 
   485  008D                     # 1817 "C:\Program Files (x86)\Microchip\xc8\v2.00\pic\include\pic16f887.h"
   486                           PCON equ 08Eh ;# 
   487  008E                     # 1864 "C:\Program Files (x86)\Microchip\xc8\v2.00\pic\include\pic16f887.h"
   488                           OSCCON equ 08Fh ;# 
   489  008F                     # 1929 "C:\Program Files (x86)\Microchip\xc8\v2.00\pic\include\pic16f887.h"
   490                           OSCTUNE equ 090h ;# 
   491  0090                     # 1981 "C:\Program Files (x86)\Microchip\xc8\v2.00\pic\include\pic16f887.h"
   492                           SSPCON2 equ 091h ;# 
   493  0091                     # 2043 "C:\Program Files (x86)\Microchip\xc8\v2.00\pic\include\pic16f887.h"
   494                           PR2 equ 092h ;# 
   495  0092                     # 2050 "C:\Program Files (x86)\Microchip\xc8\v2.00\pic\include\pic16f887.h"
   496                           SSPADD equ 093h ;# 
   497  0093                     # 2057 "C:\Program Files (x86)\Microchip\xc8\v2.00\pic\include\pic16f887.h"
   498                           SSPMSK equ 093h ;# 
   499  0093                     # 2062 "C:\Program Files (x86)\Microchip\xc8\v2.00\pic\include\pic16f887.h"
   500                           MSK equ 093h ;# 
   501  0093                     # 2179 "C:\Program Files (x86)\Microchip\xc8\v2.00\pic\include\pic16f887.h"
   502                           SSPSTAT equ 094h ;# 
   503  0094                     # 2348 "C:\Program Files (x86)\Microchip\xc8\v2.00\pic\include\pic16f887.h"
   504                           WPUB equ 095h ;# 
   505  0095                     # 2418 "C:\Program Files (x86)\Microchip\xc8\v2.00\pic\include\pic16f887.h"
   506                           IOCB equ 096h ;# 
   507  0096                     # 2488 "C:\Program Files (x86)\Microchip\xc8\v2.00\pic\include\pic16f887.h"
   508                           VRCON equ 097h ;# 
   509  0097                     # 2558 "C:\Program Files (x86)\Microchip\xc8\v2.00\pic\include\pic16f887.h"
   510                           TXSTA equ 098h ;# 
   511  0098                     # 2644 "C:\Program Files (x86)\Microchip\xc8\v2.00\pic\include\pic16f887.h"
   512                           SPBRG equ 099h ;# 
   513  0099                     # 2706 "C:\Program Files (x86)\Microchip\xc8\v2.00\pic\include\pic16f887.h"
   514                           SPBRGH equ 09Ah ;# 
   515  009A                     # 2776 "C:\Program Files (x86)\Microchip\xc8\v2.00\pic\include\pic16f887.h"
   516                           PWM1CON equ 09Bh ;# 
   517  009B                     # 2846 "C:\Program Files (x86)\Microchip\xc8\v2.00\pic\include\pic16f887.h"
   518                           ECCPAS equ 09Ch ;# 
   519  009C                     # 2928 "C:\Program Files (x86)\Microchip\xc8\v2.00\pic\include\pic16f887.h"
   520                           PSTRCON equ 09Dh ;# 
   521  009D                     # 2972 "C:\Program Files (x86)\Microchip\xc8\v2.00\pic\include\pic16f887.h"
   522                           ADRESL equ 09Eh ;# 
   523  009E                     # 2979 "C:\Program Files (x86)\Microchip\xc8\v2.00\pic\include\pic16f887.h"
   524                           ADCON1 equ 09Fh ;# 
   525  009F                     # 3013 "C:\Program Files (x86)\Microchip\xc8\v2.00\pic\include\pic16f887.h"
   526                           WDTCON equ 0105h ;# 
   527  0105                     # 3066 "C:\Program Files (x86)\Microchip\xc8\v2.00\pic\include\pic16f887.h"
   528                           CM1CON0 equ 0107h ;# 
   529  0107                     # 3131 "C:\Program Files (x86)\Microchip\xc8\v2.00\pic\include\pic16f887.h"
   530                           CM2CON0 equ 0108h ;# 
   531  0108                     # 3196 "C:\Program Files (x86)\Microchip\xc8\v2.00\pic\include\pic16f887.h"
   532                           CM2CON1 equ 0109h ;# 
   533  0109                     # 3247 "C:\Program Files (x86)\Microchip\xc8\v2.00\pic\include\pic16f887.h"
   534                           EEDATA equ 010Ch ;# 
   535  010C                     # 3252 "C:\Program Files (x86)\Microchip\xc8\v2.00\pic\include\pic16f887.h"
   536                           EEDAT equ 010Ch ;# 
   537  010C                     # 3259 "C:\Program Files (x86)\Microchip\xc8\v2.00\pic\include\pic16f887.h"
   538                           EEADR equ 010Dh ;# 
   539  010D                     # 3266 "C:\Program Files (x86)\Microchip\xc8\v2.00\pic\include\pic16f887.h"
   540                           EEDATH equ 010Eh ;# 
   541  010E                     # 3273 "C:\Program Files (x86)\Microchip\xc8\v2.00\pic\include\pic16f887.h"
   542                           EEADRH equ 010Fh ;# 
   543  010F                     # 3280 "C:\Program Files (x86)\Microchip\xc8\v2.00\pic\include\pic16f887.h"
   544                           SRCON equ 0185h ;# 
   545  0185                     # 3337 "C:\Program Files (x86)\Microchip\xc8\v2.00\pic\include\pic16f887.h"
   546                           BAUDCTL equ 0187h ;# 
   547  0187                     # 3389 "C:\Program Files (x86)\Microchip\xc8\v2.00\pic\include\pic16f887.h"
   548                           ANSEL equ 0188h ;# 
   549  0188                     # 3451 "C:\Program Files (x86)\Microchip\xc8\v2.00\pic\include\pic16f887.h"
   550                           ANSELH equ 0189h ;# 
   551  0189                     # 3501 "C:\Program Files (x86)\Microchip\xc8\v2.00\pic\include\pic16f887.h"
   552                           EECON1 equ 018Ch ;# 
   553  018C                     # 3546 "C:\Program Files (x86)\Microchip\xc8\v2.00\pic\include\pic16f887.h"
   554                           EECON2 equ 018Dh ;# 
   555  018D                     # 54 "C:\Program Files (x86)\Microchip\xc8\v2.00\pic\include\pic16f887.h"
   556                           INDF equ 00h ;# 
   557  0000                     # 61 "C:\Program Files (x86)\Microchip\xc8\v2.00\pic\include\pic16f887.h"
   558                           TMR0 equ 01h ;# 
   559  0001                     # 68 "C:\Program Files (x86)\Microchip\xc8\v2.00\pic\include\pic16f887.h"
   560                           PCL equ 02h ;# 
   561  0002                     # 75 "C:\Program Files (x86)\Microchip\xc8\v2.00\pic\include\pic16f887.h"
   562                           STATUS equ 03h ;# 
   563  0003                     # 161 "C:\Program Files (x86)\Microchip\xc8\v2.00\pic\include\pic16f887.h"
   564                           FSR equ 04h ;# 
   565  0004                     # 168 "C:\Program Files (x86)\Microchip\xc8\v2.00\pic\include\pic16f887.h"
   566                           PORTA equ 05h ;# 
   567  0005                     # 230 "C:\Program Files (x86)\Microchip\xc8\v2.00\pic\include\pic16f887.h"
   568                           PORTB equ 06h ;# 
   569  0006                     # 292 "C:\Program Files (x86)\Microchip\xc8\v2.00\pic\include\pic16f887.h"
   570                           PORTC equ 07h ;# 
   571  0007                     # 354 "C:\Program Files (x86)\Microchip\xc8\v2.00\pic\include\pic16f887.h"
   572                           PORTD equ 08h ;# 
   573  0008                     # 416 "C:\Program Files (x86)\Microchip\xc8\v2.00\pic\include\pic16f887.h"
   574                           PORTE equ 09h ;# 
   575  0009                     # 454 "C:\Program Files (x86)\Microchip\xc8\v2.00\pic\include\pic16f887.h"
   576                           PCLATH equ 0Ah ;# 
   577  000A                     # 461 "C:\Program Files (x86)\Microchip\xc8\v2.00\pic\include\pic16f887.h"
   578                           INTCON equ 0Bh ;# 
   579  000B                     # 539 "C:\Program Files (x86)\Microchip\xc8\v2.00\pic\include\pic16f887.h"
   580                           PIR1 equ 0Ch ;# 
   581  000C                     # 595 "C:\Program Files (x86)\Microchip\xc8\v2.00\pic\include\pic16f887.h"
   582                           PIR2 equ 0Dh ;# 
   583  000D                     # 652 "C:\Program Files (x86)\Microchip\xc8\v2.00\pic\include\pic16f887.h"
   584                           TMR1 equ 0Eh ;# 
   585  000E                     # 659 "C:\Program Files (x86)\Microchip\xc8\v2.00\pic\include\pic16f887.h"
   586                           TMR1L equ 0Eh ;# 
   587  000E                     # 666 "C:\Program Files (x86)\Microchip\xc8\v2.00\pic\include\pic16f887.h"
   588                           TMR1H equ 0Fh ;# 
   589  000F                     # 673 "C:\Program Files (x86)\Microchip\xc8\v2.00\pic\include\pic16f887.h"
   590                           T1CON equ 010h ;# 
   591  0010                     # 767 "C:\Program Files (x86)\Microchip\xc8\v2.00\pic\include\pic16f887.h"
   592                           TMR2 equ 011h ;# 
   593  0011                     # 774 "C:\Program Files (x86)\Microchip\xc8\v2.00\pic\include\pic16f887.h"
   594                           T2CON equ 012h ;# 
   595  0012                     # 845 "C:\Program Files (x86)\Microchip\xc8\v2.00\pic\include\pic16f887.h"
   596                           SSPBUF equ 013h ;# 
   597  0013                     # 852 "C:\Program Files (x86)\Microchip\xc8\v2.00\pic\include\pic16f887.h"
   598                           SSPCON equ 014h ;# 
   599  0014                     # 922 "C:\Program Files (x86)\Microchip\xc8\v2.00\pic\include\pic16f887.h"
   600                           CCPR1 equ 015h ;# 
   601  0015                     # 929 "C:\Program Files (x86)\Microchip\xc8\v2.00\pic\include\pic16f887.h"
   602                           CCPR1L equ 015h ;# 
   603  0015                     # 936 "C:\Program Files (x86)\Microchip\xc8\v2.00\pic\include\pic16f887.h"
   604                           CCPR1H equ 016h ;# 
   605  0016                     # 943 "C:\Program Files (x86)\Microchip\xc8\v2.00\pic\include\pic16f887.h"
   606                           CCP1CON equ 017h ;# 
   607  0017                     # 1040 "C:\Program Files (x86)\Microchip\xc8\v2.00\pic\include\pic16f887.h"
   608                           RCSTA equ 018h ;# 
   609  0018                     # 1135 "C:\Program Files (x86)\Microchip\xc8\v2.00\pic\include\pic16f887.h"
   610                           TXREG equ 019h ;# 
   611  0019                     # 1142 "C:\Program Files (x86)\Microchip\xc8\v2.00\pic\include\pic16f887.h"
   612                           RCREG equ 01Ah ;# 
   613  001A                     # 1149 "C:\Program Files (x86)\Microchip\xc8\v2.00\pic\include\pic16f887.h"
   614                           CCPR2 equ 01Bh ;# 
   615  001B                     # 1156 "C:\Program Files (x86)\Microchip\xc8\v2.00\pic\include\pic16f887.h"
   616                           CCPR2L equ 01Bh ;# 
   617  001B                     # 1163 "C:\Program Files (x86)\Microchip\xc8\v2.00\pic\include\pic16f887.h"
   618                           CCPR2H equ 01Ch ;# 
   619  001C                     # 1170 "C:\Program Files (x86)\Microchip\xc8\v2.00\pic\include\pic16f887.h"
   620                           CCP2CON equ 01Dh ;# 
   621  001D                     # 1240 "C:\Program Files (x86)\Microchip\xc8\v2.00\pic\include\pic16f887.h"
   622                           ADRESH equ 01Eh ;# 
   623  001E                     # 1247 "C:\Program Files (x86)\Microchip\xc8\v2.00\pic\include\pic16f887.h"
   624                           ADCON0 equ 01Fh ;# 
   625  001F                     # 1348 "C:\Program Files (x86)\Microchip\xc8\v2.00\pic\include\pic16f887.h"
   626                           OPTION_REG equ 081h ;# 
   627  0081                     # 1418 "C:\Program Files (x86)\Microchip\xc8\v2.00\pic\include\pic16f887.h"
   628                           TRISA equ 085h ;# 
   629  0085                     # 1480 "C:\Program Files (x86)\Microchip\xc8\v2.00\pic\include\pic16f887.h"
   630                           TRISB equ 086h ;# 
   631  0086                     # 1542 "C:\Program Files (x86)\Microchip\xc8\v2.00\pic\include\pic16f887.h"
   632                           TRISC equ 087h ;# 
   633  0087                     # 1604 "C:\Program Files (x86)\Microchip\xc8\v2.00\pic\include\pic16f887.h"
   634                           TRISD equ 088h ;# 
   635  0088                     # 1666 "C:\Program Files (x86)\Microchip\xc8\v2.00\pic\include\pic16f887.h"
   636                           TRISE equ 089h ;# 
   637  0089                     # 1704 "C:\Program Files (x86)\Microchip\xc8\v2.00\pic\include\pic16f887.h"
   638                           PIE1 equ 08Ch ;# 
   639  008C                     # 1760 "C:\Program Files (x86)\Microchip\xc8\v2.00\pic\include\pic16f887.h"
   640                           PIE2 equ 08Dh ;# 
   641  008D                     # 1817 "C:\Program Files (x86)\Microchip\xc8\v2.00\pic\include\pic16f887.h"
   642                           PCON equ 08Eh ;# 
   643  008E                     # 1864 "C:\Program Files (x86)\Microchip\xc8\v2.00\pic\include\pic16f887.h"
   644                           OSCCON equ 08Fh ;# 
   645  008F                     # 1929 "C:\Program Files (x86)\Microchip\xc8\v2.00\pic\include\pic16f887.h"
   646                           OSCTUNE equ 090h ;# 
   647  0090                     # 1981 "C:\Program Files (x86)\Microchip\xc8\v2.00\pic\include\pic16f887.h"
   648                           SSPCON2 equ 091h ;# 
   649  0091                     # 2043 "C:\Program Files (x86)\Microchip\xc8\v2.00\pic\include\pic16f887.h"
   650                           PR2 equ 092h ;# 
   651  0092                     # 2050 "C:\Program Files (x86)\Microchip\xc8\v2.00\pic\include\pic16f887.h"
   652                           SSPADD equ 093h ;# 
   653  0093                     # 2057 "C:\Program Files (x86)\Microchip\xc8\v2.00\pic\include\pic16f887.h"
   654                           SSPMSK equ 093h ;# 
   655  0093                     # 2062 "C:\Program Files (x86)\Microchip\xc8\v2.00\pic\include\pic16f887.h"
   656                           MSK equ 093h ;# 
   657  0093                     # 2179 "C:\Program Files (x86)\Microchip\xc8\v2.00\pic\include\pic16f887.h"
   658                           SSPSTAT equ 094h ;# 
   659  0094                     # 2348 "C:\Program Files (x86)\Microchip\xc8\v2.00\pic\include\pic16f887.h"
   660                           WPUB equ 095h ;# 
   661  0095                     # 2418 "C:\Program Files (x86)\Microchip\xc8\v2.00\pic\include\pic16f887.h"
   662                           IOCB equ 096h ;# 
   663  0096                     # 2488 "C:\Program Files (x86)\Microchip\xc8\v2.00\pic\include\pic16f887.h"
   664                           VRCON equ 097h ;# 
   665  0097                     # 2558 "C:\Program Files (x86)\Microchip\xc8\v2.00\pic\include\pic16f887.h"
   666                           TXSTA equ 098h ;# 
   667  0098                     # 2644 "C:\Program Files (x86)\Microchip\xc8\v2.00\pic\include\pic16f887.h"
   668                           SPBRG equ 099h ;# 
   669  0099                     # 2706 "C:\Program Files (x86)\Microchip\xc8\v2.00\pic\include\pic16f887.h"
   670                           SPBRGH equ 09Ah ;# 
   671  009A                     # 2776 "C:\Program Files (x86)\Microchip\xc8\v2.00\pic\include\pic16f887.h"
   672                           PWM1CON equ 09Bh ;# 
   673  009B                     # 2846 "C:\Program Files (x86)\Microchip\xc8\v2.00\pic\include\pic16f887.h"
   674                           ECCPAS equ 09Ch ;# 
   675  009C                     # 2928 "C:\Program Files (x86)\Microchip\xc8\v2.00\pic\include\pic16f887.h"
   676                           PSTRCON equ 09Dh ;# 
   677  009D                     # 2972 "C:\Program Files (x86)\Microchip\xc8\v2.00\pic\include\pic16f887.h"
   678                           ADRESL equ 09Eh ;# 
   679  009E                     # 2979 "C:\Program Files (x86)\Microchip\xc8\v2.00\pic\include\pic16f887.h"
   680                           ADCON1 equ 09Fh ;# 
   681  009F                     # 3013 "C:\Program Files (x86)\Microchip\xc8\v2.00\pic\include\pic16f887.h"
   682                           WDTCON equ 0105h ;# 
   683  0105                     # 3066 "C:\Program Files (x86)\Microchip\xc8\v2.00\pic\include\pic16f887.h"
   684                           CM1CON0 equ 0107h ;# 
   685  0107                     # 3131 "C:\Program Files (x86)\Microchip\xc8\v2.00\pic\include\pic16f887.h"
   686                           CM2CON0 equ 0108h ;# 
   687  0108                     # 3196 "C:\Program Files (x86)\Microchip\xc8\v2.00\pic\include\pic16f887.h"
   688                           CM2CON1 equ 0109h ;# 
   689  0109                     # 3247 "C:\Program Files (x86)\Microchip\xc8\v2.00\pic\include\pic16f887.h"
   690                           EEDATA equ 010Ch ;# 
   691  010C                     # 3252 "C:\Program Files (x86)\Microchip\xc8\v2.00\pic\include\pic16f887.h"
   692                           EEDAT equ 010Ch ;# 
   693  010C                     # 3259 "C:\Program Files (x86)\Microchip\xc8\v2.00\pic\include\pic16f887.h"
   694                           EEADR equ 010Dh ;# 
   695  010D                     # 3266 "C:\Program Files (x86)\Microchip\xc8\v2.00\pic\include\pic16f887.h"
   696                           EEDATH equ 010Eh ;# 
   697  010E                     # 3273 "C:\Program Files (x86)\Microchip\xc8\v2.00\pic\include\pic16f887.h"
   698                           EEADRH equ 010Fh ;# 
   699  010F                     # 3280 "C:\Program Files (x86)\Microchip\xc8\v2.00\pic\include\pic16f887.h"
   700                           SRCON equ 0185h ;# 
   701  0185                     # 3337 "C:\Program Files (x86)\Microchip\xc8\v2.00\pic\include\pic16f887.h"
   702                           BAUDCTL equ 0187h ;# 
   703  0187                     # 3389 "C:\Program Files (x86)\Microchip\xc8\v2.00\pic\include\pic16f887.h"
   704                           ANSEL equ 0188h ;# 
   705  0188                     # 3451 "C:\Program Files (x86)\Microchip\xc8\v2.00\pic\include\pic16f887.h"
   706                           ANSELH equ 0189h ;# 
   707  0189                     # 3501 "C:\Program Files (x86)\Microchip\xc8\v2.00\pic\include\pic16f887.h"
   708                           EECON1 equ 018Ch ;# 
   709  018C                     # 3546 "C:\Program Files (x86)\Microchip\xc8\v2.00\pic\include\pic16f887.h"
   710                           EECON2 equ 018Dh ;# 
   711  018D                     # 54 "C:\Program Files (x86)\Microchip\xc8\v2.00\pic\include\pic16f887.h"
   712                           INDF equ 00h ;# 
   713  0000                     # 61 "C:\Program Files (x86)\Microchip\xc8\v2.00\pic\include\pic16f887.h"
   714                           TMR0 equ 01h ;# 
   715  0001                     # 68 "C:\Program Files (x86)\Microchip\xc8\v2.00\pic\include\pic16f887.h"
   716                           PCL equ 02h ;# 
   717  0002                     # 75 "C:\Program Files (x86)\Microchip\xc8\v2.00\pic\include\pic16f887.h"
   718                           STATUS equ 03h ;# 
   719  0003                     # 161 "C:\Program Files (x86)\Microchip\xc8\v2.00\pic\include\pic16f887.h"
   720                           FSR equ 04h ;# 
   721  0004                     # 168 "C:\Program Files (x86)\Microchip\xc8\v2.00\pic\include\pic16f887.h"
   722                           PORTA equ 05h ;# 
   723  0005                     # 230 "C:\Program Files (x86)\Microchip\xc8\v2.00\pic\include\pic16f887.h"
   724                           PORTB equ 06h ;# 
   725  0006                     # 292 "C:\Program Files (x86)\Microchip\xc8\v2.00\pic\include\pic16f887.h"
   726                           PORTC equ 07h ;# 
   727  0007                     # 354 "C:\Program Files (x86)\Microchip\xc8\v2.00\pic\include\pic16f887.h"
   728                           PORTD equ 08h ;# 
   729  0008                     # 416 "C:\Program Files (x86)\Microchip\xc8\v2.00\pic\include\pic16f887.h"
   730                           PORTE equ 09h ;# 
   731  0009                     # 454 "C:\Program Files (x86)\Microchip\xc8\v2.00\pic\include\pic16f887.h"
   732                           PCLATH equ 0Ah ;# 
   733  000A                     # 461 "C:\Program Files (x86)\Microchip\xc8\v2.00\pic\include\pic16f887.h"
   734                           INTCON equ 0Bh ;# 
   735  000B                     # 539 "C:\Program Files (x86)\Microchip\xc8\v2.00\pic\include\pic16f887.h"
   736                           PIR1 equ 0Ch ;# 
   737  000C                     # 595 "C:\Program Files (x86)\Microchip\xc8\v2.00\pic\include\pic16f887.h"
   738                           PIR2 equ 0Dh ;# 
   739  000D                     # 652 "C:\Program Files (x86)\Microchip\xc8\v2.00\pic\include\pic16f887.h"
   740                           TMR1 equ 0Eh ;# 
   741  000E                     # 659 "C:\Program Files (x86)\Microchip\xc8\v2.00\pic\include\pic16f887.h"
   742                           TMR1L equ 0Eh ;# 
   743  000E                     # 666 "C:\Program Files (x86)\Microchip\xc8\v2.00\pic\include\pic16f887.h"
   744                           TMR1H equ 0Fh ;# 
   745  000F                     # 673 "C:\Program Files (x86)\Microchip\xc8\v2.00\pic\include\pic16f887.h"
   746                           T1CON equ 010h ;# 
   747  0010                     # 767 "C:\Program Files (x86)\Microchip\xc8\v2.00\pic\include\pic16f887.h"
   748                           TMR2 equ 011h ;# 
   749  0011                     # 774 "C:\Program Files (x86)\Microchip\xc8\v2.00\pic\include\pic16f887.h"
   750                           T2CON equ 012h ;# 
   751  0012                     # 845 "C:\Program Files (x86)\Microchip\xc8\v2.00\pic\include\pic16f887.h"
   752                           SSPBUF equ 013h ;# 
   753  0013                     # 852 "C:\Program Files (x86)\Microchip\xc8\v2.00\pic\include\pic16f887.h"
   754                           SSPCON equ 014h ;# 
   755  0014                     # 922 "C:\Program Files (x86)\Microchip\xc8\v2.00\pic\include\pic16f887.h"
   756                           CCPR1 equ 015h ;# 
   757  0015                     # 929 "C:\Program Files (x86)\Microchip\xc8\v2.00\pic\include\pic16f887.h"
   758                           CCPR1L equ 015h ;# 
   759  0015                     # 936 "C:\Program Files (x86)\Microchip\xc8\v2.00\pic\include\pic16f887.h"
   760                           CCPR1H equ 016h ;# 
   761  0016                     # 943 "C:\Program Files (x86)\Microchip\xc8\v2.00\pic\include\pic16f887.h"
   762                           CCP1CON equ 017h ;# 
   763  0017                     # 1040 "C:\Program Files (x86)\Microchip\xc8\v2.00\pic\include\pic16f887.h"
   764                           RCSTA equ 018h ;# 
   765  0018                     # 1135 "C:\Program Files (x86)\Microchip\xc8\v2.00\pic\include\pic16f887.h"
   766                           TXREG equ 019h ;# 
   767  0019                     # 1142 "C:\Program Files (x86)\Microchip\xc8\v2.00\pic\include\pic16f887.h"
   768                           RCREG equ 01Ah ;# 
   769  001A                     # 1149 "C:\Program Files (x86)\Microchip\xc8\v2.00\pic\include\pic16f887.h"
   770                           CCPR2 equ 01Bh ;# 
   771  001B                     # 1156 "C:\Program Files (x86)\Microchip\xc8\v2.00\pic\include\pic16f887.h"
   772                           CCPR2L equ 01Bh ;# 
   773  001B                     # 1163 "C:\Program Files (x86)\Microchip\xc8\v2.00\pic\include\pic16f887.h"
   774                           CCPR2H equ 01Ch ;# 
   775  001C                     # 1170 "C:\Program Files (x86)\Microchip\xc8\v2.00\pic\include\pic16f887.h"
   776                           CCP2CON equ 01Dh ;# 
   777  001D                     # 1240 "C:\Program Files (x86)\Microchip\xc8\v2.00\pic\include\pic16f887.h"
   778                           ADRESH equ 01Eh ;# 
   779  001E                     # 1247 "C:\Program Files (x86)\Microchip\xc8\v2.00\pic\include\pic16f887.h"
   780                           ADCON0 equ 01Fh ;# 
   781  001F                     # 1348 "C:\Program Files (x86)\Microchip\xc8\v2.00\pic\include\pic16f887.h"
   782                           OPTION_REG equ 081h ;# 
   783  0081                     # 1418 "C:\Program Files (x86)\Microchip\xc8\v2.00\pic\include\pic16f887.h"
   784                           TRISA equ 085h ;# 
   785  0085                     # 1480 "C:\Program Files (x86)\Microchip\xc8\v2.00\pic\include\pic16f887.h"
   786                           TRISB equ 086h ;# 
   787  0086                     # 1542 "C:\Program Files (x86)\Microchip\xc8\v2.00\pic\include\pic16f887.h"
   788                           TRISC equ 087h ;# 
   789  0087                     # 1604 "C:\Program Files (x86)\Microchip\xc8\v2.00\pic\include\pic16f887.h"
   790                           TRISD equ 088h ;# 
   791  0088                     # 1666 "C:\Program Files (x86)\Microchip\xc8\v2.00\pic\include\pic16f887.h"
   792                           TRISE equ 089h ;# 
   793  0089                     # 1704 "C:\Program Files (x86)\Microchip\xc8\v2.00\pic\include\pic16f887.h"
   794                           PIE1 equ 08Ch ;# 
   795  008C                     # 1760 "C:\Program Files (x86)\Microchip\xc8\v2.00\pic\include\pic16f887.h"
   796                           PIE2 equ 08Dh ;# 
   797  008D                     # 1817 "C:\Program Files (x86)\Microchip\xc8\v2.00\pic\include\pic16f887.h"
   798                           PCON equ 08Eh ;# 
   799  008E                     # 1864 "C:\Program Files (x86)\Microchip\xc8\v2.00\pic\include\pic16f887.h"
   800                           OSCCON equ 08Fh ;# 
   801  008F                     # 1929 "C:\Program Files (x86)\Microchip\xc8\v2.00\pic\include\pic16f887.h"
   802                           OSCTUNE equ 090h ;# 
   803  0090                     # 1981 "C:\Program Files (x86)\Microchip\xc8\v2.00\pic\include\pic16f887.h"
   804                           SSPCON2 equ 091h ;# 
   805  0091                     # 2043 "C:\Program Files (x86)\Microchip\xc8\v2.00\pic\include\pic16f887.h"
   806                           PR2 equ 092h ;# 
   807  0092                     # 2050 "C:\Program Files (x86)\Microchip\xc8\v2.00\pic\include\pic16f887.h"
   808                           SSPADD equ 093h ;# 
   809  0093                     # 2057 "C:\Program Files (x86)\Microchip\xc8\v2.00\pic\include\pic16f887.h"
   810                           SSPMSK equ 093h ;# 
   811  0093                     # 2062 "C:\Program Files (x86)\Microchip\xc8\v2.00\pic\include\pic16f887.h"
   812                           MSK equ 093h ;# 
   813  0093                     # 2179 "C:\Program Files (x86)\Microchip\xc8\v2.00\pic\include\pic16f887.h"
   814                           SSPSTAT equ 094h ;# 
   815  0094                     # 2348 "C:\Program Files (x86)\Microchip\xc8\v2.00\pic\include\pic16f887.h"
   816                           WPUB equ 095h ;# 
   817  0095                     # 2418 "C:\Program Files (x86)\Microchip\xc8\v2.00\pic\include\pic16f887.h"
   818                           IOCB equ 096h ;# 
   819  0096                     # 2488 "C:\Program Files (x86)\Microchip\xc8\v2.00\pic\include\pic16f887.h"
   820                           VRCON equ 097h ;# 
   821  0097                     # 2558 "C:\Program Files (x86)\Microchip\xc8\v2.00\pic\include\pic16f887.h"
   822                           TXSTA equ 098h ;# 
   823  0098                     # 2644 "C:\Program Files (x86)\Microchip\xc8\v2.00\pic\include\pic16f887.h"
   824                           SPBRG equ 099h ;# 
   825  0099                     # 2706 "C:\Program Files (x86)\Microchip\xc8\v2.00\pic\include\pic16f887.h"
   826                           SPBRGH equ 09Ah ;# 
   827  009A                     # 2776 "C:\Program Files (x86)\Microchip\xc8\v2.00\pic\include\pic16f887.h"
   828                           PWM1CON equ 09Bh ;# 
   829  009B                     # 2846 "C:\Program Files (x86)\Microchip\xc8\v2.00\pic\include\pic16f887.h"
   830                           ECCPAS equ 09Ch ;# 
   831  009C                     # 2928 "C:\Program Files (x86)\Microchip\xc8\v2.00\pic\include\pic16f887.h"
   832                           PSTRCON equ 09Dh ;# 
   833  009D                     # 2972 "C:\Program Files (x86)\Microchip\xc8\v2.00\pic\include\pic16f887.h"
   834                           ADRESL equ 09Eh ;# 
   835  009E                     # 2979 "C:\Program Files (x86)\Microchip\xc8\v2.00\pic\include\pic16f887.h"
   836                           ADCON1 equ 09Fh ;# 
   837  009F                     # 3013 "C:\Program Files (x86)\Microchip\xc8\v2.00\pic\include\pic16f887.h"
   838                           WDTCON equ 0105h ;# 
   839  0105                     # 3066 "C:\Program Files (x86)\Microchip\xc8\v2.00\pic\include\pic16f887.h"
   840                           CM1CON0 equ 0107h ;# 
   841  0107                     # 3131 "C:\Program Files (x86)\Microchip\xc8\v2.00\pic\include\pic16f887.h"
   842                           CM2CON0 equ 0108h ;# 
   843  0108                     # 3196 "C:\Program Files (x86)\Microchip\xc8\v2.00\pic\include\pic16f887.h"
   844                           CM2CON1 equ 0109h ;# 
   845  0109                     # 3247 "C:\Program Files (x86)\Microchip\xc8\v2.00\pic\include\pic16f887.h"
   846                           EEDATA equ 010Ch ;# 
   847  010C                     # 3252 "C:\Program Files (x86)\Microchip\xc8\v2.00\pic\include\pic16f887.h"
   848                           EEDAT equ 010Ch ;# 
   849  010C                     # 3259 "C:\Program Files (x86)\Microchip\xc8\v2.00\pic\include\pic16f887.h"
   850                           EEADR equ 010Dh ;# 
   851  010D                     # 3266 "C:\Program Files (x86)\Microchip\xc8\v2.00\pic\include\pic16f887.h"
   852                           EEDATH equ 010Eh ;# 
   853  010E                     # 3273 "C:\Program Files (x86)\Microchip\xc8\v2.00\pic\include\pic16f887.h"
   854                           EEADRH equ 010Fh ;# 
   855  010F                     # 3280 "C:\Program Files (x86)\Microchip\xc8\v2.00\pic\include\pic16f887.h"
   856                           SRCON equ 0185h ;# 
   857  0185                     # 3337 "C:\Program Files (x86)\Microchip\xc8\v2.00\pic\include\pic16f887.h"
   858                           BAUDCTL equ 0187h ;# 
   859  0187                     # 3389 "C:\Program Files (x86)\Microchip\xc8\v2.00\pic\include\pic16f887.h"
   860                           ANSEL equ 0188h ;# 
   861  0188                     # 3451 "C:\Program Files (x86)\Microchip\xc8\v2.00\pic\include\pic16f887.h"
   862                           ANSELH equ 0189h ;# 
   863  0189                     # 3501 "C:\Program Files (x86)\Microchip\xc8\v2.00\pic\include\pic16f887.h"
   864                           EECON1 equ 018Ch ;# 
   865  018C                     # 3546 "C:\Program Files (x86)\Microchip\xc8\v2.00\pic\include\pic16f887.h"
   866                           EECON2 equ 018Dh ;# 
   867  018D                     # 54 "C:\Program Files (x86)\Microchip\xc8\v2.00\pic\include\pic16f887.h"
   868                           INDF equ 00h ;# 
   869  0000                     # 61 "C:\Program Files (x86)\Microchip\xc8\v2.00\pic\include\pic16f887.h"
   870                           TMR0 equ 01h ;# 
   871  0001                     # 68 "C:\Program Files (x86)\Microchip\xc8\v2.00\pic\include\pic16f887.h"
   872                           PCL equ 02h ;# 
   873  0002                     # 75 "C:\Program Files (x86)\Microchip\xc8\v2.00\pic\include\pic16f887.h"
   874                           STATUS equ 03h ;# 
   875  0003                     # 161 "C:\Program Files (x86)\Microchip\xc8\v2.00\pic\include\pic16f887.h"
   876                           FSR equ 04h ;# 
   877  0004                     # 168 "C:\Program Files (x86)\Microchip\xc8\v2.00\pic\include\pic16f887.h"
   878                           PORTA equ 05h ;# 
   879  0005                     # 230 "C:\Program Files (x86)\Microchip\xc8\v2.00\pic\include\pic16f887.h"
   880                           PORTB equ 06h ;# 
   881  0006                     # 292 "C:\Program Files (x86)\Microchip\xc8\v2.00\pic\include\pic16f887.h"
   882                           PORTC equ 07h ;# 
   883  0007                     # 354 "C:\Program Files (x86)\Microchip\xc8\v2.00\pic\include\pic16f887.h"
   884                           PORTD equ 08h ;# 
   885  0008                     # 416 "C:\Program Files (x86)\Microchip\xc8\v2.00\pic\include\pic16f887.h"
   886                           PORTE equ 09h ;# 
   887  0009                     # 454 "C:\Program Files (x86)\Microchip\xc8\v2.00\pic\include\pic16f887.h"
   888                           PCLATH equ 0Ah ;# 
   889  000A                     # 461 "C:\Program Files (x86)\Microchip\xc8\v2.00\pic\include\pic16f887.h"
   890                           INTCON equ 0Bh ;# 
   891  000B                     # 539 "C:\Program Files (x86)\Microchip\xc8\v2.00\pic\include\pic16f887.h"
   892                           PIR1 equ 0Ch ;# 
   893  000C                     # 595 "C:\Program Files (x86)\Microchip\xc8\v2.00\pic\include\pic16f887.h"
   894                           PIR2 equ 0Dh ;# 
   895  000D                     # 652 "C:\Program Files (x86)\Microchip\xc8\v2.00\pic\include\pic16f887.h"
   896                           TMR1 equ 0Eh ;# 
   897  000E                     # 659 "C:\Program Files (x86)\Microchip\xc8\v2.00\pic\include\pic16f887.h"
   898                           TMR1L equ 0Eh ;# 
   899  000E                     # 666 "C:\Program Files (x86)\Microchip\xc8\v2.00\pic\include\pic16f887.h"
   900                           TMR1H equ 0Fh ;# 
   901  000F                     # 673 "C:\Program Files (x86)\Microchip\xc8\v2.00\pic\include\pic16f887.h"
   902                           T1CON equ 010h ;# 
   903  0010                     # 767 "C:\Program Files (x86)\Microchip\xc8\v2.00\pic\include\pic16f887.h"
   904                           TMR2 equ 011h ;# 
   905  0011                     # 774 "C:\Program Files (x86)\Microchip\xc8\v2.00\pic\include\pic16f887.h"
   906                           T2CON equ 012h ;# 
   907  0012                     # 845 "C:\Program Files (x86)\Microchip\xc8\v2.00\pic\include\pic16f887.h"
   908                           SSPBUF equ 013h ;# 
   909  0013                     # 852 "C:\Program Files (x86)\Microchip\xc8\v2.00\pic\include\pic16f887.h"
   910                           SSPCON equ 014h ;# 
   911  0014                     # 922 "C:\Program Files (x86)\Microchip\xc8\v2.00\pic\include\pic16f887.h"
   912                           CCPR1 equ 015h ;# 
   913  0015                     # 929 "C:\Program Files (x86)\Microchip\xc8\v2.00\pic\include\pic16f887.h"
   914                           CCPR1L equ 015h ;# 
   915  0015                     # 936 "C:\Program Files (x86)\Microchip\xc8\v2.00\pic\include\pic16f887.h"
   916                           CCPR1H equ 016h ;# 
   917  0016                     # 943 "C:\Program Files (x86)\Microchip\xc8\v2.00\pic\include\pic16f887.h"
   918                           CCP1CON equ 017h ;# 
   919  0017                     # 1040 "C:\Program Files (x86)\Microchip\xc8\v2.00\pic\include\pic16f887.h"
   920                           RCSTA equ 018h ;# 
   921  0018                     # 1135 "C:\Program Files (x86)\Microchip\xc8\v2.00\pic\include\pic16f887.h"
   922                           TXREG equ 019h ;# 
   923  0019                     # 1142 "C:\Program Files (x86)\Microchip\xc8\v2.00\pic\include\pic16f887.h"
   924                           RCREG equ 01Ah ;# 
   925  001A                     # 1149 "C:\Program Files (x86)\Microchip\xc8\v2.00\pic\include\pic16f887.h"
   926                           CCPR2 equ 01Bh ;# 
   927  001B                     # 1156 "C:\Program Files (x86)\Microchip\xc8\v2.00\pic\include\pic16f887.h"
   928                           CCPR2L equ 01Bh ;# 
   929  001B                     # 1163 "C:\Program Files (x86)\Microchip\xc8\v2.00\pic\include\pic16f887.h"
   930                           CCPR2H equ 01Ch ;# 
   931  001C                     # 1170 "C:\Program Files (x86)\Microchip\xc8\v2.00\pic\include\pic16f887.h"
   932                           CCP2CON equ 01Dh ;# 
   933  001D                     # 1240 "C:\Program Files (x86)\Microchip\xc8\v2.00\pic\include\pic16f887.h"
   934                           ADRESH equ 01Eh ;# 
   935  001E                     # 1247 "C:\Program Files (x86)\Microchip\xc8\v2.00\pic\include\pic16f887.h"
   936                           ADCON0 equ 01Fh ;# 
   937  001F                     # 1348 "C:\Program Files (x86)\Microchip\xc8\v2.00\pic\include\pic16f887.h"
   938                           OPTION_REG equ 081h ;# 
   939  0081                     # 1418 "C:\Program Files (x86)\Microchip\xc8\v2.00\pic\include\pic16f887.h"
   940                           TRISA equ 085h ;# 
   941  0085                     # 1480 "C:\Program Files (x86)\Microchip\xc8\v2.00\pic\include\pic16f887.h"
   942                           TRISB equ 086h ;# 
   943  0086                     # 1542 "C:\Program Files (x86)\Microchip\xc8\v2.00\pic\include\pic16f887.h"
   944                           TRISC equ 087h ;# 
   945  0087                     # 1604 "C:\Program Files (x86)\Microchip\xc8\v2.00\pic\include\pic16f887.h"
   946                           TRISD equ 088h ;# 
   947  0088                     # 1666 "C:\Program Files (x86)\Microchip\xc8\v2.00\pic\include\pic16f887.h"
   948                           TRISE equ 089h ;# 
   949  0089                     # 1704 "C:\Program Files (x86)\Microchip\xc8\v2.00\pic\include\pic16f887.h"
   950                           PIE1 equ 08Ch ;# 
   951  008C                     # 1760 "C:\Program Files (x86)\Microchip\xc8\v2.00\pic\include\pic16f887.h"
   952                           PIE2 equ 08Dh ;# 
   953  008D                     # 1817 "C:\Program Files (x86)\Microchip\xc8\v2.00\pic\include\pic16f887.h"
   954                           PCON equ 08Eh ;# 
   955  008E                     # 1864 "C:\Program Files (x86)\Microchip\xc8\v2.00\pic\include\pic16f887.h"
   956                           OSCCON equ 08Fh ;# 
   957  008F                     # 1929 "C:\Program Files (x86)\Microchip\xc8\v2.00\pic\include\pic16f887.h"
   958                           OSCTUNE equ 090h ;# 
   959  0090                     # 1981 "C:\Program Files (x86)\Microchip\xc8\v2.00\pic\include\pic16f887.h"
   960                           SSPCON2 equ 091h ;# 
   961  0091                     # 2043 "C:\Program Files (x86)\Microchip\xc8\v2.00\pic\include\pic16f887.h"
   962                           PR2 equ 092h ;# 
   963  0092                     # 2050 "C:\Program Files (x86)\Microchip\xc8\v2.00\pic\include\pic16f887.h"
   964                           SSPADD equ 093h ;# 
   965  0093                     # 2057 "C:\Program Files (x86)\Microchip\xc8\v2.00\pic\include\pic16f887.h"
   966                           SSPMSK equ 093h ;# 
   967  0093                     # 2062 "C:\Program Files (x86)\Microchip\xc8\v2.00\pic\include\pic16f887.h"
   968                           MSK equ 093h ;# 
   969  0093                     # 2179 "C:\Program Files (x86)\Microchip\xc8\v2.00\pic\include\pic16f887.h"
   970                           SSPSTAT equ 094h ;# 
   971  0094                     # 2348 "C:\Program Files (x86)\Microchip\xc8\v2.00\pic\include\pic16f887.h"
   972                           WPUB equ 095h ;# 
   973  0095                     # 2418 "C:\Program Files (x86)\Microchip\xc8\v2.00\pic\include\pic16f887.h"
   974                           IOCB equ 096h ;# 
   975  0096                     # 2488 "C:\Program Files (x86)\Microchip\xc8\v2.00\pic\include\pic16f887.h"
   976                           VRCON equ 097h ;# 
   977  0097                     # 2558 "C:\Program Files (x86)\Microchip\xc8\v2.00\pic\include\pic16f887.h"
   978                           TXSTA equ 098h ;# 
   979  0098                     # 2644 "C:\Program Files (x86)\Microchip\xc8\v2.00\pic\include\pic16f887.h"
   980                           SPBRG equ 099h ;# 
   981  0099                     # 2706 "C:\Program Files (x86)\Microchip\xc8\v2.00\pic\include\pic16f887.h"
   982                           SPBRGH equ 09Ah ;# 
   983  009A                     # 2776 "C:\Program Files (x86)\Microchip\xc8\v2.00\pic\include\pic16f887.h"
   984                           PWM1CON equ 09Bh ;# 
   985  009B                     # 2846 "C:\Program Files (x86)\Microchip\xc8\v2.00\pic\include\pic16f887.h"
   986                           ECCPAS equ 09Ch ;# 
   987  009C                     # 2928 "C:\Program Files (x86)\Microchip\xc8\v2.00\pic\include\pic16f887.h"
   988                           PSTRCON equ 09Dh ;# 
   989  009D                     # 2972 "C:\Program Files (x86)\Microchip\xc8\v2.00\pic\include\pic16f887.h"
   990                           ADRESL equ 09Eh ;# 
   991  009E                     # 2979 "C:\Program Files (x86)\Microchip\xc8\v2.00\pic\include\pic16f887.h"
   992                           ADCON1 equ 09Fh ;# 
   993  009F                     # 3013 "C:\Program Files (x86)\Microchip\xc8\v2.00\pic\include\pic16f887.h"
   994                           WDTCON equ 0105h ;# 
   995  0105                     # 3066 "C:\Program Files (x86)\Microchip\xc8\v2.00\pic\include\pic16f887.h"
   996                           CM1CON0 equ 0107h ;# 
   997  0107                     # 3131 "C:\Program Files (x86)\Microchip\xc8\v2.00\pic\include\pic16f887.h"
   998                           CM2CON0 equ 0108h ;# 
   999  0108                     # 3196 "C:\Program Files (x86)\Microchip\xc8\v2.00\pic\include\pic16f887.h"
  1000                           CM2CON1 equ 0109h ;# 
  1001  0109                     # 3247 "C:\Program Files (x86)\Microchip\xc8\v2.00\pic\include\pic16f887.h"
  1002                           EEDATA equ 010Ch ;# 
  1003  010C                     # 3252 "C:\Program Files (x86)\Microchip\xc8\v2.00\pic\include\pic16f887.h"
  1004                           EEDAT equ 010Ch ;# 
  1005  010C                     # 3259 "C:\Program Files (x86)\Microchip\xc8\v2.00\pic\include\pic16f887.h"
  1006                           EEADR equ 010Dh ;# 
  1007  010D                     # 3266 "C:\Program Files (x86)\Microchip\xc8\v2.00\pic\include\pic16f887.h"
  1008                           EEDATH equ 010Eh ;# 
  1009  010E                     # 3273 "C:\Program Files (x86)\Microchip\xc8\v2.00\pic\include\pic16f887.h"
  1010                           EEADRH equ 010Fh ;# 
  1011  010F                     # 3280 "C:\Program Files (x86)\Microchip\xc8\v2.00\pic\include\pic16f887.h"
  1012                           SRCON equ 0185h ;# 
  1013  0185                     # 3337 "C:\Program Files (x86)\Microchip\xc8\v2.00\pic\include\pic16f887.h"
  1014                           BAUDCTL equ 0187h ;# 
  1015  0187                     # 3389 "C:\Program Files (x86)\Microchip\xc8\v2.00\pic\include\pic16f887.h"
  1016                           ANSEL equ 0188h ;# 
  1017  0188                     # 3451 "C:\Program Files (x86)\Microchip\xc8\v2.00\pic\include\pic16f887.h"
  1018                           ANSELH equ 0189h ;# 
  1019  0189                     # 3501 "C:\Program Files (x86)\Microchip\xc8\v2.00\pic\include\pic16f887.h"
  1020                           EECON1 equ 018Ch ;# 
  1021  018C                     # 3546 "C:\Program Files (x86)\Microchip\xc8\v2.00\pic\include\pic16f887.h"
  1022                           EECON2 equ 018Dh ;# 
  1023  018D                     	FNCALL	_main,_BCD2LowerCh
  1024                           	FNCALL	_main,_BCD2UpperCh
  1025                           	FNCALL	_main,_I2C_Master_Init
  1026                           	FNCALL	_main,_I2C_Master_Read
  1027                           	FNCALL	_main,_I2C_Master_Start
  1028                           	FNCALL	_main,_I2C_Master_Stop
  1029                           	FNCALL	_main,_I2C_Master_Write
  1030                           	FNCALL	_main,_LCD_CURSOR
  1031                           	FNCALL	_main,_LCD_DATO
  1032                           	FNCALL	_main,_LCD_STRING
  1033                           	FNCALL	_main,_atoi
  1034                           	FNCALL	_main,_config
  1035                           	FNCALL	_main,_delay
  1036                           	FNCALL	_main,_lcd_init
  1037                           	FNCALL	_main,_mandar
  1038                           	FNCALL	_main,_read_ds1307
  1039                           	FNCALL	_main,_servo0
  1040                           	FNCALL	_main,_servo180
  1041                           	FNCALL	_main,_sprintf
  1042                           	FNCALL	_sprintf,___bmul
  1043                           	FNCALL	_sprintf,___lwdiv
  1044                           	FNCALL	_sprintf,___lwmod
  1045                           	FNCALL	_sprintf,_isdigit
  1046                           	FNCALL	_read_ds1307,_I2C_Master_Read
  1047                           	FNCALL	_read_ds1307,_I2C_Master_RepeatedStart
  1048                           	FNCALL	_read_ds1307,_I2C_Master_Start
  1049                           	FNCALL	_read_ds1307,_I2C_Master_Stop
  1050                           	FNCALL	_read_ds1307,_I2C_Master_Write
  1051                           	FNCALL	_I2C_Master_Write,_I2C_Master_Wait
  1052                           	FNCALL	_I2C_Master_Stop,_I2C_Master_Wait
  1053                           	FNCALL	_I2C_Master_Start,_I2C_Master_Wait
  1054                           	FNCALL	_I2C_Master_RepeatedStart,_I2C_Master_Wait
  1055                           	FNCALL	_I2C_Master_Read,_I2C_Master_Wait
  1056                           	FNCALL	_lcd_init,_lcd_cmd
  1057                           	FNCALL	_lcd_cmd,_lcd_lat
  1058                           	FNCALL	_lcd_cmd,_lcd_ready
  1059                           	FNCALL	_lcd_ready,_delay
  1060                           	FNCALL	_lcd_lat,_delay
  1061                           	FNCALL	_atoi,___wmul
  1062                           	FNCALL	_atoi,_isdigit
  1063                           	FNCALL	_LCD_STRING,_LCD_CHAR
  1064                           	FNCALL	_LCD_CURSOR,_LCD_DATO
  1065                           	FNCALL	_I2C_Master_Init,___lldiv
  1066                           	FNROOT	_main
  1067                           	global	_time
  1068                           	global	_date
  1069                           psect	idataBANK0,class=CODE,space=0,delta=2,noexec
  1070                           global __pidataBANK0
  1071                           __pidataBANK0:
  1072  0DC9                     	file	"Pri-Master.c"
  1073                           	line	74
  1074                           
  1075                           ;initializer for _time
  1076                           	retlw	030h
  1077  0DC9  3430               	retlw	030h
  1078  0DCA  3430               	retlw	03Ah
  1079  0DCB  343A               	retlw	030h
  1080  0DCC  3430               	retlw	030h
  1081  0DCD  3430               	retlw	03Ah
  1082  0DCE  343A               	retlw	030h
  1083  0DCF  3430               	retlw	030h
  1084  0DD0  3430               	retlw	020h
  1085  0DD1  3420               	retlw	050h
  1086  0DD2  3450               	retlw	04Dh
  1087  0DD3  344D               	retlw	low(0)
  1088  0DD4  3400               psect	idataBANK1,class=CODE,space=0,delta=2,noexec
  1089                           global __pidataBANK1
  1090                           __pidataBANK1:
  1091  0EE1                     	line	73
  1092                           
  1093                           ;initializer for _abajo
  1094                           	retlw	053h
  1095  0EE1  3453               	retlw	034h
  1096  0EE2  3434               	retlw	03Ah
  1097  0EE3  343A               	retlw	031h
  1098  0EE4  3431               	retlw	020h
  1099  0EE5  3420               	retlw	030h
  1100  0EE6  3430               	retlw	030h
  1101  0EE7  3430               	retlw	03Ah
  1102  0EE8  343A               	retlw	030h
  1103  0EE9  3430               	retlw	030h
  1104  0EEA  3430               	retlw	03Ah
  1105  0EEB  343A               	retlw	030h
  1106  0EEC  3430               	retlw	030h
  1107  0EED  3430               	retlw	020h
  1108  0EEE  3420               	retlw	041h
  1109  0EEF  3441               	retlw	04Dh
  1110  0EF0  344D               	retlw	low(0)
  1111  0EF1  3400               	line	72
  1112                           
  1113                           ;initializer for _arriba
  1114                           	retlw	053h
  1115  0EF2  3453               	retlw	031h
  1116  0EF3  3431               	retlw	03Ah
  1117  0EF4  343A               	retlw	031h
  1118  0EF5  3431               	retlw	020h
  1119  0EF6  3420               	retlw	053h
  1120  0EF7  3453               	retlw	032h
  1121  0EF8  3432               	retlw	03Ah
  1122  0EF9  343A               	retlw	031h
  1123  0EFA  3431               	retlw	020h
  1124  0EFB  3420               	retlw	064h
  1125  0EFC  3464               	retlw	03Ah
  1126  0EFD  343A               	retlw	030h
  1127  0EFE  3430               	retlw	030h
  1128  0EFF  3430               	retlw	030h
  1129  0F00  3430               	retlw	low(0)
  1130  0F01  3400               	line	75
  1131                           
  1132                           ;initializer for _date
  1133                           	retlw	030h
  1134  0F02  3430               	retlw	030h
  1135  0F03  3430               	retlw	02Dh
  1136  0F04  342D               	retlw	030h
  1137  0F05  3430               	retlw	030h
  1138  0F06  3430               	retlw	02Dh
  1139  0F07  342D               	retlw	030h
  1140  0F08  3430               	retlw	030h
  1141  0F09  3430               	retlw	low(0)
  1142  0F0A  3400               	global	_dpowers
  1143                           psect	strings,class=STRING,delta=2,noexec
  1144                           global __pstrings
  1145                           __pstrings:
  1146  0003                     stringtab:
  1147  0003                     	global    __stringtab
  1148                           __stringtab:
  1149  0003                     ;	String table - string pointers are 1 byte each
  1150                           	btfsc	(btemp+1),7
  1151  0003  1BFF               	ljmp	stringcode
  1152  0004  280D               	bcf	status,7
  1153  0005  1383               	btfsc	(btemp+1),0
  1154  0006  187F               	bsf	status,7
  1155  0007  1783               	movf	indf,w
  1156  0008  0800               	incf fsr
  1157  0009  0A84               skipnz
  1158  000A  1903               incf btemp+1
  1159  000B  0AFF               	return
  1160  000C  0008               stringcode:stringdir:
  1161  000D                     movlw high(stringdir)
      + 000D                     stringdir:	
  1162  000D  3000               movwf pclath
  1163  000E  008A               movf fsr,w
  1164  000F  0804               incf fsr
  1165  0010  0A84               	addwf pc
  1166  0011  0782               	global __stringbase
  1167                           __stringbase:
  1168  0012                     	retlw	0
  1169  0012  3400               psect	strings
  1170                           	global    __end_of__stringtab
  1171                           __end_of__stringtab:
  1172  0013                     	file	"C:\Program Files (x86)\Microchip\xc8\v2.00\pic\sources\c90\common\doprnt.c"
  1173                           	line	358
  1174                           _dpowers:
  1175  0013                     	retlw	01h
  1176  0013  3401               	retlw	0
  1177  0014  3400               
  1178                           	retlw	0Ah
  1179  0015  340A               	retlw	0
  1180  0016  3400               
  1181                           	retlw	064h
  1182  0017  3464               	retlw	0
  1183  0018  3400               
  1184                           	retlw	0E8h
  1185  0019  34E8               	retlw	03h
  1186  001A  3403               
  1187                           	retlw	010h
  1188  001B  3410               	retlw	027h
  1189  001C  3427               
  1190                           	global __end_of_dpowers
  1191                           __end_of_dpowers:
  1192  001D                     	global	_dpowers
  1193                           	global	_ap
  1194                           	global	_year
  1195                           	global	_month
  1196                           	global	_day
  1197                           	global	_hr
  1198                           	global	_hour
  1199                           	global	_minute
  1200                           	global	_second
  1201                           	global	_var
  1202                           	global	_valor5
  1203                           	global	_valor4
  1204                           	global	_valor3
  1205                           	global	_valor2
  1206                           	global	_valor1
  1207                           	global	_deter
  1208                           	global	_valorf
  1209                           	global	_valor
  1210                           	global	_TXREG
  1211                           _TXREG	set	0x19
  1212  0019                     	global	_RCSTAbits
  1213                           _RCSTAbits	set	0x18
  1214  0018                     	global	_PORTCbits
  1215                           _PORTCbits	set	0x7
  1216  0007                     	global	_RCREG
  1217                           _RCREG	set	0x1A
  1218  001A                     	global	_PORTAbits
  1219                           _PORTAbits	set	0x5
  1220  0005                     	global	_PORTD
  1221                           _PORTD	set	0x8
  1222  0008                     	global	_PORTA
  1223                           _PORTA	set	0x5
  1224  0005                     	global	_PORTB
  1225                           _PORTB	set	0x6
  1226  0006                     	global	_PORTDbits
  1227                           _PORTDbits	set	0x8
  1228  0008                     	global	_PIR1bits
  1229                           _PIR1bits	set	0xC
  1230  000C                     	global	_SSPBUF
  1231                           _SSPBUF	set	0x13
  1232  0013                     	global	_SSPCON
  1233                           _SSPCON	set	0x14
  1234  0014                     	global	_RCIF
  1235                           _RCIF	set	0x65
  1236  0065                     	global	_SSPIF
  1237                           _SSPIF	set	0x63
  1238  0063                     	global	_PEIE
  1239                           _PEIE	set	0x5E
  1240  005E                     	global	_GIE
  1241                           _GIE	set	0x5F
  1242  005F                     	global	_SPBRGH
  1243                           _SPBRGH	set	0x9A
  1244  009A                     	global	_SPBRG
  1245                           _SPBRG	set	0x99
  1246  0099                     	global	_TXSTAbits
  1247                           _TXSTAbits	set	0x98
  1248  0098                     	global	_TRISA
  1249                           _TRISA	set	0x85
  1250  0085                     	global	_TRISB
  1251                           _TRISB	set	0x86
  1252  0086                     	global	_TRISD
  1253                           _TRISD	set	0x88
  1254  0088                     	global	_SSPSTATbits
  1255                           _SSPSTATbits	set	0x94
  1256  0094                     	global	_SSPCON2bits
  1257                           _SSPCON2bits	set	0x91
  1258  0091                     	global	_TRISCbits
  1259                           _TRISCbits	set	0x87
  1260  0087                     	global	_SSPSTAT
  1261                           _SSPSTAT	set	0x94
  1262  0094                     	global	_SSPADD
  1263                           _SSPADD	set	0x93
  1264  0093                     	global	_SSPCON2
  1265                           _SSPCON2	set	0x91
  1266  0091                     	global	_PEN
  1267                           _PEN	set	0x48A
  1268  048A                     	global	_ACKSTAT
  1269                           _ACKSTAT	set	0x48E
  1270  048E                     	global	_BF
  1271                           _BF	set	0x4A0
  1272  04A0                     	global	_RCEN
  1273                           _RCEN	set	0x48B
  1274  048B                     	global	_ACKEN
  1275                           _ACKEN	set	0x48C
  1276  048C                     	global	_ACKDT
  1277                           _ACKDT	set	0x48D
  1278  048D                     	global	_SEN
  1279                           _SEN	set	0x488
  1280  0488                     	global	_SSPIE
  1281                           _SSPIE	set	0x463
  1282  0463                     	global	_TRISC4
  1283                           _TRISC4	set	0x43C
  1284  043C                     	global	_TRISC3
  1285                           _TRISC3	set	0x43B
  1286  043B                     	global	_BAUDCTLbits
  1287                           _BAUDCTLbits	set	0x187
  1288  0187                     	global	_ANSELH
  1289                           _ANSELH	set	0x189
  1290  0189                     	global	_ANSEL
  1291                           _ANSEL	set	0x188
  1292  0188                     	
  1293                           STR_3:	
  1294  001D                     	retlw	37	;'%'
  1295  001D  3425               	retlw	46	;'.'
  1296  001E  342E               	retlw	49	;'1'
  1297  001F  3431               	retlw	100	;'d'
  1298  0020  3464               	retlw	32	;' '
  1299  0021  3420               	retlw	37	;'%'
  1300  0022  3425               	retlw	46	;'.'
  1301  0023  342E               	retlw	49	;'1'
  1302  0024  3431               	retlw	100	;'d'
  1303  0025  3464               	retlw	32	;' '
  1304  0026  3420               	retlw	37	;'%'
  1305  0027  3425               	retlw	46	;'.'
  1306  0028  342E               	retlw	51	;'3'
  1307  0029  3433               	retlw	100	;'d'
  1308  002A  3464               	retlw	32	;' '
  1309  002B  3420               	retlw	37	;'%'
  1310  002C  3425               	retlw	46	;'.'
  1311  002D  342E               	retlw	49	;'1'
  1312  002E  3431               	retlw	100	;'d'
  1313  002F  3464               	retlw	32	;' '
  1314  0030  3420               	retlw	37	;'%'
  1315  0031  3425               	retlw	46	;'.'
  1316  0032  342E               	retlw	50	;'2'
  1317  0033  3432               	retlw	100	;'d'
  1318  0034  3464               	retlw	0
  1319  0035  3400               psect	strings
  1320                           	
  1321                           STR_2:	
  1322  0036                     	retlw	69	;'E'
  1323  0036  3445               	retlw	83	;'S'
  1324  0037  3453               	retlw	84	;'T'
  1325  0038  3454               	retlw	82	;'R'
  1326  0039  3452               	retlw	65	;'A'
  1327  003A  3441               	retlw	68	;'D'
  1328  003B  3444               	retlw	65	;'A'
  1329  003C  3441               	retlw	32	;' '
  1330  003D  3420               	retlw	32	;' '
  1331  003E  3420               	retlw	35	;'#'
  1332  003F  3423               	retlw	49	;'1'
  1333  0040  3431               	retlw	55	;'7'
  1334  0041  3437               	retlw	48	;'0'
  1335  0042  3430               	retlw	55	;'7'
  1336  0043  3437               	retlw	56	;'8'
  1337  0044  3438               	retlw	0
  1338  0045  3400               psect	strings
  1339                           	
  1340                           STR_1:	
  1341  0046                     	retlw	74	;'J'
  1342  0046  344A               	retlw	79	;'O'
  1343  0047  344F               	retlw	83	;'S'
  1344  0048  3453               	retlw	69	;'E'
  1345  0049  3445               	retlw	32	;' '
  1346  004A  3420               	retlw	74	;'J'
  1347  004B  344A               	retlw	65	;'A'
  1348  004C  3441               	retlw	86	;'V'
  1349  004D  3456               	retlw	73	;'I'
  1350  004E  3449               	retlw	69	;'E'
  1351  004F  3445               	retlw	82	;'R'
  1352  0050  3452               	retlw	0
  1353  0051  3400               psect	strings
  1354                           ; #config settings
  1355                           global __CFG_FOSC$INTRC_NOCLKOUT
  1356                           __CFG_FOSC$INTRC_NOCLKOUT equ 0x0
  1357  0000                     global __CFG_WDTE$OFF
  1358                           __CFG_WDTE$OFF equ 0x0
  1359  0000                     global __CFG_PWRTE$OFF
  1360                           __CFG_PWRTE$OFF equ 0x0
  1361  0000                     global __CFG_MCLRE$OFF
  1362                           __CFG_MCLRE$OFF equ 0x0
  1363  0000                     global __CFG_CP$OFF
  1364                           __CFG_CP$OFF equ 0x0
  1365  0000                     global __CFG_CPD$OFF
  1366                           __CFG_CPD$OFF equ 0x0
  1367  0000                     global __CFG_BOREN$OFF
  1368                           __CFG_BOREN$OFF equ 0x0
  1369  0000                     global __CFG_IESO$OFF
  1370                           __CFG_IESO$OFF equ 0x0
  1371  0000                     global __CFG_FCMEN$OFF
  1372                           __CFG_FCMEN$OFF equ 0x0
  1373  0000                     global __CFG_LVP$OFF
  1374                           __CFG_LVP$OFF equ 0x0
  1375  0000                     global __CFG_BOR4V$BOR40V
  1376                           __CFG_BOR4V$BOR40V equ 0x0
  1377  0000                     global __CFG_WRT$OFF
  1378                           __CFG_WRT$OFF equ 0x0
  1379  0000                     	file	"C:\Users\JOSJAV~1\AppData\Local\Temp\s2lc."
  1380                           	line	#
  1381                           psect cinit,class=CODE,delta=2
  1382                           global start_initialization
  1383                           start_initialization:
  1384  07D1                     
  1385                           global __initialization
  1386                           __initialization:
  1387  07D1                     psect	bssBANK0,class=BANK0,space=1,noexec
  1388                           global __pbssBANK0
  1389                           __pbssBANK0:
  1390  0020                     _ap:
  1391  0020                            ds      2
  1392  0020                     
  1393                           _year:
  1394  0022                            ds      2
  1395  0022                     
  1396                           _month:
  1397  0024                            ds      2
  1398  0024                     
  1399                           _dday:
  1400  0026                            ds      2
  1401  0026                     
  1402                           _day:
  1403  0028                            ds      2
  1404  0028                     
  1405                           _hr:
  1406  002A                            ds      2
  1407  002A                     
  1408                           _hour:
  1409  002C                            ds      2
  1410  002C                     
  1411                           _minute:
  1412  002E                            ds      2
  1413  002E                     
  1414                           _second:
  1415  0030                            ds      2
  1416  0030                     
  1417                           _var:
  1418  0032                            ds      2
  1419  0032                     
  1420                           _ala:
  1421  0034                            ds      2
  1422  0034                     
  1423                           _mot3:
  1424  0036                            ds      2
  1425  0036                     
  1426                           _mot2:
  1427  0038                            ds      2
  1428  0038                     
  1429                           _mot1:
  1430  003A                            ds      2
  1431  003A                     
  1432                           _valor5:
  1433  003C                            ds      2
  1434  003C                     
  1435                           _valor4:
  1436  003E                            ds      2
  1437  003E                     
  1438                           _valor3:
  1439  0040                            ds      2
  1440  0040                     
  1441                           _valor2:
  1442  0042                            ds      2
  1443  0042                     
  1444                           _valor1:
  1445  0044                            ds      2
  1446  0044                     
  1447                           _deter:
  1448  0046                            ds      2
  1449  0046                     
  1450                           _valorf:
  1451  0048                            ds      1
  1452  0048                     
  1453                           psect	dataBANK0,class=BANK0,space=1,noexec
  1454                           global __pdataBANK0
  1455                           __pdataBANK0:
  1456  0060                     	file	"Pri-Master.c"
  1457                           	line	74
  1458                           _time:
  1459  0060                            ds      12
  1460  0060                     
  1461                           psect	bssBANK1,class=BANK1,space=1,noexec
  1462                           global __pbssBANK1
  1463                           __pbssBANK1:
  1464  00CA                     _valor:
  1465  00CA                            ds      16
  1466  00CA                     
  1467                           psect	dataBANK1,class=BANK1,space=1,noexec
  1468                           global __pdataBANK1
  1469                           __pdataBANK1:
  1470  00A0                     	file	"Pri-Master.c"
  1471                           	line	73
  1472                           _abajo:
  1473  00A0                            ds      17
  1474  00A0                     
  1475                           psect	dataBANK1
  1476                           	file	"Pri-Master.c"
  1477                           	line	72
  1478                           _arriba:
  1479  00B1                            ds      16
  1480  00B1                     
  1481                           psect	dataBANK1
  1482                           	file	"Pri-Master.c"
  1483                           	line	75
  1484                           _date:
  1485  00C1                            ds      9
  1486  00C1                     
  1487                           	file	"C:\Users\JOSJAV~1\AppData\Local\Temp\s2lc."
  1488                           	line	#
  1489                           global btemp
  1490                           psect inittext,class=CODE,delta=2
  1491                           global init_fetch0,btemp
  1492                           ;	Called with low address in FSR and high address in W
  1493                           init_fetch0:
  1494  0E22                     	movf btemp,w
  1495  0E22  087E               	movwf pclath
  1496  0E23  008A               	movf btemp+1,w
  1497  0E24  087F               	movwf pc
  1498  0E25  0082               global init_ram0
  1499                           ;Called with:
  1500                           ;	high address of idata address in btemp 
  1501                           ;	low address of idata address in btemp+1 
  1502                           ;	low address of data in FSR
  1503                           ;	high address + 1 of data in btemp-1
  1504                           init_ram0:
  1505  0E26                     	fcall init_fetch0
  1506  0E26  120A  158A  2622  120A  158A  	movwf indf,f
  1507  0E2B  0080               	incf fsr,f
  1508  0E2C  0A84               	movf fsr,w
  1509  0E2D  0804               	xorwf btemp-1,w
  1510  0E2E  067D               	btfsc status,2
  1511  0E2F  1903               	retlw 0
  1512  0E30  3400               	incf btemp+1,f
  1513  0E31  0AFF               	btfsc status,2
  1514  0E32  1903               	incf btemp,f
  1515  0E33  0AFE               	goto init_ram0
  1516  0E34  2E26               ; Initialize objects allocated to BANK1
  1517                           psect cinit,class=CODE,delta=2,merge=1
  1518                           global init_ram0, __pidataBANK1
  1519                           	bcf	status, 7	;select IRP bank0
  1520  07D1  1383               	movlw low(__pdataBANK1+42)
  1521  07D2  30CA               	movwf btemp-1,f
  1522  07D3  00FD               	movlw high(__pidataBANK1)
  1523  07D4  300E               	movwf btemp,f
  1524  07D5  00FE               	movlw low(__pidataBANK1)
  1525  07D6  30E1               	movwf btemp+1,f
  1526  07D7  00FF               	movlw low(__pdataBANK1)
  1527  07D8  30A0               	movwf fsr,f
  1528  07D9  0084               	fcall init_ram0
  1529  07DA  120A  158A  2626  120A  118A  ; Initialize objects allocated to BANK0
  1530                           psect cinit,class=CODE,delta=2,merge=1
  1531                           global init_ram0, __pidataBANK0
  1532                           	movlw low(__pdataBANK0+12)
  1533  07DF  306C               	movwf btemp-1,f
  1534  07E0  00FD               	movlw high(__pidataBANK0)
  1535  07E1  300D               	movwf btemp,f
  1536  07E2  00FE               	movlw low(__pidataBANK0)
  1537  07E3  30C9               	movwf btemp+1,f
  1538  07E4  00FF               	movlw low(__pdataBANK0)
  1539  07E5  3060               	movwf fsr,f
  1540  07E6  0084               	fcall init_ram0
  1541  07E7  120A  158A  2626  120A  118A  	line	#
  1542                           psect clrtext,class=CODE,delta=2
  1543                           global clear_ram0
  1544                           ;	Called with FSR containing the base address, and
  1545                           ;	W with the last address+1
  1546                           clear_ram0:
  1547  0D9C                     	clrwdt			;clear the watchdog before getting into this loop
  1548  0D9C  0064               clrloop0:
  1549  0D9D                     	clrf	indf		;clear RAM location pointed to by FSR
  1550  0D9D  0180               	incf	fsr,f		;increment pointer
  1551  0D9E  0A84               	xorwf	fsr,w		;XOR with final address
  1552  0D9F  0604               	btfsc	status,2	;have we reached the end yet?
  1553  0DA0  1903               	retlw	0		;all done for this memory range, return
  1554  0DA1  3400               	xorwf	fsr,w		;XOR again to restore value
  1555  0DA2  0604               	goto	clrloop0		;do the next byte
  1556  0DA3  2D9D               
  1557                           ; Clear objects allocated to BANK1
  1558                           psect cinit,class=CODE,delta=2,merge=1
  1559                           	movlw	low(__pbssBANK1)
  1560  07EC  30CA               	movwf	fsr
  1561  07ED  0084               	movlw	low((__pbssBANK1)+010h)
  1562  07EE  30DA               	fcall	clear_ram0
  1563  07EF  120A  158A  259C  120A  118A  ; Clear objects allocated to BANK0
  1564                           psect cinit,class=CODE,delta=2,merge=1
  1565                           	movlw	low(__pbssBANK0)
  1566  07F4  3020               	movwf	fsr
  1567  07F5  0084               	movlw	low((__pbssBANK0)+029h)
  1568  07F6  3049               	fcall	clear_ram0
  1569  07F7  120A  158A  259C  120A  118A  psect cinit,class=CODE,delta=2,merge=1
  1570                           global end_of_initialization,__end_of__initialization
  1571                           
  1572                           ;End of C runtime variable initialization code
  1573                           
  1574                           end_of_initialization:
  1575  07FC                     __end_of__initialization:
  1576  07FC                     clrf status
  1577  07FC  0183               ljmp _main	;jump to C main() function
  1578  07FD  120A  118A  2C55   psect	cstackCOMMON,class=COMMON,space=1,noexec
  1579                           global __pcstackCOMMON
  1580                           __pcstackCOMMON:
  1581  0070                     ?_isdigit:	; 1 bit 
  1582  0070                     ?_delay:	; 1 bytes @ 0x0
  1583  0070                     ?_config:	; 1 bytes @ 0x0
  1584  0070                     ??_config:	; 1 bytes @ 0x0
  1585  0070                     ?_mandar:	; 1 bytes @ 0x0
  1586  0070                     ?_servo0:	; 1 bytes @ 0x0
  1587  0070                     ??_servo0:	; 1 bytes @ 0x0
  1588  0070                     ?_servo180:	; 1 bytes @ 0x0
  1589  0070                     ??_servo180:	; 1 bytes @ 0x0
  1590  0070                     ??_isdigit:	; 1 bytes @ 0x0
  1591  0070                     ?_I2C_Master_Wait:	; 1 bytes @ 0x0
  1592  0070                     ??_I2C_Master_Wait:	; 1 bytes @ 0x0
  1593  0070                     ?_I2C_Master_Start:	; 1 bytes @ 0x0
  1594  0070                     ??_I2C_Master_Start:	; 1 bytes @ 0x0
  1595  0070                     ?_I2C_Master_RepeatedStart:	; 1 bytes @ 0x0
  1596  0070                     ??_I2C_Master_RepeatedStart:	; 1 bytes @ 0x0
  1597  0070                     ?_I2C_Master_Stop:	; 1 bytes @ 0x0
  1598  0070                     ??_I2C_Master_Stop:	; 1 bytes @ 0x0
  1599  0070                     ?_I2C_Master_Write:	; 1 bytes @ 0x0
  1600  0070                     ?_lcd_lat:	; 1 bytes @ 0x0
  1601  0070                     ?_lcd_ready:	; 1 bytes @ 0x0
  1602  0070                     ?_lcd_cmd:	; 1 bytes @ 0x0
  1603  0070                     ?_lcd_init:	; 1 bytes @ 0x0
  1604  0070                     ?_LCD_DATO:	; 1 bytes @ 0x0
  1605  0070                     ?_LCD_CHAR:	; 1 bytes @ 0x0
  1606  0070                     ??_LCD_CHAR:	; 1 bytes @ 0x0
  1607  0070                     ?_BCD2UpperCh:	; 1 bytes @ 0x0
  1608  0070                     ??_BCD2UpperCh:	; 1 bytes @ 0x0
  1609  0070                     ?_BCD2LowerCh:	; 1 bytes @ 0x0
  1610  0070                     ??_BCD2LowerCh:	; 1 bytes @ 0x0
  1611  0070                     ?_main:	; 1 bytes @ 0x0
  1612  0070                     ?___bmul:	; 1 bytes @ 0x0
  1613  0070                     	global	?_I2C_Master_Read
  1614                           ?_I2C_Master_Read:	; 2 bytes @ 0x0
  1615  0070                     	global	?___wmul
  1616                           ?___wmul:	; 2 bytes @ 0x0
  1617  0070                     	global	?___lwdiv
  1618                           ?___lwdiv:	; 2 bytes @ 0x0
  1619  0070                     	global	?___lldiv
  1620                           ?___lldiv:	; 4 bytes @ 0x0
  1621  0070                     	global	BCD2LowerCh@bcd
  1622                           BCD2LowerCh@bcd:	; 1 bytes @ 0x0
  1623  0070                     	global	___bmul@multiplicand
  1624                           ___bmul@multiplicand:	; 1 bytes @ 0x0
  1625  0070                     	global	_isdigit$1143
  1626                           _isdigit$1143:	; 1 bytes @ 0x0
  1627  0070                     	global	I2C_Master_Write@d
  1628                           I2C_Master_Write@d:	; 2 bytes @ 0x0
  1629  0070                     	global	I2C_Master_Read@a
  1630                           I2C_Master_Read@a:	; 2 bytes @ 0x0
  1631  0070                     	global	delay@ms
  1632                           delay@ms:	; 2 bytes @ 0x0
  1633  0070                     	global	LCD_DATO@var
  1634                           LCD_DATO@var:	; 2 bytes @ 0x0
  1635  0070                     	global	mandar@dato
  1636                           mandar@dato:	; 2 bytes @ 0x0
  1637  0070                     	global	___wmul@multiplier
  1638                           ___wmul@multiplier:	; 2 bytes @ 0x0
  1639  0070                     	global	___lwdiv@divisor
  1640                           ___lwdiv@divisor:	; 2 bytes @ 0x0
  1641  0070                     	global	___lldiv@divisor
  1642                           ___lldiv@divisor:	; 4 bytes @ 0x0
  1643  0070                     	ds	1
  1644  0070                     ??___bmul:	; 1 bytes @ 0x1
  1645  0071                     	global	LCD_CHAR@a
  1646                           LCD_CHAR@a:	; 1 bytes @ 0x1
  1647  0071                     	global	BCD2UpperCh@bcd
  1648                           BCD2UpperCh@bcd:	; 1 bytes @ 0x1
  1649  0071                     	global	isdigit@c
  1650                           isdigit@c:	; 1 bytes @ 0x1
  1651  0071                     	ds	1
  1652  0071                     ??_delay:	; 1 bytes @ 0x2
  1653  0072                     ??_mandar:	; 1 bytes @ 0x2
  1654  0072                     ??_I2C_Master_Write:	; 1 bytes @ 0x2
  1655  0072                     ??_I2C_Master_Read:	; 1 bytes @ 0x2
  1656  0072                     ??_LCD_DATO:	; 1 bytes @ 0x2
  1657  0072                     ?_LCD_STRING:	; 1 bytes @ 0x2
  1658  0072                     	global	___bmul@product
  1659                           ___bmul@product:	; 1 bytes @ 0x2
  1660  0072                     	global	delay@j
  1661                           delay@j:	; 2 bytes @ 0x2
  1662  0072                     	global	LCD_STRING@a
  1663                           LCD_STRING@a:	; 2 bytes @ 0x2
  1664  0072                     	global	servo0@i
  1665                           servo0@i:	; 2 bytes @ 0x2
  1666  0072                     	global	servo180@i
  1667                           servo180@i:	; 2 bytes @ 0x2
  1668  0072                     	global	___wmul@multiplicand
  1669                           ___wmul@multiplicand:	; 2 bytes @ 0x2
  1670  0072                     	global	___lwdiv@dividend
  1671                           ___lwdiv@dividend:	; 2 bytes @ 0x2
  1672  0072                     	ds	1
  1673  0072                     	global	___bmul@multiplier
  1674                           ___bmul@multiplier:	; 1 bytes @ 0x3
  1675  0073                     	ds	1
  1676  0073                     ?_LCD_CURSOR:	; 1 bytes @ 0x4
  1677  0074                     ??_LCD_STRING:	; 1 bytes @ 0x4
  1678  0074                     ??___wmul:	; 1 bytes @ 0x4
  1679  0074                     ??___lwdiv:	; 1 bytes @ 0x4
  1680  0074                     	global	I2C_Master_Read@temp
  1681                           I2C_Master_Read@temp:	; 2 bytes @ 0x4
  1682  0074                     	global	delay@i
  1683                           delay@i:	; 2 bytes @ 0x4
  1684  0074                     	global	LCD_CURSOR@a
  1685                           LCD_CURSOR@a:	; 2 bytes @ 0x4
  1686  0074                     	global	___wmul@product
  1687                           ___wmul@product:	; 2 bytes @ 0x4
  1688  0074                     	global	___lldiv@dividend
  1689                           ___lldiv@dividend:	; 4 bytes @ 0x4
  1690  0074                     	ds	1
  1691  0074                     	global	___lwdiv@quotient
  1692                           ___lwdiv@quotient:	; 2 bytes @ 0x5
  1693  0075                     	ds	1
  1694  0075                     ??_lcd_lat:	; 1 bytes @ 0x6
  1695  0076                     ??_lcd_ready:	; 1 bytes @ 0x6
  1696  0076                     	global	?_atoi
  1697                           ?_atoi:	; 2 bytes @ 0x6
  1698  0076                     	global	?_read_ds1307
  1699                           ?_read_ds1307:	; 2 bytes @ 0x6
  1700  0076                     	global	LCD_CURSOR@b
  1701                           LCD_CURSOR@b:	; 2 bytes @ 0x6
  1702  0076                     	global	read_ds1307@address
  1703                           read_ds1307@address:	; 2 bytes @ 0x6
  1704  0076                     	ds	1
  1705  0076                     ??_lcd_cmd:	; 1 bytes @ 0x7
  1706  0077                     	global	lcd_cmd@x
  1707                           lcd_cmd@x:	; 1 bytes @ 0x7
  1708  0077                     	global	___lwdiv@counter
  1709                           ___lwdiv@counter:	; 1 bytes @ 0x7
  1710  0077                     	global	LCD_STRING@n
  1711                           LCD_STRING@n:	; 2 bytes @ 0x7
  1712  0077                     	ds	1
  1713  0077                     ??_atoi:	; 1 bytes @ 0x8
  1714  0078                     ??_lcd_init:	; 1 bytes @ 0x8
  1715  0078                     ??_LCD_CURSOR:	; 1 bytes @ 0x8
  1716  0078                     ??_read_ds1307:	; 1 bytes @ 0x8
  1717  0078                     ??___lldiv:	; 1 bytes @ 0x8
  1718  0078                     	global	?___lwmod
  1719                           ?___lwmod:	; 2 bytes @ 0x8
  1720  0078                     	global	LCD_CURSOR@d
  1721                           LCD_CURSOR@d:	; 2 bytes @ 0x8
  1722  0078                     	global	read_ds1307@r_data
  1723                           read_ds1307@r_data:	; 2 bytes @ 0x8
  1724  0078                     	global	___lwmod@divisor
  1725                           ___lwmod@divisor:	; 2 bytes @ 0x8
  1726  0078                     	ds	1
  1727  0078                     	global	___lldiv@quotient
  1728                           ___lldiv@quotient:	; 4 bytes @ 0x9
  1729  0079                     	ds	1
  1730  0079                     	global	atoi@sign
  1731                           atoi@sign:	; 1 bytes @ 0xA
  1732  007A                     	global	___lwmod@dividend
  1733                           ___lwmod@dividend:	; 2 bytes @ 0xA
  1734  007A                     	ds	1
  1735  007A                     	global	atoi@a
  1736                           atoi@a:	; 2 bytes @ 0xB
  1737  007B                     	ds	1
  1738  007B                     ??___lwmod:	; 1 bytes @ 0xC
  1739  007C                     	ds	1
  1740  007C                     	global	___lldiv@counter
  1741                           ___lldiv@counter:	; 1 bytes @ 0xD
  1742  007D                     	global	___lwmod@counter
  1743                           ___lwmod@counter:	; 1 bytes @ 0xD
  1744  007D                     	global	atoi@s
  1745                           atoi@s:	; 1 bytes @ 0xD
  1746  007D                     	ds	1
  1747  007D                     psect	cstackBANK0,class=BANK0,space=1,noexec
  1748                           global __pcstackBANK0
  1749                           __pcstackBANK0:
  1750  0049                     ?_I2C_Master_Init:	; 1 bytes @ 0x0
  1751  0049                     	global	?_sprintf
  1752                           ?_sprintf:	; 2 bytes @ 0x0
  1753  0049                     	global	sprintf@f
  1754                           sprintf@f:	; 1 bytes @ 0x0
  1755  0049                     	global	I2C_Master_Init@c
  1756                           I2C_Master_Init@c:	; 4 bytes @ 0x0
  1757  0049                     	ds	4
  1758  0049                     ??_I2C_Master_Init:	; 1 bytes @ 0x4
  1759  004D                     	ds	7
  1760  004D                     ??_sprintf:	; 1 bytes @ 0xB
  1761  0054                     	ds	3
  1762  0054                     	global	sprintf@ap
  1763                           sprintf@ap:	; 1 bytes @ 0xE
  1764  0057                     	ds	1
  1765  0057                     	global	sprintf@flag
  1766                           sprintf@flag:	; 1 bytes @ 0xF
  1767  0058                     	ds	1
  1768  0058                     	global	sprintf@sp
  1769                           sprintf@sp:	; 1 bytes @ 0x10
  1770  0059                     	ds	1
  1771  0059                     	global	sprintf@val
  1772                           sprintf@val:	; 2 bytes @ 0x11
  1773  005A                     	ds	2
  1774  005A                     	global	sprintf@prec
  1775                           sprintf@prec:	; 1 bytes @ 0x13
  1776  005C                     	ds	1
  1777  005C                     	global	sprintf@c
  1778                           sprintf@c:	; 1 bytes @ 0x14
  1779  005D                     	ds	1
  1780  005D                     ??_main:	; 1 bytes @ 0x15
  1781  005E                     	ds	2
  1782  005E                     ;!
  1783                           ;!Data Sizes:
  1784                           ;!    Strings     53
  1785                           ;!    Constant    10
  1786                           ;!    Data        54
  1787                           ;!    BSS         57
  1788                           ;!    Persistent  0
  1789                           ;!    Stack       0
  1790                           ;!
  1791                           ;!Auto Spaces:
  1792                           ;!    Space          Size  Autos    Used
  1793                           ;!    COMMON           14     14      14
  1794                           ;!    BANK0            80     23      76
  1795                           ;!    BANK1            80      0      58
  1796                           ;!    BANK3            96      0       0
  1797                           ;!    BANK2            96      0       0
  1798                           
  1799                           ;!
  1800                           ;!Pointer List with Targets:
  1801                           ;!
  1802                           ;!    atoi@s	PTR const unsigned char  size(1) Largest target is 1
  1803                           ;!		 -> valorf(BANK0[1]), 
  1804                           ;!
  1805                           ;!    sprintf@f	PTR const unsigned char  size(1) Largest target is 25
  1806                           ;!		 -> STR_3(CODE[25]), 
  1807                           ;!
  1808                           ;!    sprintf@sp	PTR unsigned char  size(1) Largest target is 16
  1809                           ;!		 -> valor(BANK1[16]), 
  1810                           ;!
  1811                           ;!    sprintf@ap	PTR void [1] size(1) Largest target is 2
  1812                           ;!		 -> ?_sprintf(BANK0[2]), 
  1813                           ;!
  1814                           ;!    LCD_STRING@a	PTR unsigned char  size(2) Largest target is 16
  1815                           ;!		 -> valor(BANK1[16]), time(BANK0[12]), STR_2(CODE[16]), STR_1(CODE[12]), 
  1816                           ;!
  1817                           
  1818                           
  1819                           ;!
  1820                           ;!Critical Paths under _main in COMMON
  1821                           ;!
  1822                           ;!    _main->_atoi
  1823                           ;!    _sprintf->___lwmod
  1824                           ;!    ___lwmod->___lwdiv
  1825                           ;!    _read_ds1307->_I2C_Master_Read
  1826                           ;!    _lcd_init->_lcd_cmd
  1827                           ;!    _lcd_cmd->_lcd_ready
  1828                           ;!    _lcd_ready->_delay
  1829                           ;!    _lcd_lat->_delay
  1830                           ;!    _atoi->___wmul
  1831                           ;!    _LCD_STRING->_LCD_CHAR
  1832                           ;!    _LCD_CURSOR->_LCD_DATO
  1833                           ;!    _I2C_Master_Init->___lldiv
  1834                           ;!
  1835                           ;!Critical Paths under _main in BANK0
  1836                           ;!
  1837                           ;!    _main->_sprintf
  1838                           ;!
  1839                           ;!Critical Paths under _main in BANK1
  1840                           ;!
  1841                           ;!    None.
  1842                           ;!
  1843                           ;!Critical Paths under _main in BANK3
  1844                           ;!
  1845                           ;!    None.
  1846                           ;!
  1847                           ;!Critical Paths under _main in BANK2
  1848                           ;!
  1849                           ;!    None.
  1850                           
  1851 ;;
  1852 ;;Main: autosize = 0, tempsize = 2, incstack = 0, save=0
  1853 ;;
  1854                           
  1855                           ;!
  1856                           ;!Call Graph Tables:
  1857                           ;!
  1858                           ;! ---------------------------------------------------------------------------------
  1859                           ;! (Depth) Function   	        Calls       Base Space   Used Autos Params    Refs
  1860                           ;! ---------------------------------------------------------------------------------
  1861                           ;! (0) _main                                                 2     2      0   10370
  1862                           ;!                                             21 BANK0      2     2      0
  1863                           ;!                        _BCD2LowerCh
  1864                           ;!                        _BCD2UpperCh
  1865                           ;!                    _I2C_Master_Init
  1866                           ;!                    _I2C_Master_Read
  1867                           ;!                   _I2C_Master_Start
  1868                           ;!                    _I2C_Master_Stop
  1869                           ;!                   _I2C_Master_Write
  1870                           ;!                         _LCD_CURSOR
  1871                           ;!                           _LCD_DATO
  1872                           ;!                         _LCD_STRING
  1873                           ;!                               _atoi
  1874                           ;!                             _config
  1875                           ;!                              _delay
  1876                           ;!                           _lcd_init
  1877                           ;!                             _mandar
  1878                           ;!                        _read_ds1307
  1879                           ;!                             _servo0
  1880                           ;!                           _servo180
  1881                           ;!                            _sprintf
  1882                           ;! ---------------------------------------------------------------------------------
  1883                           ;! (1) _sprintf                                             29    18     11    1696
  1884                           ;!                                              0 BANK0     21    10     11
  1885                           ;!                             ___bmul
  1886                           ;!                            ___lwdiv
  1887                           ;!                            ___lwmod
  1888                           ;!                            _isdigit
  1889                           ;! ---------------------------------------------------------------------------------
  1890                           ;! (2) ___lwmod                                              6     2      4     311
  1891                           ;!                                              8 COMMON     6     2      4
  1892                           ;!                            ___lwdiv (ARG)
  1893                           ;! ---------------------------------------------------------------------------------
  1894                           ;! (2) ___lwdiv                                              8     4      4     314
  1895                           ;!                                              0 COMMON     8     4      4
  1896                           ;! ---------------------------------------------------------------------------------
  1897                           ;! (2) ___bmul                                               4     3      1     168
  1898                           ;!                                              0 COMMON     4     3      1
  1899                           ;! ---------------------------------------------------------------------------------
  1900                           ;! (1) _servo180                                             4     4      0      46
  1901                           ;!                                              0 COMMON     4     4      0
  1902                           ;! ---------------------------------------------------------------------------------
  1903                           ;! (1) _servo0                                               4     4      0      46
  1904                           ;!                                              0 COMMON     4     4      0
  1905                           ;! ---------------------------------------------------------------------------------
  1906                           ;! (1) _read_ds1307                                          4     2      2    2392
  1907                           ;!                                              6 COMMON     4     2      2
  1908                           ;!                    _I2C_Master_Read
  1909                           ;!           _I2C_Master_RepeatedStart
  1910                           ;!                   _I2C_Master_Start
  1911                           ;!                    _I2C_Master_Stop
  1912                           ;!                   _I2C_Master_Write
  1913                           ;! ---------------------------------------------------------------------------------
  1914                           ;! (2) _I2C_Master_Write                                     2     0      2    1466
  1915                           ;!                                              0 COMMON     2     0      2
  1916                           ;!                    _I2C_Master_Wait
  1917                           ;! ---------------------------------------------------------------------------------
  1918                           ;! (2) _I2C_Master_Stop                                      0     0      0       0
  1919                           ;!                    _I2C_Master_Wait
  1920                           ;! ---------------------------------------------------------------------------------
  1921                           ;! (2) _I2C_Master_Start                                     0     0      0       0
  1922                           ;!                    _I2C_Master_Wait
  1923                           ;! ---------------------------------------------------------------------------------
  1924                           ;! (2) _I2C_Master_RepeatedStart                             0     0      0       0
  1925                           ;!                    _I2C_Master_Wait
  1926                           ;! ---------------------------------------------------------------------------------
  1927                           ;! (2) _I2C_Master_Read                                      6     4      2     349
  1928                           ;!                                              0 COMMON     6     4      2
  1929                           ;!                    _I2C_Master_Wait
  1930                           ;! ---------------------------------------------------------------------------------
  1931                           ;! (3) _I2C_Master_Wait                                      0     0      0       0
  1932                           ;! ---------------------------------------------------------------------------------
  1933                           ;! (1) _mandar                                               2     0      2     478
  1934                           ;!                                              0 COMMON     2     0      2
  1935                           ;! ---------------------------------------------------------------------------------
  1936                           ;! (1) _lcd_init                                             0     0      0     814
  1937                           ;!                            _lcd_cmd
  1938                           ;! ---------------------------------------------------------------------------------
  1939                           ;! (2) _lcd_cmd                                              1     1      0     814
  1940                           ;!                                              7 COMMON     1     1      0
  1941                           ;!                            _lcd_lat
  1942                           ;!                          _lcd_ready
  1943                           ;! ---------------------------------------------------------------------------------
  1944                           ;! (3) _lcd_ready                                            1     1      0     396
  1945                           ;!                                              6 COMMON     1     1      0
  1946                           ;!                              _delay
  1947                           ;! ---------------------------------------------------------------------------------
  1948                           ;! (3) _lcd_lat                                              0     0      0     396
  1949                           ;!                              _delay
  1950                           ;! ---------------------------------------------------------------------------------
  1951                           ;! (4) _delay                                                6     4      2     396
  1952                           ;!                                              0 COMMON     6     4      2
  1953                           ;! ---------------------------------------------------------------------------------
  1954                           ;! (1) _config                                               0     0      0       0
  1955                           ;! ---------------------------------------------------------------------------------
  1956                           ;! (1) _atoi                                                 8     6      2     725
  1957                           ;!                                              6 COMMON     8     6      2
  1958                           ;!                             ___wmul
  1959                           ;!                            _isdigit
  1960                           ;! ---------------------------------------------------------------------------------
  1961                           ;! (2) _isdigit                                              2     2      0      68
  1962                           ;!                                              0 COMMON     2     2      0
  1963                           ;! ---------------------------------------------------------------------------------
  1964                           ;! (2) ___wmul                                               6     2      4     396
  1965                           ;!                                              0 COMMON     6     2      4
  1966                           ;! ---------------------------------------------------------------------------------
  1967                           ;! (1) _LCD_STRING                                           7     5      2     416
  1968                           ;!                                              2 COMMON     7     5      2
  1969                           ;!                           _LCD_CHAR
  1970                           ;! ---------------------------------------------------------------------------------
  1971                           ;! (2) _LCD_CHAR                                             2     2      0      22
  1972                           ;!                                              0 COMMON     2     2      0
  1973                           ;! ---------------------------------------------------------------------------------
  1974                           ;! (1) _LCD_CURSOR                                           6     2      4     764
  1975                           ;!                                              4 COMMON     6     2      4
  1976                           ;!                           _LCD_DATO
  1977                           ;! ---------------------------------------------------------------------------------
  1978                           ;! (1) _LCD_DATO                                             4     2      2     326
  1979                           ;!                                              0 COMMON     4     2      2
  1980                           ;! ---------------------------------------------------------------------------------
  1981                           ;! (1) _I2C_Master_Init                                      8     4      4     412
  1982                           ;!                                              0 BANK0      8     4      4
  1983                           ;!                            ___lldiv
  1984                           ;! ---------------------------------------------------------------------------------
  1985                           ;! (2) ___lldiv                                             14     6      8     314
  1986                           ;!                                              0 COMMON    14     6      8
  1987                           ;! ---------------------------------------------------------------------------------
  1988                           ;! (1) _BCD2UpperCh                                          2     2      0      22
  1989                           ;!                                              0 COMMON     2     2      0
  1990                           ;! ---------------------------------------------------------------------------------
  1991                           ;! (1) _BCD2LowerCh                                          1     1      0      22
  1992                           ;!                                              0 COMMON     1     1      0
  1993                           ;! ---------------------------------------------------------------------------------
  1994                           ;! Estimated maximum stack depth 4
  1995                           ;! ---------------------------------------------------------------------------------
  1996                           ;!
  1997                           ;! Call Graph Graphs:
  1998                           ;!
  1999                           ;! _main (ROOT)
  2000                           ;!   _BCD2LowerCh
  2001                           ;!   _BCD2UpperCh
  2002                           ;!   _I2C_Master_Init
  2003                           ;!     ___lldiv
  2004                           ;!   _I2C_Master_Read
  2005                           ;!     _I2C_Master_Wait
  2006                           ;!   _I2C_Master_Start
  2007                           ;!     _I2C_Master_Wait
  2008                           ;!   _I2C_Master_Stop
  2009                           ;!     _I2C_Master_Wait
  2010                           ;!   _I2C_Master_Write
  2011                           ;!     _I2C_Master_Wait
  2012                           ;!   _LCD_CURSOR
  2013                           ;!     _LCD_DATO
  2014                           ;!   _LCD_DATO
  2015                           ;!   _LCD_STRING
  2016                           ;!     _LCD_CHAR
  2017                           ;!   _atoi
  2018                           ;!     ___wmul
  2019                           ;!     _isdigit
  2020                           ;!   _config
  2021                           ;!   _delay
  2022                           ;!   _lcd_init
  2023                           ;!     _lcd_cmd
  2024                           ;!       _lcd_lat
  2025                           ;!         _delay
  2026                           ;!       _lcd_ready
  2027                           ;!         _delay
  2028                           ;!   _mandar
  2029                           ;!   _read_ds1307
  2030                           ;!     _I2C_Master_Read
  2031                           ;!       _I2C_Master_Wait
  2032                           ;!     _I2C_Master_RepeatedStart
  2033                           ;!       _I2C_Master_Wait
  2034                           ;!     _I2C_Master_Start
  2035                           ;!       _I2C_Master_Wait
  2036                           ;!     _I2C_Master_Stop
  2037                           ;!       _I2C_Master_Wait
  2038                           ;!     _I2C_Master_Write
  2039                           ;!       _I2C_Master_Wait
  2040                           ;!   _servo0
  2041                           ;!   _servo180
  2042                           ;!   _sprintf
  2043                           ;!     ___bmul
  2044                           ;!     ___lwdiv
  2045                           ;!     ___lwmod
  2046                           ;!       ___lwdiv (ARG)
  2047                           ;!     _isdigit
  2048                           ;!
  2049                           
  2050                           ;! Address spaces:
  2051                           
  2052                           ;!Name               Size   Autos  Total    Cost      Usage
  2053                           ;!BANK3               60      0       0       9        0.0%
  2054                           ;!BITBANK3            60      0       0       8        0.0%
  2055                           ;!SFR3                 0      0       0       4        0.0%
  2056                           ;!BITSFR3              0      0       0       4        0.0%
  2057                           ;!BANK2               60      0       0      11        0.0%
  2058                           ;!BITBANK2            60      0       0      10        0.0%
  2059                           ;!SFR2                 0      0       0       5        0.0%
  2060                           ;!BITSFR2              0      0       0       5        0.0%
  2061                           ;!BANK1               50      0      3A       7       72.5%
  2062                           ;!BITBANK1            50      0       0       6        0.0%
  2063                           ;!SFR1                 0      0       0       2        0.0%
  2064                           ;!BITSFR1              0      0       0       2        0.0%
  2065                           ;!BANK0               50     17      4C       5       95.0%
  2066                           ;!BITBANK0            50      0       0       4        0.0%
  2067                           ;!SFR0                 0      0       0       1        0.0%
  2068                           ;!BITSFR0              0      0       0       1        0.0%
  2069                           ;!COMMON               E      E       E       1      100.0%
  2070                           ;!BITCOMMON            E      0       0       0        0.0%
  2071                           ;!CODE                 0      0       0       0        0.0%
  2072                           ;!DATA                 0      0      94      12        0.0%
  2073                           ;!ABS                  0      0      94       3        0.0%
  2074                           ;!NULL                 0      0       0       0        0.0%
  2075                           ;!STACK                0      0       0       2        0.0%
  2076                           ;!EEDATA             100      0       0       0        0.0%
  2077                           
  2078                           	global	_main
  2079                           
  2080 ;; *************** function _main *****************
  2081 ;; Defined at:
  2082 ;;		line 77 in file "Pri-Master.c"
  2083 ;; Parameters:    Size  Location     Type
  2084 ;;		None
  2085 ;; Auto vars:     Size  Location     Type
  2086 ;;		None
  2087 ;; Return value:  Size  Location     Type
  2088 ;;                  1    wreg      void 
  2089 ;; Registers used:
  2090 ;;		wreg, fsr0l, fsr0h, status,2, status,0, btemp+1, pclath, cstack
  2091 ;; Tracked objects:
  2092 ;;		On entry : B00/0
  2093 ;;		On exit  : 0/0
  2094 ;;		Unchanged: 0/0
  2095 ;; Data sizes:     COMMON   BANK0   BANK1   BANK3   BANK2
  2096 ;;      Params:         0       0       0       0       0
  2097 ;;      Locals:         0       0       0       0       0
  2098 ;;      Temps:          0       2       0       0       0
  2099 ;;      Totals:         0       2       0       0       0
  2100 ;;Total ram usage:        2 bytes
  2101 ;; Hardware stack levels required when called:    4
  2102 ;; This function calls:
  2103 ;;		_BCD2LowerCh
  2104 ;;		_BCD2UpperCh
  2105 ;;		_I2C_Master_Init
  2106 ;;		_I2C_Master_Read
  2107 ;;		_I2C_Master_Start
  2108 ;;		_I2C_Master_Stop
  2109 ;;		_I2C_Master_Write
  2110 ;;		_LCD_CURSOR
  2111 ;;		_LCD_DATO
  2112 ;;		_LCD_STRING
  2113 ;;		_atoi
  2114 ;;		_config
  2115 ;;		_delay
  2116 ;;		_lcd_init
  2117 ;;		_mandar
  2118 ;;		_read_ds1307
  2119 ;;		_servo0
  2120 ;;		_servo180
  2121 ;;		_sprintf
  2122 ;; This function is called by:
  2123 ;;		Startup code after reset
  2124 ;; This function uses a non-reentrant model
  2125 ;;
  2126                           psect	maintext,global,class=CODE,delta=2,split=1,group=0
  2127                           	file	"Pri-Master.c"
  2128                           	line	77
  2129                           global __pmaintext
  2130                           __pmaintext:	;psect for function _main
  2131  0455                     psect	maintext
  2132                           	file	"Pri-Master.c"
  2133                           	line	77
  2134                           	global	__size_of_main
  2135                           	__size_of_main	equ	__end_of_main-_main
  2136  037C                     	
  2137                           _main:	
  2138  0455                     ;incstack = 0
  2139                           	opt	stack 4
  2140                           ; Regs used in _main: [wreg-fsr0h+status,2+status,0+btemp+1+pclath+cstack]
  2141                           	line	78
  2142                           	
  2143                           l2373:	
  2144  0455                     ;Pri-Master.c: 78: 
  2145                           	bsf	status, 5	;RP0=1, select bank1
  2146  0455  1683               	bcf	status, 6	;RP1=0, select bank1
  2147  0456  1303               	clrf	(136)^080h	;volatile
  2148  0457  0188               	line	79
  2149                           ;Pri-Master.c: 79: 
  2150                           	clrf	(134)^080h	;volatile
  2151  0458  0186               	line	80
  2152                           ;Pri-Master.c: 80:         I2C_Master_Start();
  2153                           	clrf	(133)^080h	;volatile
  2154  0459  0185               	line	81
  2155                           	
  2156                           l2375:	
  2157  045A                     ;Pri-Master.c: 81:         I2C_Master_Write(0x71);
  2158                           	bsf	(135)^080h,0	;volatile
  2159  045A  1407               	line	82
  2160                           ;Pri-Master.c: 82:         valor3 = I2C_Master_Read(0);
  2161                           	bsf	status, 5	;RP0=1, select bank3
  2162  045B  1683               	bsf	status, 6	;RP1=1, select bank3
  2163  045C  1703               	clrf	(392)^0180h	;volatile
  2164  045D  0188               	line	83
  2165                           ;Pri-Master.c: 83:         I2C_Master_Stop();
  2166                           	clrf	(393)^0180h	;volatile
  2167  045E  0189               	line	84
  2168                           ;Pri-Master.c: 84:         _delay((unsigned long)((20)*(4000000/4000.0)));
  2169                           	bcf	status, 5	;RP0=0, select bank0
  2170  045F  1283               	bcf	status, 6	;RP1=0, select bank0
  2171  0460  1303               	clrf	(6)	;volatile
  2172  0461  0186               	line	85
  2173                           ;Pri-Master.c: 85: 
  2174                           	clrf	(5)	;volatile
  2175  0462  0185               	line	86
  2176                           ;Pri-Master.c: 86: 
  2177                           	clrf	(8)	;volatile
  2178  0463  0188               	line	87
  2179                           	
  2180                           l2377:	
  2181  0464                     ;Pri-Master.c: 87:         second = read_ds1307(0);
  2182                           	bsf	(5),2	;volatile
  2183  0464  1505               	line	88
  2184                           	
  2185                           l2379:	
  2186  0465                     ;Pri-Master.c: 88:         minute = read_ds1307(1);
  2187                           	movlw	0
  2188  0465  3000               	movwf	(I2C_Master_Init@c+3)
  2189  0466  00CC               	movlw	01h
  2190  0467  3001               	movwf	(I2C_Master_Init@c+2)
  2191  0468  00CB               	movlw	086h
  2192  0469  3086               	movwf	(I2C_Master_Init@c+1)
  2193  046A  00CA               	movlw	0A0h
  2194  046B  30A0               	movwf	(I2C_Master_Init@c)
  2195  046C  00C9               
  2196                           	fcall	_I2C_Master_Init
  2197  046D  120A  118A  2094  120A  118A  	line	89
  2198                           	
  2199                           l2381:	
  2200  0472                     ;Pri-Master.c: 89:         hour = read_ds1307(2);
  2201                           	fcall	_config
  2202  0472  120A  158A  2649  120A  118A  	line	90
  2203                           	
  2204                           l2383:	
  2205  0477                     ;Pri-Master.c: 90:         hr = hour & 0b00011111;
  2206                           	fcall	_lcd_init
  2207  0477  120A  158A  2676  120A  118A  	line	91
  2208                           	
  2209                           l2385:	
  2210  047C                     ;Pri-Master.c: 91:         ap = hour & 0b00100000;
  2211                           	movlw	(low((((STR_1)-__stringbase)|8000h)))&0ffh
  2212  047C  3034               	movwf	(LCD_STRING@a)
  2213  047D  00F2               	movlw	80h
  2214  047E  3080               	movwf	(LCD_STRING@a+1)
  2215  047F  00F3               	fcall	_LCD_STRING
  2216  0480  120A  118A  2149  120A  118A  	line	92
  2217                           	
  2218                           l2387:	
  2219  0485                     ;Pri-Master.c: 92:         day = read_ds1307(3);
  2220                           	movlw	0C0h
  2221  0485  30C0               	movwf	(LCD_DATO@var)
  2222  0486  00F0               	movlw	0
  2223  0487  3000               	movwf	((LCD_DATO@var))+1
  2224  0488  00F1               	fcall	_LCD_DATO
  2225  0489  120A  158A  2695  120A  118A  	line	93
  2226                           	
  2227                           l2389:	
  2228  048E                     ;Pri-Master.c: 93:         day = read_ds1307(4);
  2229                           	movlw	(low((((STR_2)-__stringbase)|8000h)))&0ffh
  2230  048E  3024               	movwf	(LCD_STRING@a)
  2231  048F  00F2               	movlw	80h
  2232  0490  3080               	movwf	(LCD_STRING@a+1)
  2233  0491  00F3               	fcall	_LCD_STRING
  2234  0492  120A  118A  2149  120A  118A  	line	94
  2235                           	
  2236                           l2391:	
  2237  0497                     ;Pri-Master.c: 94:         month = read_ds1307(5);
  2238                           	movlw	0F4h
  2239  0497  30F4               	movwf	(delay@ms)
  2240  0498  00F0               	movlw	01h
  2241  0499  3001               	movwf	((delay@ms))+1
  2242  049A  00F1               	fcall	_delay
  2243  049B  120A  158A  2767  120A  118A  	line	95
  2244                           	
  2245                           l2393:	
  2246  04A0                     ;Pri-Master.c: 95:         year = read_ds1307(6);
  2247                           	movlw	01h
  2248  04A0  3001               	movwf	(LCD_DATO@var)
  2249  04A1  00F0               	movlw	0
  2250  04A2  3000               	movwf	((LCD_DATO@var))+1
  2251  04A3  00F1               	fcall	_LCD_DATO
  2252  04A4  120A  158A  2695  120A  118A  	goto	l2395
  2253  04A9  2CAA               	line	96
  2254                           ;Pri-Master.c: 96:         time[0] = BCD2UpperCh(hr);
  2255                           	
  2256                           l372:	
  2257  04AA                     	line	99
  2258                           	
  2259                           l2395:	
  2260  04AA                     ;Pri-Master.c: 97:         time[1] = BCD2LowerCh(hr);;Pri-Master.c: 99:         time[4] 
                                 = BCD2LowerCh(minute);
  2261                           	fcall	_I2C_Master_Start
  2262  04AA  120A  158A  25AD  120A  118A  	line	100
  2263                           	
  2264                           l2397:	
  2265  04AF                     ;Pri-Master.c: 100:         time[6] = BCD2UpperCh(second);
  2266                           	movlw	051h
  2267  04AF  3051               	movwf	(I2C_Master_Write@d)
  2268  04B0  00F0               	movlw	0
  2269  04B1  3000               	movwf	((I2C_Master_Write@d))+1
  2270  04B2  00F1               	fcall	_I2C_Master_Write
  2271  04B3  120A  158A  25BF  120A  118A  	line	101
  2272                           	
  2273                           l2399:	
  2274  04B8                     ;Pri-Master.c: 101:         time[7] = BCD2LowerCh(second);
  2275                           	movlw	0
  2276  04B8  3000               	movwf	(I2C_Master_Read@a)
  2277  04B9  00F0               	movwf	(I2C_Master_Read@a+1)
  2278  04BA  00F1               	fcall	_I2C_Master_Read
  2279  04BB  120A  158A  2738  120A  118A  	movf	(1+(?_I2C_Master_Read)),w
  2280  04C0  0871               	bcf	status, 5	;RP0=0, select bank0
  2281  04C1  1283               	bcf	status, 6	;RP1=0, select bank0
  2282  04C2  1303               	movwf	(_valor1+1)
  2283  04C3  00C5               	movf	(0+(?_I2C_Master_Read)),w
  2284  04C4  0870               	movwf	(_valor1)
  2285  04C5  00C4               	line	102
  2286                           	
  2287                           l2401:	
  2288  04C6                     ;Pri-Master.c: 102:         date[0] = BCD2UpperCh(day);
  2289                           	fcall	_I2C_Master_Stop
  2290  04C6  120A  158A  25B6  120A  118A  	line	103
  2291                           	
  2292                           l2403:	
  2293  04CB                     ;Pri-Master.c: 103:         date[1] = BCD2LowerCh(day);
  2294                           	opt asmopt_push
  2295                           opt asmopt_off
  2296                           movlw	26
  2297  04CB  301A               	bcf	status, 5	;RP0=0, select bank0
  2298  04CC  1283               	bcf	status, 6	;RP1=0, select bank0
  2299  04CD  1303               movwf	((??_main+0)+0+1),f
  2300  04CE  00DF               	movlw	247
  2301  04CF  30F7               movwf	((??_main+0)+0),f
  2302  04D0  00DE               	u1807:
  2303  04D1                     decfsz	((??_main+0)+0),f
  2304  04D1  0BDE               	goto	u1807
  2305  04D2  2CD1               	decfsz	((??_main+0)+0+1),f
  2306  04D3  0BDF               	goto	u1807
  2307  04D4  2CD1               	nop2
  2308  04D5  2CD6               opt asmopt_pop
  2309                           
  2310                           	line	105
  2311                           	
  2312                           l2405:	
  2313  04D6                     ;Pri-Master.c: 105:         date[4] = BCD2LowerCh(month);
  2314                           	fcall	_I2C_Master_Start
  2315  04D6  120A  158A  25AD  120A  118A  	line	106
  2316                           	
  2317                           l2407:	
  2318  04DB                     ;Pri-Master.c: 106:         date[6] = BCD2UpperCh(year);
  2319                           	movlw	061h
  2320  04DB  3061               	movwf	(I2C_Master_Write@d)
  2321  04DC  00F0               	movlw	0
  2322  04DD  3000               	movwf	((I2C_Master_Write@d))+1
  2323  04DE  00F1               	fcall	_I2C_Master_Write
  2324  04DF  120A  158A  25BF  120A  118A  	line	107
  2325                           	
  2326                           l2409:	
  2327  04E4                     ;Pri-Master.c: 107:         date[7] = BCD2LowerCh(year);
  2328                           	movlw	0
  2329  04E4  3000               	movwf	(I2C_Master_Read@a)
  2330  04E5  00F0               	movwf	(I2C_Master_Read@a+1)
  2331  04E6  00F1               	fcall	_I2C_Master_Read
  2332  04E7  120A  158A  2738  120A  118A  	movf	(1+(?_I2C_Master_Read)),w
  2333  04EC  0871               	bcf	status, 5	;RP0=0, select bank0
  2334  04ED  1283               	bcf	status, 6	;RP1=0, select bank0
  2335  04EE  1303               	movwf	(_valor2+1)
  2336  04EF  00C3               	movf	(0+(?_I2C_Master_Read)),w
  2337  04F0  0870               	movwf	(_valor2)
  2338  04F1  00C2               	line	108
  2339                           	
  2340                           l2411:	
  2341  04F2                     ;Pri-Master.c: 108:         valorf[1] = BCD2LowerCh(second);
  2342                           	fcall	_I2C_Master_Stop
  2343  04F2  120A  158A  25B6  120A  118A  	line	109
  2344                           	
  2345                           l2413:	
  2346  04F7                     ;Pri-Master.c: 109:         valorf[0] = BCD2UpperCh(second);
  2347                           	opt asmopt_push
  2348                           opt asmopt_off
  2349                           movlw	26
  2350  04F7  301A               	bcf	status, 5	;RP0=0, select bank0
  2351  04F8  1283               	bcf	status, 6	;RP1=0, select bank0
  2352  04F9  1303               movwf	((??_main+0)+0+1),f
  2353  04FA  00DF               	movlw	247
  2354  04FB  30F7               movwf	((??_main+0)+0),f
  2355  04FC  00DE               	u1817:
  2356  04FD                     decfsz	((??_main+0)+0),f
  2357  04FD  0BDE               	goto	u1817
  2358  04FE  2CFD               	decfsz	((??_main+0)+0+1),f
  2359  04FF  0BDF               	goto	u1817
  2360  0500  2CFD               	nop2
  2361  0501  2D02               opt asmopt_pop
  2362                           
  2363                           	line	112
  2364                           	
  2365                           l2415:	
  2366  0502                     ;Pri-Master.c: 112:         {
  2367                           	fcall	_I2C_Master_Start
  2368  0502  120A  158A  25AD  120A  118A  	line	113
  2369                           	
  2370                           l2417:	
  2371  0507                     ;Pri-Master.c: 113:           time[9] = 'P';
  2372                           	movlw	071h
  2373  0507  3071               	movwf	(I2C_Master_Write@d)
  2374  0508  00F0               	movlw	0
  2375  0509  3000               	movwf	((I2C_Master_Write@d))+1
  2376  050A  00F1               	fcall	_I2C_Master_Write
  2377  050B  120A  158A  25BF  120A  118A  	line	114
  2378                           	
  2379                           l2419:	
  2380  0510                     ;Pri-Master.c: 114:           time[10] = 'M';
  2381                           	movlw	0
  2382  0510  3000               	movwf	(I2C_Master_Read@a)
  2383  0511  00F0               	movwf	(I2C_Master_Read@a+1)
  2384  0512  00F1               	fcall	_I2C_Master_Read
  2385  0513  120A  158A  2738  120A  118A  	movf	(1+(?_I2C_Master_Read)),w
  2386  0518  0871               	bcf	status, 5	;RP0=0, select bank0
  2387  0519  1283               	bcf	status, 6	;RP1=0, select bank0
  2388  051A  1303               	movwf	(_valor3+1)
  2389  051B  00C1               	movf	(0+(?_I2C_Master_Read)),w
  2390  051C  0870               	movwf	(_valor3)
  2391  051D  00C0               	line	115
  2392                           	
  2393                           l2421:	
  2394  051E                     ;Pri-Master.c: 115:         }
  2395                           	fcall	_I2C_Master_Stop
  2396  051E  120A  158A  25B6  120A  118A  	line	116
  2397                           	
  2398                           l2423:	
  2399  0523                     ;Pri-Master.c: 116:         else
  2400                           	opt asmopt_push
  2401                           opt asmopt_off
  2402                           movlw	26
  2403  0523  301A               	bcf	status, 5	;RP0=0, select bank0
  2404  0524  1283               	bcf	status, 6	;RP1=0, select bank0
  2405  0525  1303               movwf	((??_main+0)+0+1),f
  2406  0526  00DF               	movlw	247
  2407  0527  30F7               movwf	((??_main+0)+0),f
  2408  0528  00DE               	u1827:
  2409  0529                     decfsz	((??_main+0)+0),f
  2410  0529  0BDE               	goto	u1827
  2411  052A  2D29               	decfsz	((??_main+0)+0+1),f
  2412  052B  0BDF               	goto	u1827
  2413  052C  2D29               	nop2
  2414  052D  2D2E               opt asmopt_pop
  2415                           
  2416                           	line	119
  2417                           	
  2418                           l2425:	
  2419  052E                     ;Pri-Master.c: 119:           time[10] = 'M';
  2420                           	movlw	0
  2421  052E  3000               	movwf	(read_ds1307@address)
  2422  052F  00F6               	movwf	(read_ds1307@address+1)
  2423  0530  00F7               	fcall	_read_ds1307
  2424  0531  120A  118A  20CC  120A  118A  	movf	(1+(?_read_ds1307)),w
  2425  0536  0877               	bcf	status, 5	;RP0=0, select bank0
  2426  0537  1283               	bcf	status, 6	;RP1=0, select bank0
  2427  0538  1303               	movwf	(_second+1)
  2428  0539  00B1               	movf	(0+(?_read_ds1307)),w
  2429  053A  0876               	movwf	(_second)
  2430  053B  00B0               	line	120
  2431                           	
  2432                           l2427:	
  2433  053C                     ;Pri-Master.c: 120:         }
  2434                           	movlw	01h
  2435  053C  3001               	movwf	(read_ds1307@address)
  2436  053D  00F6               	movlw	0
  2437  053E  3000               	movwf	((read_ds1307@address))+1
  2438  053F  00F7               	fcall	_read_ds1307
  2439  0540  120A  118A  20CC  120A  118A  	movf	(1+(?_read_ds1307)),w
  2440  0545  0877               	bcf	status, 5	;RP0=0, select bank0
  2441  0546  1283               	bcf	status, 6	;RP1=0, select bank0
  2442  0547  1303               	movwf	(_minute+1)
  2443  0548  00AF               	movf	(0+(?_read_ds1307)),w
  2444  0549  0876               	movwf	(_minute)
  2445  054A  00AE               	line	121
  2446                           	
  2447                           l2429:	
  2448  054B                     ;Pri-Master.c: 121:         sprintf(valor, "%.1d %.1d %.3d %.1d %.2d", valor1, valor3, v
                                 alor2, valor4, valor5);
  2449                           	movlw	02h
  2450  054B  3002               	movwf	(read_ds1307@address)
  2451  054C  00F6               	movlw	0
  2452  054D  3000               	movwf	((read_ds1307@address))+1
  2453  054E  00F7               	fcall	_read_ds1307
  2454  054F  120A  118A  20CC  120A  118A  	movf	(1+(?_read_ds1307)),w
  2455  0554  0877               	bcf	status, 5	;RP0=0, select bank0
  2456  0555  1283               	bcf	status, 6	;RP1=0, select bank0
  2457  0556  1303               	movwf	(_hour+1)
  2458  0557  00AD               	movf	(0+(?_read_ds1307)),w
  2459  0558  0876               	movwf	(_hour)
  2460  0559  00AC               	line	122
  2461                           	
  2462                           l2431:	
  2463  055A                     ;Pri-Master.c: 122:         LCD_CURSOR(2,1);
  2464                           	movlw	01Fh
  2465  055A  301F               	andwf	(_hour),w
  2466  055B  052C               	movwf	(_hr)
  2467  055C  00AA               	movlw	0
  2468  055D  3000               	andwf	(_hour+1),w
  2469  055E  052D               	movwf	1+(_hr)
  2470  055F  00AB               	line	123
  2471                           	
  2472                           l2433:	
  2473  0560                     ;Pri-Master.c: 123:         LCD_STRING(valor);
  2474                           	movlw	020h
  2475  0560  3020               	andwf	(_hour),w
  2476  0561  052C               	movwf	(_ap)
  2477  0562  00A0               	movlw	0
  2478  0563  3000               	andwf	(_hour+1),w
  2479  0564  052D               	movwf	1+(_ap)
  2480  0565  00A1               	line	124
  2481                           	
  2482                           l2435:	
  2483  0566                     ;Pri-Master.c: 124:         LCD_CURSOR(1,1);
  2484                           	movlw	03h
  2485  0566  3003               	movwf	(read_ds1307@address)
  2486  0567  00F6               	movlw	0
  2487  0568  3000               	movwf	((read_ds1307@address))+1
  2488  0569  00F7               	fcall	_read_ds1307
  2489  056A  120A  118A  20CC  120A  118A  	movf	(1+(?_read_ds1307)),w
  2490  056F  0877               	bcf	status, 5	;RP0=0, select bank0
  2491  0570  1283               	bcf	status, 6	;RP1=0, select bank0
  2492  0571  1303               	movwf	(_day+1)
  2493  0572  00A9               	movf	(0+(?_read_ds1307)),w
  2494  0573  0876               	movwf	(_day)
  2495  0574  00A8               	line	125
  2496                           	
  2497                           l2437:	
  2498  0575                     ;Pri-Master.c: 125:         LCD_STRING(time);
  2499                           	movlw	04h
  2500  0575  3004               	movwf	(read_ds1307@address)
  2501  0576  00F6               	movlw	0
  2502  0577  3000               	movwf	((read_ds1307@address))+1
  2503  0578  00F7               	fcall	_read_ds1307
  2504  0579  120A  118A  20CC  120A  118A  	movf	(1+(?_read_ds1307)),w
  2505  057E  0877               	bcf	status, 5	;RP0=0, select bank0
  2506  057F  1283               	bcf	status, 6	;RP1=0, select bank0
  2507  0580  1303               	movwf	(_day+1)
  2508  0581  00A9               	movf	(0+(?_read_ds1307)),w
  2509  0582  0876               	movwf	(_day)
  2510  0583  00A8               	line	126
  2511                           	
  2512                           l2439:	
  2513  0584                     ;Pri-Master.c: 126: 
  2514                           	movlw	05h
  2515  0584  3005               	movwf	(read_ds1307@address)
  2516  0585  00F6               	movlw	0
  2517  0586  3000               	movwf	((read_ds1307@address))+1
  2518  0587  00F7               	fcall	_read_ds1307
  2519  0588  120A  118A  20CC  120A  118A  	movf	(1+(?_read_ds1307)),w
  2520  058D  0877               	bcf	status, 5	;RP0=0, select bank0
  2521  058E  1283               	bcf	status, 6	;RP1=0, select bank0
  2522  058F  1303               	movwf	(_month+1)
  2523  0590  00A5               	movf	(0+(?_read_ds1307)),w
  2524  0591  0876               	movwf	(_month)
  2525  0592  00A4               	line	127
  2526                           	
  2527                           l2441:	
  2528  0593                     ;Pri-Master.c: 127: 
  2529                           	movlw	06h
  2530  0593  3006               	movwf	(read_ds1307@address)
  2531  0594  00F6               	movlw	0
  2532  0595  3000               	movwf	((read_ds1307@address))+1
  2533  0596  00F7               	fcall	_read_ds1307
  2534  0597  120A  118A  20CC  120A  118A  	movf	(1+(?_read_ds1307)),w
  2535  059C  0877               	bcf	status, 5	;RP0=0, select bank0
  2536  059D  1283               	bcf	status, 6	;RP1=0, select bank0
  2537  059E  1303               	movwf	(_year+1)
  2538  059F  00A3               	movf	(0+(?_read_ds1307)),w
  2539  05A0  0876               	movwf	(_year)
  2540  05A1  00A2               	line	128
  2541                           	
  2542                           l2443:	
  2543  05A2                     ;Pri-Master.c: 128:         if (RCIF){
  2544                           	movf	(_hr),w
  2545  05A2  082A               	fcall	_BCD2UpperCh
  2546  05A3  120A  158A  25D5  120A  118A  	bcf	status, 5	;RP0=0, select bank0
  2547  05A8  1283               	bcf	status, 6	;RP1=0, select bank0
  2548  05A9  1303               	movwf	(??_main+0)+0
  2549  05AA  00DE               	movf	(??_main+0)+0,w
  2550  05AB  085E               	movwf	(_time)
  2551  05AC  00E0               	line	129
  2552                           	
  2553                           l2445:	
  2554  05AD                     ;Pri-Master.c: 129:             deter = RCREG;
  2555                           	movf	(_hr),w
  2556  05AD  082A               	fcall	_BCD2LowerCh
  2557  05AE  120A  158A  2596  120A  118A  	bcf	status, 5	;RP0=0, select bank0
  2558  05B3  1283               	bcf	status, 6	;RP1=0, select bank0
  2559  05B4  1303               	movwf	(??_main+0)+0
  2560  05B5  00DE               	movf	(??_main+0)+0,w
  2561  05B6  085E               	movwf	0+(_time)+01h
  2562  05B7  00E1               	line	130
  2563                           	
  2564                           l2447:	
  2565  05B8                     ;Pri-Master.c: 130:         }
  2566                           	movf	(_minute),w
  2567  05B8  082E               	fcall	_BCD2UpperCh
  2568  05B9  120A  158A  25D5  120A  118A  	bcf	status, 5	;RP0=0, select bank0
  2569  05BE  1283               	bcf	status, 6	;RP1=0, select bank0
  2570  05BF  1303               	movwf	(??_main+0)+0
  2571  05C0  00DE               	movf	(??_main+0)+0,w
  2572  05C1  085E               	movwf	0+(_time)+03h
  2573  05C2  00E3               	line	131
  2574                           	
  2575                           l2449:	
  2576  05C3                     ;Pri-Master.c: 131:         switch(deter){
  2577                           	movf	(_minute),w
  2578  05C3  082E               	fcall	_BCD2LowerCh
  2579  05C4  120A  158A  2596  120A  118A  	bcf	status, 5	;RP0=0, select bank0
  2580  05C9  1283               	bcf	status, 6	;RP1=0, select bank0
  2581  05CA  1303               	movwf	(??_main+0)+0
  2582  05CB  00DE               	movf	(??_main+0)+0,w
  2583  05CC  085E               	movwf	0+(_time)+04h
  2584  05CD  00E4               	line	132
  2585                           	
  2586                           l2451:	
  2587  05CE                     ;Pri-Master.c: 132:         case 1:
  2588                           	movf	(_second),w
  2589  05CE  0830               	fcall	_BCD2UpperCh
  2590  05CF  120A  158A  25D5  120A  118A  	bcf	status, 5	;RP0=0, select bank0
  2591  05D4  1283               	bcf	status, 6	;RP1=0, select bank0
  2592  05D5  1303               	movwf	(??_main+0)+0
  2593  05D6  00DE               	movf	(??_main+0)+0,w
  2594  05D7  085E               	movwf	0+(_time)+06h
  2595  05D8  00E6               	line	133
  2596                           	
  2597                           l2453:	
  2598  05D9                     ;Pri-Master.c: 133:             mandar(valor1);
  2599                           	movf	(_second),w
  2600  05D9  0830               	fcall	_BCD2LowerCh
  2601  05DA  120A  158A  2596  120A  118A  	bcf	status, 5	;RP0=0, select bank0
  2602  05DF  1283               	bcf	status, 6	;RP1=0, select bank0
  2603  05E0  1303               	movwf	(??_main+0)+0
  2604  05E1  00DE               	movf	(??_main+0)+0,w
  2605  05E2  085E               	movwf	0+(_time)+07h
  2606  05E3  00E7               	line	134
  2607                           	
  2608                           l2455:	
  2609  05E4                     ;Pri-Master.c: 134:             _delay((unsigned long)((10)*(4000000/4000.0)));
  2610                           	movf	(_day),w
  2611  05E4  0828               	fcall	_BCD2UpperCh
  2612  05E5  120A  158A  25D5  120A  118A  	bcf	status, 5	;RP0=0, select bank0
  2613  05EA  1283               	bcf	status, 6	;RP1=0, select bank0
  2614  05EB  1303               	movwf	(??_main+0)+0
  2615  05EC  00DE               	movf	(??_main+0)+0,w
  2616  05ED  085E               	bsf	status, 5	;RP0=1, select bank1
  2617  05EE  1683               	bcf	status, 6	;RP1=0, select bank1
  2618  05EF  1303               	movwf	(_date)^080h
  2619  05F0  00C1               	line	135
  2620                           	
  2621                           l2457:	
  2622  05F1                     ;Pri-Master.c: 135:             break;
  2623                           	bcf	status, 5	;RP0=0, select bank0
  2624  05F1  1283               	bcf	status, 6	;RP1=0, select bank0
  2625  05F2  1303               	movf	(_day),w
  2626  05F3  0828               	fcall	_BCD2LowerCh
  2627  05F4  120A  158A  2596  120A  118A  	bcf	status, 5	;RP0=0, select bank0
  2628  05F9  1283               	bcf	status, 6	;RP1=0, select bank0
  2629  05FA  1303               	movwf	(??_main+0)+0
  2630  05FB  00DE               	movf	(??_main+0)+0,w
  2631  05FC  085E               	bsf	status, 5	;RP0=1, select bank1
  2632  05FD  1683               	bcf	status, 6	;RP1=0, select bank1
  2633  05FE  1303               	movwf	0+(_date)^080h+01h
  2634  05FF  00C2               	line	136
  2635                           	
  2636                           l2459:	
  2637  0600                     ;Pri-Master.c: 136:         case 2:
  2638                           	bcf	status, 5	;RP0=0, select bank0
  2639  0600  1283               	bcf	status, 6	;RP1=0, select bank0
  2640  0601  1303               	movf	(_month),w
  2641  0602  0824               	fcall	_BCD2UpperCh
  2642  0603  120A  158A  25D5  120A  118A  	bcf	status, 5	;RP0=0, select bank0
  2643  0608  1283               	bcf	status, 6	;RP1=0, select bank0
  2644  0609  1303               	movwf	(??_main+0)+0
  2645  060A  00DE               	movf	(??_main+0)+0,w
  2646  060B  085E               	bsf	status, 5	;RP0=1, select bank1
  2647  060C  1683               	bcf	status, 6	;RP1=0, select bank1
  2648  060D  1303               	movwf	0+(_date)^080h+03h
  2649  060E  00C4               	line	137
  2650                           	
  2651                           l2461:	
  2652  060F                     ;Pri-Master.c: 137:             mandar(valor2);
  2653                           	bcf	status, 5	;RP0=0, select bank0
  2654  060F  1283               	bcf	status, 6	;RP1=0, select bank0
  2655  0610  1303               	movf	(_month),w
  2656  0611  0824               	fcall	_BCD2LowerCh
  2657  0612  120A  158A  2596  120A  118A  	bcf	status, 5	;RP0=0, select bank0
  2658  0617  1283               	bcf	status, 6	;RP1=0, select bank0
  2659  0618  1303               	movwf	(??_main+0)+0
  2660  0619  00DE               	movf	(??_main+0)+0,w
  2661  061A  085E               	bsf	status, 5	;RP0=1, select bank1
  2662  061B  1683               	bcf	status, 6	;RP1=0, select bank1
  2663  061C  1303               	movwf	0+(_date)^080h+04h
  2664  061D  00C5               	line	138
  2665                           	
  2666                           l2463:	
  2667  061E                     ;Pri-Master.c: 138:             _delay((unsigned long)((10)*(4000000/4000.0)));
  2668                           	bcf	status, 5	;RP0=0, select bank0
  2669  061E  1283               	bcf	status, 6	;RP1=0, select bank0
  2670  061F  1303               	movf	(_year),w
  2671  0620  0822               	fcall	_BCD2UpperCh
  2672  0621  120A  158A  25D5  120A  118A  	bcf	status, 5	;RP0=0, select bank0
  2673  0626  1283               	bcf	status, 6	;RP1=0, select bank0
  2674  0627  1303               	movwf	(??_main+0)+0
  2675  0628  00DE               	movf	(??_main+0)+0,w
  2676  0629  085E               	bsf	status, 5	;RP0=1, select bank1
  2677  062A  1683               	bcf	status, 6	;RP1=0, select bank1
  2678  062B  1303               	movwf	0+(_date)^080h+06h
  2679  062C  00C7               	line	139
  2680                           	
  2681                           l2465:	
  2682  062D                     ;Pri-Master.c: 139:             break;
  2683                           	bcf	status, 5	;RP0=0, select bank0
  2684  062D  1283               	bcf	status, 6	;RP1=0, select bank0
  2685  062E  1303               	movf	(_year),w
  2686  062F  0822               	fcall	_BCD2LowerCh
  2687  0630  120A  158A  2596  120A  118A  	bcf	status, 5	;RP0=0, select bank0
  2688  0635  1283               	bcf	status, 6	;RP1=0, select bank0
  2689  0636  1303               	movwf	(??_main+0)+0
  2690  0637  00DE               	movf	(??_main+0)+0,w
  2691  0638  085E               	bsf	status, 5	;RP0=1, select bank1
  2692  0639  1683               	bcf	status, 6	;RP1=0, select bank1
  2693  063A  1303               	movwf	0+(_date)^080h+07h
  2694  063B  00C8               	line	140
  2695                           	
  2696                           l2467:	
  2697  063C                     ;Pri-Master.c: 140:         case 3:
  2698                           	bcf	status, 5	;RP0=0, select bank0
  2699  063C  1283               	bcf	status, 6	;RP1=0, select bank0
  2700  063D  1303               	movf	(_second),w
  2701  063E  0830               	fcall	_BCD2LowerCh
  2702  063F  120A  158A  2596  120A  118A  	bcf	status, 5	;RP0=0, select bank0
  2703  0644  1283               	bcf	status, 6	;RP1=0, select bank0
  2704  0645  1303               	movwf	(??_main+0)+0
  2705  0646  00DE               	movf	(??_main+0)+0,w
  2706  0647  085E               	movwf	0+(_valorf)+01h
  2707  0648  00C9               	line	141
  2708                           	
  2709                           l2469:	
  2710  0649                     ;Pri-Master.c: 141:             mandar(valor3);
  2711                           	movf	(_second),w
  2712  0649  0830               	fcall	_BCD2UpperCh
  2713  064A  120A  158A  25D5  120A  118A  	bcf	status, 5	;RP0=0, select bank0
  2714  064F  1283               	bcf	status, 6	;RP1=0, select bank0
  2715  0650  1303               	movwf	(??_main+0)+0
  2716  0651  00DE               	movf	(??_main+0)+0,w
  2717  0652  085E               	movwf	(_valorf)
  2718  0653  00C8               	line	142
  2719                           	
  2720                           l2471:	
  2721  0654                     ;Pri-Master.c: 142:             _delay((unsigned long)((10)*(4000000/4000.0)));
  2722                           	movlw	(low(_valorf|((0x0)<<8)))&0ffh
  2723  0654  3048               	fcall	_atoi
  2724  0655  120A  118A  2245  120A  118A  	movf	(1+(?_atoi)),w
  2725  065A  0877               	bcf	status, 5	;RP0=0, select bank0
  2726  065B  1283               	bcf	status, 6	;RP1=0, select bank0
  2727  065C  1303               	movwf	(_valor5+1)
  2728  065D  00BD               	movf	(0+(?_atoi)),w
  2729  065E  0876               	movwf	(_valor5)
  2730  065F  00BC               	line	143
  2731                           	
  2732                           l2473:	
  2733  0660                     ;Pri-Master.c: 143:             break;
  2734                           	movf	((_ap)),w
  2735  0660  0820               iorwf	((_ap+1)),w
  2736  0661  0421               	btfsc	status,2
  2737  0662  1903               	goto	u1711
  2738  0663  2E65               	goto	u1710
  2739  0664  2E66               u1711:
  2740  0665                     	goto	l2477
  2741  0665  2E6F               u1710:
  2742  0666                     	line	145
  2743                           	
  2744                           l2475:	
  2745  0666                     ;Pri-Master.c: 144:         case 4:;Pri-Master.c: 145:             mandar(valor4);
  2746                           	movlw	low(050h)
  2747  0666  3050               	movwf	(??_main+0)+0
  2748  0667  00DE               	movf	(??_main+0)+0,w
  2749  0668  085E               	movwf	0+(_time)+09h
  2750  0669  00E9               	line	146
  2751                           ;Pri-Master.c: 146:             _delay((unsigned long)((10)*(4000000/4000.0)));
  2752                           	movlw	low(04Dh)
  2753  066A  304D               	movwf	(??_main+0)+0
  2754  066B  00DE               	movf	(??_main+0)+0,w
  2755  066C  085E               	movwf	0+(_time)+0Ah
  2756  066D  00EA               	line	147
  2757                           ;Pri-Master.c: 147:             break;
  2758                           	goto	l2479
  2759  066E  2E78               	line	148
  2760                           ;Pri-Master.c: 148:         case 5:
  2761                           	
  2762                           l373:	
  2763  066F                     	line	150
  2764                           	
  2765                           l2477:	
  2766  066F                     ;Pri-Master.c: 149:             mandar(valor5);;Pri-Master.c: 150:             _delay((u
                                 nsigned long)((10)*(4000000/4000.0)));
  2767                           	movlw	low(041h)
  2768  066F  3041               	movwf	(??_main+0)+0
  2769  0670  00DE               	movf	(??_main+0)+0,w
  2770  0671  085E               	movwf	0+(_time)+09h
  2771  0672  00E9               	line	151
  2772                           ;Pri-Master.c: 151:             break;
  2773                           	movlw	low(04Dh)
  2774  0673  304D               	movwf	(??_main+0)+0
  2775  0674  00DE               	movf	(??_main+0)+0,w
  2776  0675  085E               	movwf	0+(_time)+0Ah
  2777  0676  00EA               	goto	l2479
  2778  0677  2E78               	line	152
  2779                           ;Pri-Master.c: 152:         default:
  2780                           	
  2781                           l374:	
  2782  0678                     	line	153
  2783                           	
  2784                           l2479:	
  2785  0678                     ;Pri-Master.c: 153:             mandar(valor5);
  2786                           	movlw	(low((((STR_3)-__stringbase)|8000h)))&0ffh
  2787  0678  300B               	movwf	(??_main+0)+0
  2788  0679  00DE               	movf	(??_main+0)+0,w
  2789  067A  085E               	movwf	(sprintf@f)
  2790  067B  00C9               	movf	(_valor1+1),w
  2791  067C  0845               	movwf	1+(?_sprintf)+01h
  2792  067D  00CB               	movf	(_valor1),w
  2793  067E  0844               	movwf	0+(?_sprintf)+01h
  2794  067F  00CA               	movf	(_valor3+1),w
  2795  0680  0841               	movwf	1+(?_sprintf)+03h
  2796  0681  00CD               	movf	(_valor3),w
  2797  0682  0840               	movwf	0+(?_sprintf)+03h
  2798  0683  00CC               	movf	(_valor2+1),w
  2799  0684  0843               	movwf	1+(?_sprintf)+05h
  2800  0685  00CF               	movf	(_valor2),w
  2801  0686  0842               	movwf	0+(?_sprintf)+05h
  2802  0687  00CE               	movf	(_valor4+1),w
  2803  0688  083F               	movwf	1+(?_sprintf)+07h
  2804  0689  00D1               	movf	(_valor4),w
  2805  068A  083E               	movwf	0+(?_sprintf)+07h
  2806  068B  00D0               	movf	(_valor5+1),w
  2807  068C  083D               	movwf	1+(?_sprintf)+09h
  2808  068D  00D3               	movf	(_valor5),w
  2809  068E  083C               	movwf	0+(?_sprintf)+09h
  2810  068F  00D2               	movlw	(low(_valor|((0x0)<<8)))&0ffh
  2811  0690  30CA               	fcall	_sprintf
  2812  0691  120A  118A  22CA  120A  118A  	line	154
  2813                           	
  2814                           l2481:	
  2815  0696                     ;Pri-Master.c: 154:             _delay((unsigned long)((10)*(4000000/4000.0)));
  2816                           	movlw	02h
  2817  0696  3002               	movwf	(LCD_CURSOR@a)
  2818  0697  00F4               	movlw	0
  2819  0698  3000               	movwf	((LCD_CURSOR@a))+1
  2820  0699  00F5               	movlw	01h
  2821  069A  3001               	movwf	(LCD_CURSOR@b)
  2822  069B  00F6               	movlw	0
  2823  069C  3000               	movwf	((LCD_CURSOR@b))+1
  2824  069D  00F7               	fcall	_LCD_CURSOR
  2825  069E  120A  158A  2799  120A  118A  	line	155
  2826                           	
  2827                           l2483:	
  2828  06A3                     ;Pri-Master.c: 155:             break;
  2829                           	movlw	(low(_valor|((0x0)<<8))&0ffh)
  2830  06A3  30CA               	movwf	(LCD_STRING@a)
  2831  06A4  00F2               	movlw	(0x0)
  2832  06A5  3000               	movwf	(LCD_STRING@a+1)
  2833  06A6  00F3               	fcall	_LCD_STRING
  2834  06A7  120A  118A  2149  120A  118A  	line	156
  2835                           	
  2836                           l2485:	
  2837  06AC                     ;Pri-Master.c: 156:     }
  2838                           	movlw	01h
  2839  06AC  3001               	movwf	(LCD_CURSOR@a)
  2840  06AD  00F4               	movlw	0
  2841  06AE  3000               	movwf	((LCD_CURSOR@a))+1
  2842  06AF  00F5               	movlw	01h
  2843  06B0  3001               	movwf	(LCD_CURSOR@b)
  2844  06B1  00F6               	movlw	0
  2845  06B2  3000               	movwf	((LCD_CURSOR@b))+1
  2846  06B3  00F7               	fcall	_LCD_CURSOR
  2847  06B4  120A  158A  2799  120A  118A  	line	157
  2848                           	
  2849                           l2487:	
  2850  06B9                     ;Pri-Master.c: 157: 
  2851                           	movlw	(low(_time|((0x0)<<8))&0ffh)
  2852  06B9  3060               	movwf	(LCD_STRING@a)
  2853  06BA  00F2               	movlw	(0x0)
  2854  06BB  3000               	movwf	(LCD_STRING@a+1)
  2855  06BC  00F3               	fcall	_LCD_STRING
  2856  06BD  120A  118A  2149  120A  118A  	line	160
  2857                           	
  2858                           l2489:	
  2859  06C2                     ;Pri-Master.c: 160:         if (valor1 == 1){
  2860                           	bcf	status, 5	;RP0=0, select bank0
  2861  06C2  1283               	bcf	status, 6	;RP1=0, select bank0
  2862  06C3  1303               	btfss	(101/8),(101)&7	;volatile
  2863  06C4  1E8C               	goto	u1721
  2864  06C5  2EC7               	goto	u1720
  2865  06C6  2EC8               u1721:
  2866  06C7                     	goto	l2519
  2867  06C7  2F54               u1720:
  2868  06C8                     	line	161
  2869                           	
  2870                           l2491:	
  2871  06C8                     ;Pri-Master.c: 161:             servo0();
  2872                           	movf	(26),w	;volatile
  2873  06C8  081A               	movwf	(??_main+0)+0
  2874  06C9  00DE               	clrf	(??_main+0)+0+1
  2875  06CA  01DF               	movf	0+(??_main+0)+0,w
  2876  06CB  085E               	movwf	(_deter)
  2877  06CC  00C6               	movf	1+(??_main+0)+0,w
  2878  06CD  085F               	movwf	(_deter+1)
  2879  06CE  00C7               	goto	l2519
  2880  06CF  2F54               	line	162
  2881                           ;Pri-Master.c: 162:             servo180();
  2882                           	
  2883                           l375:	
  2884  06D0                     	line	163
  2885                           ;Pri-Master.c: 163:         }else{
  2886                           	goto	l2519
  2887  06D0  2F54               	line	164
  2888                           ;Pri-Master.c: 164:             PORTAbits.RA0 = 0;
  2889                           	
  2890                           l377:	
  2891  06D1                     	line	165
  2892                           	
  2893                           l2493:	
  2894  06D1                     ;Pri-Master.c: 165:         }
  2895                           	movf	(_valor1+1),w
  2896  06D1  0845               	movwf	(mandar@dato+1)
  2897  06D2  00F1               	movf	(_valor1),w
  2898  06D3  0844               	movwf	(mandar@dato)
  2899  06D4  00F0               	fcall	_mandar
  2900  06D5  120A  118A  2052  120A  118A  	line	166
  2901                           	
  2902                           l2495:	
  2903  06DA                     ;Pri-Master.c: 166: 
  2904                           	opt asmopt_push
  2905                           opt asmopt_off
  2906                           movlw	13
  2907  06DA  300D               	bcf	status, 5	;RP0=0, select bank0
  2908  06DB  1283               	bcf	status, 6	;RP1=0, select bank0
  2909  06DC  1303               movwf	((??_main+0)+0+1),f
  2910  06DD  00DF               	movlw	251
  2911  06DE  30FB               movwf	((??_main+0)+0),f
  2912  06DF  00DE               	u1837:
  2913  06E0                     decfsz	((??_main+0)+0),f
  2914  06E0  0BDE               	goto	u1837
  2915  06E1  2EE0               	decfsz	((??_main+0)+0+1),f
  2916  06E2  0BDF               	goto	u1837
  2917  06E3  2EE0               opt asmopt_pop
  2918                           
  2919                           	line	167
  2920                           ;Pri-Master.c: 167: 
  2921                           	goto	l2521
  2922  06E4  2F6C               	line	168
  2923                           ;Pri-Master.c: 168:         if (PORTCbits.RC0==1){
  2924                           	
  2925                           l379:	
  2926  06E5                     	line	169
  2927                           	
  2928                           l2497:	
  2929  06E5                     ;Pri-Master.c: 169:             var = 1;
  2930                           	bcf	status, 5	;RP0=0, select bank0
  2931  06E5  1283               	bcf	status, 6	;RP1=0, select bank0
  2932  06E6  1303               	movf	(_valor2+1),w
  2933  06E7  0843               	movwf	(mandar@dato+1)
  2934  06E8  00F1               	movf	(_valor2),w
  2935  06E9  0842               	movwf	(mandar@dato)
  2936  06EA  00F0               	fcall	_mandar
  2937  06EB  120A  118A  2052  120A  118A  	line	170
  2938                           	
  2939                           l2499:	
  2940  06F0                     ;Pri-Master.c: 170:         }else {
  2941                           	opt asmopt_push
  2942                           opt asmopt_off
  2943                           movlw	13
  2944  06F0  300D               	bcf	status, 5	;RP0=0, select bank0
  2945  06F1  1283               	bcf	status, 6	;RP1=0, select bank0
  2946  06F2  1303               movwf	((??_main+0)+0+1),f
  2947  06F3  00DF               	movlw	251
  2948  06F4  30FB               movwf	((??_main+0)+0),f
  2949  06F5  00DE               	u1847:
  2950  06F6                     decfsz	((??_main+0)+0),f
  2951  06F6  0BDE               	goto	u1847
  2952  06F7  2EF6               	decfsz	((??_main+0)+0+1),f
  2953  06F8  0BDF               	goto	u1847
  2954  06F9  2EF6               opt asmopt_pop
  2955                           
  2956                           	line	171
  2957                           ;Pri-Master.c: 171:             var = 0;
  2958                           	goto	l2521
  2959  06FA  2F6C               	line	172
  2960                           ;Pri-Master.c: 172:         }
  2961                           	
  2962                           l380:	
  2963  06FB                     	line	173
  2964                           	
  2965                           l2501:	
  2966  06FB                     ;Pri-Master.c: 173:         if (PORTCbits.RC0==0){
  2967                           	bcf	status, 5	;RP0=0, select bank0
  2968  06FB  1283               	bcf	status, 6	;RP1=0, select bank0
  2969  06FC  1303               	movf	(_valor3+1),w
  2970  06FD  0841               	movwf	(mandar@dato+1)
  2971  06FE  00F1               	movf	(_valor3),w
  2972  06FF  0840               	movwf	(mandar@dato)
  2973  0700  00F0               	fcall	_mandar
  2974  0701  120A  118A  2052  120A  118A  	line	174
  2975                           	
  2976                           l2503:	
  2977  0706                     ;Pri-Master.c: 174:             valor4 = 0;
  2978                           	opt asmopt_push
  2979                           opt asmopt_off
  2980                           movlw	13
  2981  0706  300D               	bcf	status, 5	;RP0=0, select bank0
  2982  0707  1283               	bcf	status, 6	;RP1=0, select bank0
  2983  0708  1303               movwf	((??_main+0)+0+1),f
  2984  0709  00DF               	movlw	251
  2985  070A  30FB               movwf	((??_main+0)+0),f
  2986  070B  00DE               	u1857:
  2987  070C                     decfsz	((??_main+0)+0),f
  2988  070C  0BDE               	goto	u1857
  2989  070D  2F0C               	decfsz	((??_main+0)+0+1),f
  2990  070E  0BDF               	goto	u1857
  2991  070F  2F0C               opt asmopt_pop
  2992                           
  2993                           	line	175
  2994                           ;Pri-Master.c: 175:         }else{
  2995                           	goto	l2521
  2996  0710  2F6C               	line	176
  2997                           ;Pri-Master.c: 176:             valor4 = 1;
  2998                           	
  2999                           l381:	
  3000  0711                     	line	177
  3001                           	
  3002                           l2505:	
  3003  0711                     ;Pri-Master.c: 177:         }
  3004                           	bcf	status, 5	;RP0=0, select bank0
  3005  0711  1283               	bcf	status, 6	;RP1=0, select bank0
  3006  0712  1303               	movf	(_valor4+1),w
  3007  0713  083F               	movwf	(mandar@dato+1)
  3008  0714  00F1               	movf	(_valor4),w
  3009  0715  083E               	movwf	(mandar@dato)
  3010  0716  00F0               	fcall	_mandar
  3011  0717  120A  118A  2052  120A  118A  	line	178
  3012                           	
  3013                           l2507:	
  3014  071C                     ;Pri-Master.c: 178:         if (valor2 <=10 || PORTCbits.RC0==0){
  3015                           	opt asmopt_push
  3016                           opt asmopt_off
  3017                           movlw	13
  3018  071C  300D               	bcf	status, 5	;RP0=0, select bank0
  3019  071D  1283               	bcf	status, 6	;RP1=0, select bank0
  3020  071E  1303               movwf	((??_main+0)+0+1),f
  3021  071F  00DF               	movlw	251
  3022  0720  30FB               movwf	((??_main+0)+0),f
  3023  0721  00DE               	u1867:
  3024  0722                     decfsz	((??_main+0)+0),f
  3025  0722  0BDE               	goto	u1867
  3026  0723  2F22               	decfsz	((??_main+0)+0+1),f
  3027  0724  0BDF               	goto	u1867
  3028  0725  2F22               opt asmopt_pop
  3029                           
  3030                           	line	179
  3031                           ;Pri-Master.c: 179:            var = 0;
  3032                           	goto	l2521
  3033  0726  2F6C               	line	180
  3034                           ;Pri-Master.c: 180:         }else{
  3035                           	
  3036                           l382:	
  3037  0727                     	line	181
  3038                           	
  3039                           l2509:	
  3040  0727                     ;Pri-Master.c: 181:             var = 1;
  3041                           	bcf	status, 5	;RP0=0, select bank0
  3042  0727  1283               	bcf	status, 6	;RP1=0, select bank0
  3043  0728  1303               	movf	(_valor5+1),w
  3044  0729  083D               	movwf	(mandar@dato+1)
  3045  072A  00F1               	movf	(_valor5),w
  3046  072B  083C               	movwf	(mandar@dato)
  3047  072C  00F0               	fcall	_mandar
  3048  072D  120A  118A  2052  120A  118A  	line	182
  3049                           	
  3050                           l2511:	
  3051  0732                     ;Pri-Master.c: 182:         }
  3052                           	opt asmopt_push
  3053                           opt asmopt_off
  3054                           movlw	13
  3055  0732  300D               	bcf	status, 5	;RP0=0, select bank0
  3056  0733  1283               	bcf	status, 6	;RP1=0, select bank0
  3057  0734  1303               movwf	((??_main+0)+0+1),f
  3058  0735  00DF               	movlw	251
  3059  0736  30FB               movwf	((??_main+0)+0),f
  3060  0737  00DE               	u1877:
  3061  0738                     decfsz	((??_main+0)+0),f
  3062  0738  0BDE               	goto	u1877
  3063  0739  2F38               	decfsz	((??_main+0)+0+1),f
  3064  073A  0BDF               	goto	u1877
  3065  073B  2F38               opt asmopt_pop
  3066                           
  3067                           	line	183
  3068                           ;Pri-Master.c: 183:         if (var ==1){
  3069                           	goto	l2521
  3070  073C  2F6C               	line	184
  3071                           ;Pri-Master.c: 184:             PORTAbits.RA2 = 1;
  3072                           	
  3073                           l383:	
  3074  073D                     	line	185
  3075                           	
  3076                           l2513:	
  3077  073D                     ;Pri-Master.c: 185:         }else{
  3078                           	bcf	status, 5	;RP0=0, select bank0
  3079  073D  1283               	bcf	status, 6	;RP1=0, select bank0
  3080  073E  1303               	movf	(_valor5+1),w
  3081  073F  083D               	movwf	(mandar@dato+1)
  3082  0740  00F1               	movf	(_valor5),w
  3083  0741  083C               	movwf	(mandar@dato)
  3084  0742  00F0               	fcall	_mandar
  3085  0743  120A  118A  2052  120A  118A  	line	186
  3086                           	
  3087                           l2515:	
  3088  0748                     ;Pri-Master.c: 186:             PORTAbits.RA2 = 0;
  3089                           	opt asmopt_push
  3090                           opt asmopt_off
  3091                           movlw	13
  3092  0748  300D               	bcf	status, 5	;RP0=0, select bank0
  3093  0749  1283               	bcf	status, 6	;RP1=0, select bank0
  3094  074A  1303               movwf	((??_main+0)+0+1),f
  3095  074B  00DF               	movlw	251
  3096  074C  30FB               movwf	((??_main+0)+0),f
  3097  074D  00DE               	u1887:
  3098  074E                     decfsz	((??_main+0)+0),f
  3099  074E  0BDE               	goto	u1887
  3100  074F  2F4E               	decfsz	((??_main+0)+0+1),f
  3101  0750  0BDF               	goto	u1887
  3102  0751  2F4E               opt asmopt_pop
  3103                           
  3104                           	line	187
  3105                           ;Pri-Master.c: 187:         }
  3106                           	goto	l2521
  3107  0752  2F6C               	line	188
  3108                           	
  3109                           l2517:	
  3110  0753                     ;Pri-Master.c: 188: 
  3111                           	goto	l2521
  3112  0753  2F6C               	
  3113                           l376:	
  3114  0754                     	
  3115                           l2519:	
  3116  0754                     	; Switch on 2 bytes has been partitioned into a top level switch of size 1, and 1 sub-s
                                 witches
  3117                           ; Switch size 1, requested type "space"
  3118                           ; Number of cases is 1, Range of values is 0 to 0
  3119                           ; switch strategies available:
  3120                           ; Name         Instructions Cycles
  3121                           ; simple_byte            4     3 (average)
  3122                           ; direct_byte           11     8 (fixed)
  3123                           ; jumptable            260     6 (fixed)
  3124                           ;	Chosen strategy is simple_byte
  3125                           
  3126                           	bcf	status, 5	;RP0=0, select bank0
  3127  0754  1283               	bcf	status, 6	;RP1=0, select bank0
  3128  0755  1303               	movf (_deter+1),w
  3129  0756  0847               	opt asmopt_push
  3130                           	opt asmopt_off
  3131                           	xorlw	0^0	; case 0
  3132  0757  3A00               	skipnz
  3133  0758  1903               	goto	l2695
  3134  0759  2F5B               	goto	l2513
  3135  075A  2F3D               	opt asmopt_pop
  3136                           	
  3137                           l2695:	
  3138  075B                     ; Switch size 1, requested type "space"
  3139                           ; Number of cases is 5, Range of values is 1 to 5
  3140                           ; switch strategies available:
  3141                           ; Name         Instructions Cycles
  3142                           ; simple_byte           16     9 (average)
  3143                           ; direct_byte           26    11 (fixed)
  3144                           ; jumptable            263     9 (fixed)
  3145                           ;	Chosen strategy is simple_byte
  3146                           
  3147                           	movf (_deter),w
  3148  075B  0846               	opt asmopt_push
  3149                           	opt asmopt_off
  3150                           	xorlw	1^0	; case 1
  3151  075C  3A01               	skipnz
  3152  075D  1903               	goto	l2493
  3153  075E  2ED1               	xorlw	2^1	; case 2
  3154  075F  3A03               	skipnz
  3155  0760  1903               	goto	l2497
  3156  0761  2EE5               	xorlw	3^2	; case 3
  3157  0762  3A01               	skipnz
  3158  0763  1903               	goto	l2501
  3159  0764  2EFB               	xorlw	4^3	; case 4
  3160  0765  3A07               	skipnz
  3161  0766  1903               	goto	l2505
  3162  0767  2F11               	xorlw	5^4	; case 5
  3163  0768  3A01               	skipnz
  3164  0769  1903               	goto	l2509
  3165  076A  2F27               	goto	l2513
  3166  076B  2F3D               	opt asmopt_pop
  3167                           
  3168                           	
  3169                           l378:	
  3170  076C                     	line	192
  3171                           	
  3172                           l2521:	
  3173  076C                     ;Pri-Master.c: 192:             PORTAbits.RA1 = 1;
  3174                           	bcf	status, 5	;RP0=0, select bank0
  3175  076C  1283               	bcf	status, 6	;RP1=0, select bank0
  3176  076D  1303               		decf	((_valor1)),w
  3177  076E  0344               iorwf	((_valor1+1)),w
  3178  076F  0445               	btfss	status,2
  3179  0770  1D03               	goto	u1731
  3180  0771  2F73               	goto	u1730
  3181  0772  2F74               u1731:
  3182  0773                     	goto	l384
  3183  0773  2F7F               u1730:
  3184  0774                     	line	193
  3185                           	
  3186                           l2523:	
  3187  0774                     ;Pri-Master.c: 193:         }else{
  3188                           	fcall	_servo0
  3189  0774  120A  158A  27CC  120A  118A  	line	194
  3190                           ;Pri-Master.c: 194:             PORTAbits.RA1 = 0;
  3191                           	fcall	_servo180
  3192  0779  120A  118A  205F  120A  118A  	line	195
  3193                           ;Pri-Master.c: 195:         }
  3194                           	goto	l385
  3195  077E  2F80               	
  3196                           l384:	
  3197  077F                     	line	196
  3198                           ;Pri-Master.c: 196: 
  3199                           	bcf	(5),0	;volatile
  3200  077F  1005               	line	197
  3201                           ;Pri-Master.c: 197:     }
  3202                           	
  3203                           l385:	
  3204  0780                     	line	200
  3205                           ;Pri-Master.c: 200: void servo0(void)
  3206                           	bcf	status, 5	;RP0=0, select bank0
  3207  0780  1283               	bcf	status, 6	;RP1=0, select bank0
  3208  0781  1303               	btfss	(7),0	;volatile
  3209  0782  1C07               	goto	u1741
  3210  0783  2F85               	goto	u1740
  3211  0784  2F86               u1741:
  3212  0785                     	goto	l2527
  3213  0785  2F8B               u1740:
  3214  0786                     	line	201
  3215                           	
  3216                           l2525:	
  3217  0786                     ;Pri-Master.c: 201: {
  3218                           	movlw	01h
  3219  0786  3001               	movwf	(_var)
  3220  0787  00B2               	movlw	0
  3221  0788  3000               	movwf	((_var))+1
  3222  0789  00B3               	line	202
  3223                           ;Pri-Master.c: 202:   unsigned int i;
  3224                           	goto	l2529
  3225  078A  2F8E               	
  3226                           l386:	
  3227  078B                     	line	203
  3228                           	
  3229                           l2527:	
  3230  078B                     ;Pri-Master.c: 203:   for(i=0;i<50;i++)
  3231                           	clrf	(_var)
  3232  078B  01B2               	clrf	(_var+1)
  3233  078C  01B3               	goto	l2529
  3234  078D  2F8E               	line	204
  3235                           ;Pri-Master.c: 204:   {
  3236                           	
  3237                           l387:	
  3238  078E                     	line	205
  3239                           	
  3240                           l2529:	
  3241  078E                     ;Pri-Master.c: 205:     PORTAbits.RA0 = 1;
  3242                           	btfsc	(7),0	;volatile
  3243  078E  1807               	goto	u1751
  3244  078F  2F91               	goto	u1750
  3245  0790  2F92               u1751:
  3246  0791                     	goto	l2533
  3247  0791  2F95               u1750:
  3248  0792                     	line	206
  3249                           	
  3250                           l2531:	
  3251  0792                     ;Pri-Master.c: 206:     _delay((unsigned long)((1000)*(4000000/4000000.0)));
  3252                           	clrf	(_valor4)
  3253  0792  01BE               	clrf	(_valor4+1)
  3254  0793  01BF               	line	207
  3255                           ;Pri-Master.c: 207:     PORTAbits.RA0 = 0;
  3256                           	goto	l2535
  3257  0794  2F9A               	
  3258                           l388:	
  3259  0795                     	line	208
  3260                           	
  3261                           l2533:	
  3262  0795                     ;Pri-Master.c: 208:     _delay((unsigned long)((19000)*(4000000/4000000.0)));
  3263                           	movlw	01h
  3264  0795  3001               	movwf	(_valor4)
  3265  0796  00BE               	movlw	0
  3266  0797  3000               	movwf	((_valor4))+1
  3267  0798  00BF               	goto	l2535
  3268  0799  2F9A               	line	209
  3269                           ;Pri-Master.c: 209:   }
  3270                           	
  3271                           l389:	
  3272  079A                     	line	210
  3273                           	
  3274                           l2535:	
  3275  079A                     ;Pri-Master.c: 210: }
  3276                           	movf	(_valor2+1),w
  3277  079A  0843               	xorlw	80h
  3278  079B  3A80               	movwf	btemp+1
  3279  079C  00FF               	movlw	(0)^80h
  3280  079D  3080               	subwf	btemp+1,w
  3281  079E  027F               	skipz
  3282  079F  1D03               	goto	u1765
  3283  07A0  2FA3               	movlw	0Bh
  3284  07A1  300B               	subwf	(_valor2),w
  3285  07A2  0242               u1765:
  3286  07A3                     
  3287                           	skipc
  3288  07A3  1C03               	goto	u1761
  3289  07A4  2FA6               	goto	u1760
  3290  07A5  2FA7               u1761:
  3291  07A6                     	goto	l2539
  3292  07A6  2FAE               u1760:
  3293  07A7                     	
  3294                           l2537:	
  3295  07A7                     	bcf	status, 5	;RP0=0, select bank0
  3296  07A7  1283               	bcf	status, 6	;RP1=0, select bank0
  3297  07A8  1303               	btfsc	(7),0	;volatile
  3298  07A9  1807               	goto	u1771
  3299  07AA  2FAC               	goto	u1770
  3300  07AB  2FAD               u1771:
  3301  07AC                     	goto	l2541
  3302  07AC  2FB3               u1770:
  3303  07AD                     	goto	l2539
  3304  07AD  2FAE               	
  3305                           l392:	
  3306  07AE                     	line	211
  3307                           	
  3308                           l2539:	
  3309  07AE                     ;Pri-Master.c: 211: void servo180(void)
  3310                           	bcf	status, 5	;RP0=0, select bank0
  3311  07AE  1283               	bcf	status, 6	;RP1=0, select bank0
  3312  07AF  1303               	clrf	(_var)
  3313  07B0  01B2               	clrf	(_var+1)
  3314  07B1  01B3               	line	212
  3315                           ;Pri-Master.c: 212: {
  3316                           	goto	l2543
  3317  07B2  2FB8               	
  3318                           l390:	
  3319  07B3                     	line	213
  3320                           	
  3321                           l2541:	
  3322  07B3                     ;Pri-Master.c: 213:   unsigned int i;
  3323                           	movlw	01h
  3324  07B3  3001               	movwf	(_var)
  3325  07B4  00B2               	movlw	0
  3326  07B5  3000               	movwf	((_var))+1
  3327  07B6  00B3               	goto	l2543
  3328  07B7  2FB8               	line	214
  3329                           ;Pri-Master.c: 214:   for(i=0;i<50;i++)
  3330                           	
  3331                           l393:	
  3332  07B8                     	line	215
  3333                           	
  3334                           l2543:	
  3335  07B8                     ;Pri-Master.c: 215:   {
  3336                           		decf	((_var)),w
  3337  07B8  0332               iorwf	((_var+1)),w
  3338  07B9  0433               	btfss	status,2
  3339  07BA  1D03               	goto	u1781
  3340  07BB  2FBD               	goto	u1780
  3341  07BC  2FBE               u1781:
  3342  07BD                     	goto	l394
  3343  07BD  2FC0               u1780:
  3344  07BE                     	line	216
  3345                           	
  3346                           l2545:	
  3347  07BE                     ;Pri-Master.c: 216:     PORTAbits.RA0 = 1;
  3348                           	bsf	(5),2	;volatile
  3349  07BE  1505               	line	217
  3350                           ;Pri-Master.c: 217:     _delay((unsigned long)((2000)*(4000000/4000000.0)));
  3351                           	goto	l2547
  3352  07BF  2FC2               	
  3353                           l394:	
  3354  07C0                     	line	218
  3355                           ;Pri-Master.c: 218:     PORTAbits.RA0 = 0;
  3356                           	bcf	(5),2	;volatile
  3357  07C0  1105               	goto	l2547
  3358  07C1  2FC2               	line	219
  3359                           ;Pri-Master.c: 219:     _delay((unsigned long)((18000)*(4000000/4000000.0)));
  3360                           	
  3361                           l395:	
  3362  07C2                     	line	223
  3363                           	
  3364                           l2547:	
  3365  07C2                     		decf	((_valor3)),w
  3366  07C2  0340               iorwf	((_valor3+1)),w
  3367  07C3  0441               	btfss	status,2
  3368  07C4  1D03               	goto	u1791
  3369  07C5  2FC7               	goto	u1790
  3370  07C6  2FC8               u1791:
  3371  07C7                     	goto	l396
  3372  07C7  2FCA               u1790:
  3373  07C8                     	line	224
  3374                           	
  3375                           l2549:	
  3376  07C8                     	bsf	(5),1	;volatile
  3377  07C8  1485               	line	225
  3378                           	goto	l2395
  3379  07C9  2CAA               	
  3380                           l396:	
  3381  07CA                     	line	226
  3382                           	bcf	(5),1	;volatile
  3383  07CA  1085               	goto	l2395
  3384  07CB  2CAA               	line	227
  3385                           	
  3386                           l397:	
  3387  07CC                     	goto	l2395
  3388  07CC  2CAA               	line	229
  3389                           	
  3390                           l398:	
  3391  07CD                     	goto	l2395
  3392  07CD  2CAA               	
  3393                           l399:	
  3394  07CE                     	line	230
  3395                           	
  3396                           l400:	
  3397  07CE                     	global	start
  3398                           	ljmp	start
  3399  07CE  120A  118A  2800   	opt stack 0
  3400                           GLOBAL	__end_of_main
  3401                           	__end_of_main:
  3402  07D1                     	signat	_main,89
  3403                           	global	_sprintf
  3404                           
  3405 ;; *************** function _sprintf *****************
  3406 ;; Defined at:
  3407 ;;		line 500 in file "C:\Program Files (x86)\Microchip\xc8\v2.00\pic\sources\c90\common\doprnt.c"
  3408 ;; Parameters:    Size  Location     Type
  3409 ;;  sp              1    wreg     PTR unsigned char 
  3410 ;;		 -> valor(16), 
  3411 ;;  f               1    0[BANK0 ] PTR const unsigned char 
  3412 ;;		 -> STR_3(25), 
  3413 ;; Auto vars:     Size  Location     Type
  3414 ;;  sp              1   16[BANK0 ] PTR unsigned char 
  3415 ;;		 -> valor(16), 
  3416 ;;  tmpval          4    0        struct .
  3417 ;;  val             2   17[BANK0 ] unsigned int 
  3418 ;;  cp              2    0        PTR const unsigned char 
  3419 ;;  len             2    0        unsigned int 
  3420 ;;  c               1   20[BANK0 ] unsigned char 
  3421 ;;  prec            1   19[BANK0 ] char 
  3422 ;;  flag            1   15[BANK0 ] unsigned char 
  3423 ;;  ap              1   14[BANK0 ] PTR void [1]
  3424 ;;		 -> ?_sprintf(2), 
  3425 ;; Return value:  Size  Location     Type
  3426 ;;                  2    0[BANK0 ] int 
  3427 ;; Registers used:
  3428 ;;		wreg, fsr0l, fsr0h, status,2, status,0, btemp+1, pclath, cstack
  3429 ;; Tracked objects:
  3430 ;;		On entry : 0/0
  3431 ;;		On exit  : 0/0
  3432 ;;		Unchanged: 0/0
  3433 ;; Data sizes:     COMMON   BANK0   BANK1   BANK3   BANK2
  3434 ;;      Params:         0      11       0       0       0
  3435 ;;      Locals:         0       7       0       0       0
  3436 ;;      Temps:          0       3       0       0       0
  3437 ;;      Totals:         0      21       0       0       0
  3438 ;;Total ram usage:       21 bytes
  3439 ;; Hardware stack levels used:    1
  3440 ;; Hardware stack levels required when called:    1
  3441 ;; This function calls:
  3442 ;;		___bmul
  3443 ;;		___lwdiv
  3444 ;;		___lwmod
  3445 ;;		_isdigit
  3446 ;; This function is called by:
  3447 ;;		_main
  3448 ;; This function uses a non-reentrant model
  3449 ;;
  3450                           psect	text1,local,class=CODE,delta=2,merge=1,group=0
  3451                           	file	"C:\Program Files (x86)\Microchip\xc8\v2.00\pic\sources\c90\common\doprnt.c"
  3452                           	line	500
  3453                           global __ptext1
  3454                           __ptext1:	;psect for function _sprintf
  3455  02CA                     psect	text1
  3456                           	file	"C:\Program Files (x86)\Microchip\xc8\v2.00\pic\sources\c90\common\doprnt.c"
  3457                           	line	500
  3458                           	global	__size_of_sprintf
  3459                           	__size_of_sprintf	equ	__end_of_sprintf-_sprintf
  3460  018B                     	
  3461                           _sprintf:	
  3462  02CA                     ;incstack = 0
  3463                           	opt	stack 6
  3464                           ; Regs used in _sprintf: [wreg-fsr0h+status,2+status,0+btemp+1+pclath+cstack]
  3465                           ;sprintf@sp stored from wreg
  3466                           	bcf	status, 5	;RP0=0, select bank0
  3467  02CA  1283               	bcf	status, 6	;RP1=0, select bank0
  3468  02CB  1303               	movwf	(sprintf@sp)
  3469  02CC  00D9               	line	545
  3470                           	
  3471                           l2259:	
  3472  02CD                     ;C:\Program Files (x86)\Microchip\xc8\v2.00\pic\sources\c90\common\doprnt.c: 500: sprint
                                 f(char * sp, const char * f, ...);C:\Program Files (x86)\Microchip\xc8\v2.00\pic\sources
                                 \c90\common\doprnt.c: 501: {;C:\Program Files (x86)\Microchip\xc8\v2.00\pic\sources\c90\
                                 common\doprnt.c: 502:  va_list ap;;C:\Program Files (x86)\Microchip\xc8\v2.00\pic\source
                                 s\c90\common\doprnt.c: 507:  char c;;C:\Program Files (x86)\Microchip\xc8\v2.00\pic\sour
                                 ces\c90\common\doprnt.c: 516:  signed char prec;;C:\Program Files (x86)\Microchip\xc8\v2
                                 .00\pic\sources\c90\common\doprnt.c: 520:  unsigned char flag;
  3473                           	movlw	(low(?_sprintf|((0x0)<<8)+01h))&0ffh
  3474  02CD  304A               	movwf	(??_sprintf+0)+0
  3475  02CE  00D4               	movf	(??_sprintf+0)+0,w
  3476  02CF  0854               	movwf	(sprintf@ap)
  3477  02D0  00D7               	line	548
  3478                           ;C:\Program Files (x86)\Microchip\xc8\v2.00\pic\sources\c90\common\doprnt.c: 548:  while
                                 ((c = *f++)) {
  3479                           	goto	l2335
  3480  02D1  2C3B               	
  3481                           l545:	
  3482  02D2                     	line	550
  3483                           	
  3484                           l2261:	
  3485  02D2                     ;C:\Program Files (x86)\Microchip\xc8\v2.00\pic\sources\c90\common\doprnt.c: 550:   if(c
                                  != '%')
  3486                           		movlw	37
  3487  02D2  3025               	xorwf	((sprintf@c)),w
  3488  02D3  065D               	btfsc	status,2
  3489  02D4  1903               	goto	u1521
  3490  02D5  2AD7               	goto	u1520
  3491  02D6  2AD8               u1521:
  3492  02D7                     	goto	l2267
  3493  02D7  2AE4               u1520:
  3494  02D8                     	line	553
  3495                           	
  3496                           l2263:	
  3497  02D8                     ;C:\Program Files (x86)\Microchip\xc8\v2.00\pic\sources\c90\common\doprnt.c: 552:   {;C:
                                 \Program Files (x86)\Microchip\xc8\v2.00\pic\sources\c90\common\doprnt.c: 553:    ((*sp+
                                 + = (c)));
  3498                           	movf	(sprintf@c),w
  3499  02D8  085D               	movwf	(??_sprintf+0)+0
  3500  02D9  00D4               	movf	(sprintf@sp),w
  3501  02DA  0859               	movwf	fsr0
  3502  02DB  0084               	movf	(??_sprintf+0)+0,w
  3503  02DC  0854               	bcf	status, 7	;select IRP bank0
  3504  02DD  1383               	movwf	indf
  3505  02DE  0080               	
  3506                           l2265:	
  3507  02DF                     	movlw	low(01h)
  3508  02DF  3001               	movwf	(??_sprintf+0)+0
  3509  02E0  00D4               	movf	(??_sprintf+0)+0,w
  3510  02E1  0854               	addwf	(sprintf@sp),f
  3511  02E2  07D9               	line	554
  3512                           ;C:\Program Files (x86)\Microchip\xc8\v2.00\pic\sources\c90\common\doprnt.c: 554:    con
                                 tinue;
  3513                           	goto	l2335
  3514  02E3  2C3B               	line	555
  3515                           ;C:\Program Files (x86)\Microchip\xc8\v2.00\pic\sources\c90\common\doprnt.c: 555:   }
  3516                           	
  3517                           l546:	
  3518  02E4                     	line	560
  3519                           	
  3520                           l2267:	
  3521  02E4                     ;C:\Program Files (x86)\Microchip\xc8\v2.00\pic\sources\c90\common\doprnt.c: 560:   flag
                                  = 0;
  3522                           	clrf	(sprintf@flag)
  3523  02E4  01D8               	line	623
  3524                           	
  3525                           l2269:	
  3526  02E5                     ;C:\Program Files (x86)\Microchip\xc8\v2.00\pic\sources\c90\common\doprnt.c: 623:   if(*
                                 f == '.') {
  3527                           	movf	(sprintf@f),w
  3528  02E5  0849               	movwf	fsr0
  3529  02E6  0084               	fcall	stringdir
  3530  02E7  120A  118A  200D  120A  118A  	xorlw	02Eh
  3531  02EC  3A2E               	skipz
  3532  02ED  1D03               	goto	u1531
  3533  02EE  2AF0               	goto	u1530
  3534  02EF  2AF1               u1531:
  3535  02F0                     	goto	l2281
  3536  02F0  2B29               u1530:
  3537  02F1                     	line	625
  3538                           	
  3539                           l2271:	
  3540  02F1                     ;C:\Program Files (x86)\Microchip\xc8\v2.00\pic\sources\c90\common\doprnt.c: 625:    f++
                                 ;
  3541                           	movlw	low(01h)
  3542  02F1  3001               	movwf	(??_sprintf+0)+0
  3543  02F2  00D4               	movf	(??_sprintf+0)+0,w
  3544  02F3  0854               	addwf	(sprintf@f),f
  3545  02F4  07C9               	line	640
  3546                           	
  3547                           l2273:	
  3548  02F5                     ;C:\Program Files (x86)\Microchip\xc8\v2.00\pic\sources\c90\common\doprnt.c: 639:    {;C
                                 :\Program Files (x86)\Microchip\xc8\v2.00\pic\sources\c90\common\doprnt.c: 640:     prec
                                  = 0;
  3549                           	clrf	(sprintf@prec)
  3550  02F5  01DC               	line	641
  3551                           ;C:\Program Files (x86)\Microchip\xc8\v2.00\pic\sources\c90\common\doprnt.c: 641:     wh
                                 ile(isdigit((unsigned)*f))
  3552                           	goto	l2279
  3553  02F6  2B17               	
  3554                           l549:	
  3555  02F7                     	line	642
  3556                           	
  3557                           l2275:	
  3558  02F7                     ;C:\Program Files (x86)\Microchip\xc8\v2.00\pic\sources\c90\common\doprnt.c: 642:      p
                                 rec = prec*10 + *f++ - '0';
  3559                           	bcf	status, 5	;RP0=0, select bank0
  3560  02F7  1283               	bcf	status, 6	;RP1=0, select bank0
  3561  02F8  1303               	movf	(sprintf@f),w
  3562  02F9  0849               	movwf	fsr0
  3563  02FA  0084               	fcall	stringdir
  3564  02FB  120A  118A  200D  120A  118A  	movwf	(??_sprintf+0)+0
  3565  0300  00D4               	movlw	low(0Ah)
  3566  0301  300A               	movwf	(??_sprintf+1)+0
  3567  0302  00D5               	movf	(??_sprintf+1)+0,w
  3568  0303  0855               	movwf	(___bmul@multiplicand)
  3569  0304  00F0               	movf	(sprintf@prec),w
  3570  0305  085C               	fcall	___bmul
  3571  0306  120A  158A  265D  120A  118A  	bcf	status, 5	;RP0=0, select bank0
  3572  030B  1283               	bcf	status, 6	;RP1=0, select bank0
  3573  030C  1303               	addwf	(??_sprintf+0)+0,w
  3574  030D  0754               	addlw	-48
  3575  030E  3ED0               	movwf	(??_sprintf+2)+0
  3576  030F  00D6               	movf	(??_sprintf+2)+0,w
  3577  0310  0856               	movwf	(sprintf@prec)
  3578  0311  00DC               	
  3579                           l2277:	
  3580  0312                     	movlw	low(01h)
  3581  0312  3001               	movwf	(??_sprintf+0)+0
  3582  0313  00D4               	movf	(??_sprintf+0)+0,w
  3583  0314  0854               	addwf	(sprintf@f),f
  3584  0315  07C9               	goto	l2279
  3585  0316  2B17               	
  3586                           l548:	
  3587  0317                     	line	641
  3588                           	
  3589                           l2279:	
  3590  0317                     ;C:\Program Files (x86)\Microchip\xc8\v2.00\pic\sources\c90\common\doprnt.c: 641:     wh
                                 ile(isdigit((unsigned)*f))
  3591                           	movf	(sprintf@f),w
  3592  0317  0849               	movwf	fsr0
  3593  0318  0084               	fcall	stringdir
  3594  0319  120A  118A  200D  120A  118A  	fcall	_isdigit
  3595  031E  120A  158A  2635  120A  118A  	btfsc	status,0
  3596  0323  1803               	goto	u1541
  3597  0324  2B26               	goto	u1540
  3598  0325  2B27               u1541:
  3599  0326                     	goto	l2275
  3600  0326  2AF7               u1540:
  3601  0327                     	goto	l2285
  3602  0327  2B33               	
  3603                           l550:	
  3604  0328                     	line	644
  3605                           ;C:\Program Files (x86)\Microchip\xc8\v2.00\pic\sources\c90\common\doprnt.c: 643:    };C
                                 :\Program Files (x86)\Microchip\xc8\v2.00\pic\sources\c90\common\doprnt.c: 644:   } else
                                  {
  3606                           	goto	l2285
  3607  0328  2B33               	
  3608                           l547:	
  3609  0329                     	line	645
  3610                           	
  3611                           l2281:	
  3612  0329                     ;C:\Program Files (x86)\Microchip\xc8\v2.00\pic\sources\c90\common\doprnt.c: 645:    pre
                                 c = 0;
  3613                           	bcf	status, 5	;RP0=0, select bank0
  3614  0329  1283               	bcf	status, 6	;RP1=0, select bank0
  3615  032A  1303               	clrf	(sprintf@prec)
  3616  032B  01DC               	goto	l2285
  3617  032C  2B33               	line	649
  3618                           ;C:\Program Files (x86)\Microchip\xc8\v2.00\pic\sources\c90\common\doprnt.c: 649:   }
  3619                           	
  3620                           l551:	
  3621  032D                     	line	654
  3622                           ;C:\Program Files (x86)\Microchip\xc8\v2.00\pic\sources\c90\common\doprnt.c: 654:   swit
                                 ch(c = *f++) {
  3623                           	goto	l2285
  3624  032D  2B33               	line	656
  3625                           ;C:\Program Files (x86)\Microchip\xc8\v2.00\pic\sources\c90\common\doprnt.c: 656:   case
                                  0:
  3626                           	
  3627                           l553:	
  3628  032E                     	line	657
  3629                           ;C:\Program Files (x86)\Microchip\xc8\v2.00\pic\sources\c90\common\doprnt.c: 657:    got
                                 o alldone;
  3630                           	goto	l2337
  3631  032E  2C4F               	line	716
  3632                           ;C:\Program Files (x86)\Microchip\xc8\v2.00\pic\sources\c90\common\doprnt.c: 716:   case
                                  'd':
  3633                           	
  3634                           l555:	
  3635  032F                     	goto	l2287
  3636  032F  2B52               	line	717
  3637                           ;C:\Program Files (x86)\Microchip\xc8\v2.00\pic\sources\c90\common\doprnt.c: 717:   case
                                  'i':
  3638                           	
  3639                           l556:	
  3640  0330                     	line	718
  3641                           ;C:\Program Files (x86)\Microchip\xc8\v2.00\pic\sources\c90\common\doprnt.c: 718:    bre
                                 ak;
  3642                           	goto	l2287
  3643  0330  2B52               	line	821
  3644                           ;C:\Program Files (x86)\Microchip\xc8\v2.00\pic\sources\c90\common\doprnt.c: 821:   defa
                                 ult:
  3645                           	
  3646                           l558:	
  3647  0331                     	line	832
  3648                           ;C:\Program Files (x86)\Microchip\xc8\v2.00\pic\sources\c90\common\doprnt.c: 832:    con
                                 tinue;
  3649                           	goto	l2335
  3650  0331  2C3B               	line	841
  3651                           	
  3652                           l2283:	
  3653  0332                     ;C:\Program Files (x86)\Microchip\xc8\v2.00\pic\sources\c90\common\doprnt.c: 841:   }
  3654                           	goto	l2287
  3655  0332  2B52               	
  3656                           l552:	
  3657  0333                     	
  3658                           l2285:	
  3659  0333                     	movlw	01h
  3660  0333  3001               	bcf	status, 5	;RP0=0, select bank0
  3661  0334  1283               	bcf	status, 6	;RP1=0, select bank0
  3662  0335  1303               	addwf	(sprintf@f),f
  3663  0336  07C9               	movlw	-01h
  3664  0337  30FF               	addwf	(sprintf@f),w
  3665  0338  0749               	movwf	fsr0
  3666  0339  0084               	fcall	stringdir
  3667  033A  120A  118A  200D  120A  118A  	movwf	(sprintf@c)
  3668  033F  00DD               	movwf	(??_sprintf+0)+0
  3669  0340  00D4               	clrf	(??_sprintf+0)+0+1
  3670  0341  01D5               	; Switch on 2 bytes has been partitioned into a top level switch of size 1, and 1 sub-s
                                 witches
  3671                           ; Switch size 1, requested type "space"
  3672                           ; Number of cases is 1, Range of values is 0 to 0
  3673                           ; switch strategies available:
  3674                           ; Name         Instructions Cycles
  3675                           ; simple_byte            4     3 (average)
  3676                           ; direct_byte           11     8 (fixed)
  3677                           ; jumptable            260     6 (fixed)
  3678                           ;	Chosen strategy is simple_byte
  3679                           
  3680                           	movf 1+(??_sprintf+0)+0,w
  3681  0342  0855               	opt asmopt_push
  3682                           	opt asmopt_off
  3683                           	xorlw	0^0	; case 0
  3684  0343  3A00               	skipnz
  3685  0344  1903               	goto	l2697
  3686  0345  2B47               	goto	l2335
  3687  0346  2C3B               	opt asmopt_pop
  3688                           	
  3689                           l2697:	
  3690  0347                     ; Switch size 1, requested type "space"
  3691                           ; Number of cases is 3, Range of values is 0 to 105
  3692                           ; switch strategies available:
  3693                           ; Name         Instructions Cycles
  3694                           ; simple_byte           10     6 (average)
  3695                           ; jumptable            260     6 (fixed)
  3696                           ;	Chosen strategy is simple_byte
  3697                           
  3698                           	movf 0+(??_sprintf+0)+0,w
  3699  0347  0854               	opt asmopt_push
  3700                           	opt asmopt_off
  3701                           	xorlw	0^0	; case 0
  3702  0348  3A00               	skipnz
  3703  0349  1903               	goto	l2337
  3704  034A  2C4F               	xorlw	100^0	; case 100
  3705  034B  3A64               	skipnz
  3706  034C  1903               	goto	l2287
  3707  034D  2B52               	xorlw	105^100	; case 105
  3708  034E  3A0D               	skipnz
  3709  034F  1903               	goto	l2287
  3710  0350  2B52               	goto	l2335
  3711  0351  2C3B               	opt asmopt_pop
  3712                           
  3713                           	
  3714                           l557:	
  3715  0352                     	line	1278
  3716                           	
  3717                           l2287:	
  3718  0352                     ;C:\Program Files (x86)\Microchip\xc8\v2.00\pic\sources\c90\common\doprnt.c: 1272:   {;C
                                 :\Program Files (x86)\Microchip\xc8\v2.00\pic\sources\c90\common\doprnt.c: 1278:     val
                                  = (int)(*(int *)__va_arg((*(int **)ap), (int)0));
  3719                           	movf	(sprintf@ap),w
  3720  0352  0857               	movwf	fsr0
  3721  0353  0084               	bcf	status, 7	;select IRP bank0
  3722  0354  1383               	movf	indf,w
  3723  0355  0800               	movwf	(sprintf@val)
  3724  0356  00DA               	incf	fsr0,f
  3725  0357  0A84               	movf	indf,w
  3726  0358  0800               	movwf	(sprintf@val+1)
  3727  0359  00DB               	
  3728                           l2289:	
  3729  035A                     	movlw	low(02h)
  3730  035A  3002               	movwf	(??_sprintf+0)+0
  3731  035B  00D4               	movf	(??_sprintf+0)+0,w
  3732  035C  0854               	addwf	(sprintf@ap),f
  3733  035D  07D7               	line	1280
  3734                           	
  3735                           l2291:	
  3736  035E                     ;C:\Program Files (x86)\Microchip\xc8\v2.00\pic\sources\c90\common\doprnt.c: 1280:    if
                                 ((int)val < 0) {
  3737                           	btfss	(sprintf@val+1),7
  3738  035E  1FDB               	goto	u1551
  3739  035F  2B61               	goto	u1550
  3740  0360  2B62               u1551:
  3741  0361                     	goto	l2297
  3742  0361  2B6C               u1550:
  3743  0362                     	line	1281
  3744                           	
  3745                           l2293:	
  3746  0362                     ;C:\Program Files (x86)\Microchip\xc8\v2.00\pic\sources\c90\common\doprnt.c: 1281:     f
                                 lag |= 0x03;
  3747                           	movlw	low(03h)
  3748  0362  3003               	movwf	(??_sprintf+0)+0
  3749  0363  00D4               	movf	(??_sprintf+0)+0,w
  3750  0364  0854               	iorwf	(sprintf@flag),f
  3751  0365  04D8               	line	1282
  3752                           	
  3753                           l2295:	
  3754  0366                     ;C:\Program Files (x86)\Microchip\xc8\v2.00\pic\sources\c90\common\doprnt.c: 1282:     v
                                 al = -val;
  3755                           	comf	(sprintf@val),f
  3756  0366  09DA               	comf	(sprintf@val+1),f
  3757  0367  09DB               	incf	(sprintf@val),f
  3758  0368  0ADA               	skipnz
  3759  0369  1903               	incf	(sprintf@val+1),f
  3760  036A  0ADB               	goto	l2297
  3761  036B  2B6C               	line	1283
  3762                           ;C:\Program Files (x86)\Microchip\xc8\v2.00\pic\sources\c90\common\doprnt.c: 1283:    }

  3763                           	
  3764                           l559:	
  3765  036C                     	line	1309
  3766                           	
  3767                           l2297:	
  3768  036C                     ;C:\Program Files (x86)\Microchip\xc8\v2.00\pic\sources\c90\common\doprnt.c: 1285:   };C
                                 :\Program Files (x86)\Microchip\xc8\v2.00\pic\sources\c90\common\doprnt.c: 1309:   if(pr
                                 ec == 0 && val == 0)
  3769                           	movf	((sprintf@prec)),w
  3770  036C  085C               	btfss	status,2
  3771  036D  1D03               	goto	u1561
  3772  036E  2B70               	goto	u1560
  3773  036F  2B71               u1561:
  3774  0370                     	goto	l2303
  3775  0370  2B7C               u1560:
  3776  0371                     	
  3777                           l2299:	
  3778  0371                     	movf	((sprintf@val)),w
  3779  0371  085A               iorwf	((sprintf@val+1)),w
  3780  0372  045B               	btfss	status,2
  3781  0373  1D03               	goto	u1571
  3782  0374  2B76               	goto	u1570
  3783  0375  2B77               u1571:
  3784  0376                     	goto	l2303
  3785  0376  2B7C               u1570:
  3786  0377                     	line	1310
  3787                           	
  3788                           l2301:	
  3789  0377                     ;C:\Program Files (x86)\Microchip\xc8\v2.00\pic\sources\c90\common\doprnt.c: 1310:    pr
                                 ec++;
  3790                           	movlw	low(01h)
  3791  0377  3001               	movwf	(??_sprintf+0)+0
  3792  0378  00D4               	movf	(??_sprintf+0)+0,w
  3793  0379  0854               	addwf	(sprintf@prec),f
  3794  037A  07DC               	goto	l2303
  3795  037B  2B7C               	
  3796                           l560:	
  3797  037C                     	line	1324
  3798                           	
  3799                           l2303:	
  3800  037C                     ;C:\Program Files (x86)\Microchip\xc8\v2.00\pic\sources\c90\common\doprnt.c: 1324:    fo
                                 r(c = 1 ; c != sizeof dpowers/sizeof dpowers[0] ; c++)
  3801                           	clrf	(sprintf@c)
  3802  037C  01DD               	incf	(sprintf@c),f
  3803  037D  0ADD               		movlw	5
  3804  037E  3005               	xorwf	((sprintf@c)),w
  3805  037F  065D               	btfss	status,2
  3806  0380  1D03               	goto	u1581
  3807  0381  2B83               	goto	u1580
  3808  0382  2B84               u1581:
  3809  0383                     	goto	l2307
  3810  0383  2B86               u1580:
  3811  0384                     	goto	l2313
  3812  0384  2BAE               	
  3813                           l2305:	
  3814  0385                     	goto	l2313
  3815  0385  2BAE               	
  3816                           l561:	
  3817  0386                     	line	1325
  3818                           	
  3819                           l2307:	
  3820  0386                     ;C:\Program Files (x86)\Microchip\xc8\v2.00\pic\sources\c90\common\doprnt.c: 1325:     i
                                 f(val < dpowers[c])
  3821                           	movf	(sprintf@c),w
  3822  0386  085D               	movwf	(??_sprintf+0)+0
  3823  0387  00D4               	addwf	(??_sprintf+0)+0,w
  3824  0388  0754               	addlw	low((((_dpowers)-__stringbase)|8000h))
  3825  0389  3E01               	movwf	fsr0
  3826  038A  0084               	fcall	stringdir
  3827  038B  120A  118A  200D  120A  118A  	movwf	(??_sprintf+1)+0
  3828  0390  00D5               	fcall	stringdir
  3829  0391  120A  118A  200D  120A  118A  	movwf	(??_sprintf+1)+0+1
  3830  0396  00D6               	movf	1+(??_sprintf+1)+0,w
  3831  0397  0856               	subwf	(sprintf@val+1),w
  3832  0398  025B               	skipz
  3833  0399  1D03               	goto	u1595
  3834  039A  2B9D               	movf	0+(??_sprintf+1)+0,w
  3835  039B  0855               	subwf	(sprintf@val),w
  3836  039C  025A               u1595:
  3837  039D                     	skipnc
  3838  039D  1803               	goto	u1591
  3839  039E  2BA0               	goto	u1590
  3840  039F  2BA1               u1591:
  3841  03A0                     	goto	l2311
  3842  03A0  2BA3               u1590:
  3843  03A1                     	goto	l2313
  3844  03A1  2BAE               	line	1326
  3845                           	
  3846                           l2309:	
  3847  03A2                     ;C:\Program Files (x86)\Microchip\xc8\v2.00\pic\sources\c90\common\doprnt.c: 1326:      
                                 break;
  3848                           	goto	l2313
  3849  03A2  2BAE               	
  3850                           l563:	
  3851  03A3                     	
  3852                           l2311:	
  3853  03A3                     	movlw	low(01h)
  3854  03A3  3001               	movwf	(??_sprintf+0)+0
  3855  03A4  00D4               	movf	(??_sprintf+0)+0,w
  3856  03A5  0854               	addwf	(sprintf@c),f
  3857  03A6  07DD               		movlw	5
  3858  03A7  3005               	xorwf	((sprintf@c)),w
  3859  03A8  065D               	btfss	status,2
  3860  03A9  1D03               	goto	u1601
  3861  03AA  2BAC               	goto	u1600
  3862  03AB  2BAD               u1601:
  3863  03AC                     	goto	l2307
  3864  03AC  2B86               u1600:
  3865  03AD                     	goto	l2313
  3866  03AD  2BAE               	
  3867                           l562:	
  3868  03AE                     	line	1358
  3869                           	
  3870                           l2313:	
  3871  03AE                     ;C:\Program Files (x86)\Microchip\xc8\v2.00\pic\sources\c90\common\doprnt.c: 1358:   if(
                                 c < prec)
  3872                           	movf	(sprintf@prec),w
  3873  03AE  085C               	movwf	(??_sprintf+0)+0
  3874  03AF  00D4               	clrf	(??_sprintf+0)+0+1
  3875  03B0  01D5               	btfsc	(??_sprintf+0)+0,7
  3876  03B1  1BD4               	decf	(??_sprintf+0)+0+1,f
  3877  03B2  03D5               	movf	1+(??_sprintf+0)+0,w
  3878  03B3  0855               	xorlw	80h
  3879  03B4  3A80               	sublw	080h
  3880  03B5  3C80               	skipz
  3881  03B6  1D03               	goto	u1615
  3882  03B7  2BBA               	movf	0+(??_sprintf+0)+0,w
  3883  03B8  0854               	subwf	(sprintf@c),w
  3884  03B9  025D               u1615:
  3885  03BA                     
  3886                           	skipnc
  3887  03BA  1803               	goto	u1611
  3888  03BB  2BBD               	goto	u1610
  3889  03BC  2BBE               u1611:
  3890  03BD                     	goto	l2317
  3891  03BD  2BC5               u1610:
  3892  03BE                     	line	1359
  3893                           	
  3894                           l2315:	
  3895  03BE                     ;C:\Program Files (x86)\Microchip\xc8\v2.00\pic\sources\c90\common\doprnt.c: 1359:    c 
                                 = prec;
  3896                           	bcf	status, 5	;RP0=0, select bank0
  3897  03BE  1283               	bcf	status, 6	;RP1=0, select bank0
  3898  03BF  1303               	movf	(sprintf@prec),w
  3899  03C0  085C               	movwf	(??_sprintf+0)+0
  3900  03C1  00D4               	movf	(??_sprintf+0)+0,w
  3901  03C2  0854               	movwf	(sprintf@c)
  3902  03C3  00DD               	goto	l2321
  3903  03C4  2BE1               	line	1360
  3904                           ;C:\Program Files (x86)\Microchip\xc8\v2.00\pic\sources\c90\common\doprnt.c: 1360:   els
                                 e if(prec < c)
  3905                           	
  3906                           l564:	
  3907  03C5                     	
  3908                           l2317:	
  3909  03C5                     	bcf	status, 5	;RP0=0, select bank0
  3910  03C5  1283               	bcf	status, 6	;RP1=0, select bank0
  3911  03C6  1303               	movf	(sprintf@prec),w
  3912  03C7  085C               	movwf	(??_sprintf+0)+0
  3913  03C8  00D4               	clrf	(??_sprintf+0)+0+1
  3914  03C9  01D5               	btfsc	(??_sprintf+0)+0,7
  3915  03CA  1BD4               	decf	(??_sprintf+0)+0+1,f
  3916  03CB  03D5               	movf	1+(??_sprintf+0)+0,w
  3917  03CC  0855               	xorlw	80h
  3918  03CD  3A80               	movwf	(??_sprintf+2)+0
  3919  03CE  00D6               	movlw	80h
  3920  03CF  3080               	subwf	(??_sprintf+2)+0,w
  3921  03D0  0256               	skipz
  3922  03D1  1D03               	goto	u1625
  3923  03D2  2BD5               	movf	(sprintf@c),w
  3924  03D3  085D               	subwf	0+(??_sprintf+0)+0,w
  3925  03D4  0254               u1625:
  3926  03D5                     
  3927                           	skipnc
  3928  03D5  1803               	goto	u1621
  3929  03D6  2BD8               	goto	u1620
  3930  03D7  2BD9               u1621:
  3931  03D8                     	goto	l2321
  3932  03D8  2BE1               u1620:
  3933  03D9                     	line	1361
  3934                           	
  3935                           l2319:	
  3936  03D9                     ;C:\Program Files (x86)\Microchip\xc8\v2.00\pic\sources\c90\common\doprnt.c: 1361:    pr
                                 ec = c;
  3937                           	bcf	status, 5	;RP0=0, select bank0
  3938  03D9  1283               	bcf	status, 6	;RP1=0, select bank0
  3939  03DA  1303               	movf	(sprintf@c),w
  3940  03DB  085D               	movwf	(??_sprintf+0)+0
  3941  03DC  00D4               	movf	(??_sprintf+0)+0,w
  3942  03DD  0854               	movwf	(sprintf@prec)
  3943  03DE  00DC               	goto	l2321
  3944  03DF  2BE1               	
  3945                           l566:	
  3946  03E0                     	goto	l2321
  3947  03E0  2BE1               	
  3948                           l565:	
  3949  03E1                     	line	1457
  3950                           	
  3951                           l2321:	
  3952  03E1                     ;C:\Program Files (x86)\Microchip\xc8\v2.00\pic\sources\c90\common\doprnt.c: 1441:   {;C
                                 :\Program Files (x86)\Microchip\xc8\v2.00\pic\sources\c90\common\doprnt.c: 1457:    if(f
                                 lag & 0x03)
  3953                           	bcf	status, 5	;RP0=0, select bank0
  3954  03E1  1283               	bcf	status, 6	;RP1=0, select bank0
  3955  03E2  1303               	movf	(sprintf@flag),w
  3956  03E3  0858               	andlw	03h
  3957  03E4  3903               	btfsc	status,2
  3958  03E5  1903               	goto	u1631
  3959  03E6  2BE8               	goto	u1630
  3960  03E7  2BE9               u1631:
  3961  03E8                     	goto	l2333
  3962  03E8  2C30               u1630:
  3963  03E9                     	line	1458
  3964                           	
  3965                           l2323:	
  3966  03E9                     ;C:\Program Files (x86)\Microchip\xc8\v2.00\pic\sources\c90\common\doprnt.c: 1458:     (
                                 (*sp++ = ('-')));
  3967                           	movlw	low(02Dh)
  3968  03E9  302D               	movwf	(??_sprintf+0)+0
  3969  03EA  00D4               	movf	(sprintf@sp),w
  3970  03EB  0859               	movwf	fsr0
  3971  03EC  0084               	movf	(??_sprintf+0)+0,w
  3972  03ED  0854               	bcf	status, 7	;select IRP bank0
  3973  03EE  1383               	movwf	indf
  3974  03EF  0080               	
  3975                           l2325:	
  3976  03F0                     	movlw	low(01h)
  3977  03F0  3001               	movwf	(??_sprintf+0)+0
  3978  03F1  00D4               	movf	(??_sprintf+0)+0,w
  3979  03F2  0854               	addwf	(sprintf@sp),f
  3980  03F3  07D9               	goto	l2333
  3981  03F4  2C30               	
  3982                           l567:	
  3983  03F5                     	line	1493
  3984                           ;C:\Program Files (x86)\Microchip\xc8\v2.00\pic\sources\c90\common\doprnt.c: 1488:   };C
                                 :\Program Files (x86)\Microchip\xc8\v2.00\pic\sources\c90\common\doprnt.c: 1493:   while
                                 (prec--) {
  3985                           	goto	l2333
  3986  03F5  2C30               	
  3987                           l569:	
  3988  03F6                     	line	1508
  3989                           	
  3990                           l2327:	
  3991  03F6                     ;C:\Program Files (x86)\Microchip\xc8\v2.00\pic\sources\c90\common\doprnt.c: 1497:    {;
                                 C:\Program Files (x86)\Microchip\xc8\v2.00\pic\sources\c90\common\doprnt.c: 1508:     c 
                                 = (val / dpowers[prec]) % 10 + '0';
  3992                           	movlw	0Ah
  3993  03F6  300A               	movwf	(___lwmod@divisor)
  3994  03F7  00F8               	movlw	0
  3995  03F8  3000               	movwf	((___lwmod@divisor))+1
  3996  03F9  00F9               	movf	(sprintf@prec),w
  3997  03FA  085C               	movwf	(??_sprintf+0)+0
  3998  03FB  00D4               	addwf	(??_sprintf+0)+0,w
  3999  03FC  0754               	addlw	low((((_dpowers)-__stringbase)|8000h))
  4000  03FD  3E01               	movwf	fsr0
  4001  03FE  0084               	fcall	stringdir
  4002  03FF  120A  118A  200D  120A  118A  	movwf	(___lwdiv@divisor)
  4003  0404  00F0               	fcall	stringdir
  4004  0405  120A  118A  200D  120A  118A  	movwf	(___lwdiv@divisor+1)
  4005  040A  00F1               	movf	(sprintf@val+1),w
  4006  040B  085B               	movwf	(___lwdiv@dividend+1)
  4007  040C  00F3               	movf	(sprintf@val),w
  4008  040D  085A               	movwf	(___lwdiv@dividend)
  4009  040E  00F2               	fcall	___lwdiv
  4010  040F  120A  118A  218D  120A  118A  	movf	(1+(?___lwdiv)),w
  4011  0414  0871               	movwf	(___lwmod@dividend+1)
  4012  0415  00FB               	movf	(0+(?___lwdiv)),w
  4013  0416  0870               	movwf	(___lwmod@dividend)
  4014  0417  00FA               	fcall	___lwmod
  4015  0418  120A  118A  2108  120A  118A  	movf	(0+(?___lwmod)),w
  4016  041D  0878               	addlw	030h
  4017  041E  3E30               	bcf	status, 5	;RP0=0, select bank0
  4018  041F  1283               	bcf	status, 6	;RP1=0, select bank0
  4019  0420  1303               	movwf	(??_sprintf+1)+0
  4020  0421  00D5               	movf	(??_sprintf+1)+0,w
  4021  0422  0855               	movwf	(sprintf@c)
  4022  0423  00DD               	line	1543
  4023                           	
  4024                           l2329:	
  4025  0424                     ;C:\Program Files (x86)\Microchip\xc8\v2.00\pic\sources\c90\common\doprnt.c: 1542:    };
                                 C:\Program Files (x86)\Microchip\xc8\v2.00\pic\sources\c90\common\doprnt.c: 1543:    ((*
                                 sp++ = (c)));
  4026                           	movf	(sprintf@c),w
  4027  0424  085D               	movwf	(??_sprintf+0)+0
  4028  0425  00D4               	movf	(sprintf@sp),w
  4029  0426  0859               	movwf	fsr0
  4030  0427  0084               	movf	(??_sprintf+0)+0,w
  4031  0428  0854               	bcf	status, 7	;select IRP bank0
  4032  0429  1383               	movwf	indf
  4033  042A  0080               	
  4034                           l2331:	
  4035  042B                     	movlw	low(01h)
  4036  042B  3001               	movwf	(??_sprintf+0)+0
  4037  042C  00D4               	movf	(??_sprintf+0)+0,w
  4038  042D  0854               	addwf	(sprintf@sp),f
  4039  042E  07D9               	goto	l2333
  4040  042F  2C30               	line	1544
  4041                           ;C:\Program Files (x86)\Microchip\xc8\v2.00\pic\sources\c90\common\doprnt.c: 1544:   }
  4042                           	
  4043                           l568:	
  4044  0430                     	line	1493
  4045                           	
  4046                           l2333:	
  4047  0430                     ;C:\Program Files (x86)\Microchip\xc8\v2.00\pic\sources\c90\common\doprnt.c: 1493:   whi
                                 le(prec--) {
  4048                           	movlw	low(-1)
  4049  0430  30FF               	movwf	(??_sprintf+0)+0
  4050  0431  00D4               	movf	(??_sprintf+0)+0,w
  4051  0432  0854               	addwf	(sprintf@prec),f
  4052  0433  07DC               		incf	(((sprintf@prec))),w
  4053  0434  0A5C               	btfss	status,2
  4054  0435  1D03               	goto	u1641
  4055  0436  2C38               	goto	u1640
  4056  0437  2C39               u1641:
  4057  0438                     	goto	l2327
  4058  0438  2BF6               u1640:
  4059  0439                     	goto	l2335
  4060  0439  2C3B               	
  4061                           l570:	
  4062  043A                     	goto	l2335
  4063  043A  2C3B               	line	1552
  4064                           ;C:\Program Files (x86)\Microchip\xc8\v2.00\pic\sources\c90\common\doprnt.c: 1552:  }
  4065                           	
  4066                           l544:	
  4067  043B                     	line	548
  4068                           	
  4069                           l2335:	
  4070  043B                     ;C:\Program Files (x86)\Microchip\xc8\v2.00\pic\sources\c90\common\doprnt.c: 548:  while
                                 ((c = *f++)) {
  4071                           	movlw	01h
  4072  043B  3001               	addwf	(sprintf@f),f
  4073  043C  07C9               	movlw	-01h
  4074  043D  30FF               	addwf	(sprintf@f),w
  4075  043E  0749               	movwf	fsr0
  4076  043F  0084               	fcall	stringdir
  4077  0440  120A  118A  200D  120A  118A  	movwf	(??_sprintf+0)+0
  4078  0445  00D4               	movf	(??_sprintf+0)+0,w
  4079  0446  0854               	movwf	(sprintf@c)
  4080  0447  00DD               	movf	(((sprintf@c))),w
  4081  0448  085D               	btfss	status,2
  4082  0449  1D03               	goto	u1651
  4083  044A  2C4C               	goto	u1650
  4084  044B  2C4D               u1651:
  4085  044C                     	goto	l2261
  4086  044C  2AD2               u1650:
  4087  044D                     	goto	l2337
  4088  044D  2C4F               	
  4089                           l571:	
  4090  044E                     	goto	l2337
  4091  044E  2C4F               	line	1554
  4092                           ;C:\Program Files (x86)\Microchip\xc8\v2.00\pic\sources\c90\common\doprnt.c: 1554: alldo
                                 ne:
  4093                           	
  4094                           l554:	
  4095  044F                     	line	1557
  4096                           	
  4097                           l2337:	
  4098  044F                     ;C:\Program Files (x86)\Microchip\xc8\v2.00\pic\sources\c90\common\doprnt.c: 1557:  *sp 
                                 = 0;
  4099                           	movf	(sprintf@sp),w
  4100  044F  0859               	movwf	fsr0
  4101  0450  0084               	bcf	status, 7	;select IRP bank0
  4102  0451  1383               	clrf	indf
  4103  0452  0180               	goto	l572
  4104  0453  2C54               	line	1559
  4105                           	
  4106                           l2339:	
  4107  0454                     	line	1560
  4108                           ;C:\Program Files (x86)\Microchip\xc8\v2.00\pic\sources\c90\common\doprnt.c: 1559:  retu
                                 rn 0;;	Return value of _sprintf is never used
  4109                           	
  4110                           l572:	
  4111  0454                     	return
  4112  0454  0008               	opt stack 0
  4113                           GLOBAL	__end_of_sprintf
  4114                           	__end_of_sprintf:
  4115  0455                     	signat	_sprintf,4698
  4116                           	global	___lwmod
  4117                           
  4118 ;; *************** function ___lwmod *****************
  4119 ;; Defined at:
  4120 ;;		line 5 in file "C:\Program Files (x86)\Microchip\xc8\v2.00\pic\sources\c90\common\lwmod.c"
  4121 ;; Parameters:    Size  Location     Type
  4122 ;;  divisor         2    8[COMMON] unsigned int 
  4123 ;;  dividend        2   10[COMMON] unsigned int 
  4124 ;; Auto vars:     Size  Location     Type
  4125 ;;  counter         1   13[COMMON] unsigned char 
  4126 ;; Return value:  Size  Location     Type
  4127 ;;                  2    8[COMMON] unsigned int 
  4128 ;; Registers used:
  4129 ;;		wreg, status,2, status,0
  4130 ;; Tracked objects:
  4131 ;;		On entry : 0/0
  4132 ;;		On exit  : 0/0
  4133 ;;		Unchanged: 0/0
  4134 ;; Data sizes:     COMMON   BANK0   BANK1   BANK3   BANK2
  4135 ;;      Params:         4       0       0       0       0
  4136 ;;      Locals:         1       0       0       0       0
  4137 ;;      Temps:          1       0       0       0       0
  4138 ;;      Totals:         6       0       0       0       0
  4139 ;;Total ram usage:        6 bytes
  4140 ;; Hardware stack levels used:    1
  4141 ;; This function calls:
  4142 ;;		Nothing
  4143 ;; This function is called by:
  4144 ;;		_sprintf
  4145 ;; This function uses a non-reentrant model
  4146 ;;
  4147                           psect	text2,local,class=CODE,delta=2,merge=1,group=1
  4148                           	file	"C:\Program Files (x86)\Microchip\xc8\v2.00\pic\sources\c90\common\lwmod.c"
  4149                           	line	5
  4150                           global __ptext2
  4151                           __ptext2:	;psect for function ___lwmod
  4152  0108                     psect	text2
  4153                           	file	"C:\Program Files (x86)\Microchip\xc8\v2.00\pic\sources\c90\common\lwmod.c"
  4154                           	line	5
  4155                           	global	__size_of___lwmod
  4156                           	__size_of___lwmod	equ	__end_of___lwmod-___lwmod
  4157  0041                     	
  4158                           ___lwmod:	
  4159  0108                     ;incstack = 0
  4160                           	opt	stack 6
  4161                           ; Regs used in ___lwmod: [wreg+status,2+status,0]
  4162                           	line	12
  4163                           	
  4164                           l2135:	
  4165  0108                     	movf	((___lwmod@divisor)),w
  4166  0108  0878               iorwf	((___lwmod@divisor+1)),w
  4167  0109  0479               	btfsc	status,2
  4168  010A  1903               	goto	u1321
  4169  010B  290D               	goto	u1320
  4170  010C  290E               u1321:
  4171  010D                     	goto	l2153
  4172  010D  2943               u1320:
  4173  010E                     	line	13
  4174                           	
  4175                           l2137:	
  4176  010E                     	clrf	(___lwmod@counter)
  4177  010E  01FD               	incf	(___lwmod@counter),f
  4178  010F  0AFD               	line	14
  4179                           	goto	l2143
  4180  0110  291D               	
  4181                           l853:	
  4182  0111                     	line	15
  4183                           	
  4184                           l2139:	
  4185  0111                     	movlw	01h
  4186  0111  3001               	
  4187                           u1335:
  4188  0112                     	clrc
  4189  0112  1003               	rlf	(___lwmod@divisor),f
  4190  0113  0DF8               	rlf	(___lwmod@divisor+1),f
  4191  0114  0DF9               	addlw	-1
  4192  0115  3EFF               	skipz
  4193  0116  1D03               	goto	u1335
  4194  0117  2912               	line	16
  4195                           	
  4196                           l2141:	
  4197  0118                     	movlw	low(01h)
  4198  0118  3001               	movwf	(??___lwmod+0)+0
  4199  0119  00FC               	movf	(??___lwmod+0)+0,w
  4200  011A  087C               	addwf	(___lwmod@counter),f
  4201  011B  07FD               	goto	l2143
  4202  011C  291D               	line	17
  4203                           	
  4204                           l852:	
  4205  011D                     	line	14
  4206                           	
  4207                           l2143:	
  4208  011D                     	btfss	(___lwmod@divisor+1),(15)&7
  4209  011D  1FF9               	goto	u1341
  4210  011E  2920               	goto	u1340
  4211  011F  2921               u1341:
  4212  0120                     	goto	l2139
  4213  0120  2911               u1340:
  4214  0121                     	goto	l2145
  4215  0121  2923               	
  4216                           l854:	
  4217  0122                     	goto	l2145
  4218  0122  2923               	line	18
  4219                           	
  4220                           l855:	
  4221  0123                     	line	19
  4222                           	
  4223                           l2145:	
  4224  0123                     	movf	(___lwmod@divisor+1),w
  4225  0123  0879               	subwf	(___lwmod@dividend+1),w
  4226  0124  027B               	skipz
  4227  0125  1D03               	goto	u1355
  4228  0126  2929               	movf	(___lwmod@divisor),w
  4229  0127  0878               	subwf	(___lwmod@dividend),w
  4230  0128  027A               u1355:
  4231  0129                     	skipc
  4232  0129  1C03               	goto	u1351
  4233  012A  292C               	goto	u1350
  4234  012B  292D               u1351:
  4235  012C                     	goto	l2149
  4236  012C  2934               u1350:
  4237  012D                     	line	20
  4238                           	
  4239                           l2147:	
  4240  012D                     	movf	(___lwmod@divisor),w
  4241  012D  0878               	subwf	(___lwmod@dividend),f
  4242  012E  02FA               	movf	(___lwmod@divisor+1),w
  4243  012F  0879               	skipc
  4244  0130  1C03               	decf	(___lwmod@dividend+1),f
  4245  0131  03FB               	subwf	(___lwmod@dividend+1),f
  4246  0132  02FB               	goto	l2149
  4247  0133  2934               	
  4248                           l856:	
  4249  0134                     	line	21
  4250                           	
  4251                           l2149:	
  4252  0134                     	movlw	01h
  4253  0134  3001               	
  4254                           u1365:
  4255  0135                     	clrc
  4256  0135  1003               	rrf	(___lwmod@divisor+1),f
  4257  0136  0CF9               	rrf	(___lwmod@divisor),f
  4258  0137  0CF8               	addlw	-1
  4259  0138  3EFF               	skipz
  4260  0139  1D03               	goto	u1365
  4261  013A  2935               	line	22
  4262                           	
  4263                           l2151:	
  4264  013B                     	movlw	01h
  4265  013B  3001               	subwf	(___lwmod@counter),f
  4266  013C  02FD               	btfss	status,2
  4267  013D  1D03               	goto	u1371
  4268  013E  2940               	goto	u1370
  4269  013F  2941               u1371:
  4270  0140                     	goto	l2145
  4271  0140  2923               u1370:
  4272  0141                     	goto	l2153
  4273  0141  2943               	
  4274                           l857:	
  4275  0142                     	goto	l2153
  4276  0142  2943               	line	23
  4277                           	
  4278                           l851:	
  4279  0143                     	line	24
  4280                           	
  4281                           l2153:	
  4282  0143                     	movf	(___lwmod@dividend+1),w
  4283  0143  087B               	movwf	(?___lwmod+1)
  4284  0144  00F9               	movf	(___lwmod@dividend),w
  4285  0145  087A               	movwf	(?___lwmod)
  4286  0146  00F8               	goto	l858
  4287  0147  2948               	
  4288                           l2155:	
  4289  0148                     	line	25
  4290                           	
  4291                           l858:	
  4292  0148                     	return
  4293  0148  0008               	opt stack 0
  4294                           GLOBAL	__end_of___lwmod
  4295                           	__end_of___lwmod:
  4296  0149                     	signat	___lwmod,8314
  4297                           	global	___lwdiv
  4298                           
  4299 ;; *************** function ___lwdiv *****************
  4300 ;; Defined at:
  4301 ;;		line 5 in file "C:\Program Files (x86)\Microchip\xc8\v2.00\pic\sources\c90\common\lwdiv.c"
  4302 ;; Parameters:    Size  Location     Type
  4303 ;;  divisor         2    0[COMMON] unsigned int 
  4304 ;;  dividend        2    2[COMMON] unsigned int 
  4305 ;; Auto vars:     Size  Location     Type
  4306 ;;  quotient        2    5[COMMON] unsigned int 
  4307 ;;  counter         1    7[COMMON] unsigned char 
  4308 ;; Return value:  Size  Location     Type
  4309 ;;                  2    0[COMMON] unsigned int 
  4310 ;; Registers used:
  4311 ;;		wreg, status,2, status,0
  4312 ;; Tracked objects:
  4313 ;;		On entry : 0/0
  4314 ;;		On exit  : 0/0
  4315 ;;		Unchanged: 0/0
  4316 ;; Data sizes:     COMMON   BANK0   BANK1   BANK3   BANK2
  4317 ;;      Params:         4       0       0       0       0
  4318 ;;      Locals:         3       0       0       0       0
  4319 ;;      Temps:          1       0       0       0       0
  4320 ;;      Totals:         8       0       0       0       0
  4321 ;;Total ram usage:        8 bytes
  4322 ;; Hardware stack levels used:    1
  4323 ;; This function calls:
  4324 ;;		Nothing
  4325 ;; This function is called by:
  4326 ;;		_sprintf
  4327 ;; This function uses a non-reentrant model
  4328 ;;
  4329                           psect	text3,local,class=CODE,delta=2,merge=1,group=1
  4330                           	file	"C:\Program Files (x86)\Microchip\xc8\v2.00\pic\sources\c90\common\lwdiv.c"
  4331                           	line	5
  4332                           global __ptext3
  4333                           __ptext3:	;psect for function ___lwdiv
  4334  018D                     psect	text3
  4335                           	file	"C:\Program Files (x86)\Microchip\xc8\v2.00\pic\sources\c90\common\lwdiv.c"
  4336                           	line	5
  4337                           	global	__size_of___lwdiv
  4338                           	__size_of___lwdiv	equ	__end_of___lwdiv-___lwdiv
  4339  004B                     	
  4340                           ___lwdiv:	
  4341  018D                     ;incstack = 0
  4342                           	opt	stack 6
  4343                           ; Regs used in ___lwdiv: [wreg+status,2+status,0]
  4344                           	line	13
  4345                           	
  4346                           l2109:	
  4347  018D                     	clrf	(___lwdiv@quotient)
  4348  018D  01F5               	clrf	(___lwdiv@quotient+1)
  4349  018E  01F6               	line	14
  4350                           	
  4351                           l2111:	
  4352  018F                     	movf	((___lwdiv@divisor)),w
  4353  018F  0870               iorwf	((___lwdiv@divisor+1)),w
  4354  0190  0471               	btfsc	status,2
  4355  0191  1903               	goto	u1251
  4356  0192  2994               	goto	u1250
  4357  0193  2995               u1251:
  4358  0194                     	goto	l2131
  4359  0194  29D2               u1250:
  4360  0195                     	line	15
  4361                           	
  4362                           l2113:	
  4363  0195                     	clrf	(___lwdiv@counter)
  4364  0195  01F7               	incf	(___lwdiv@counter),f
  4365  0196  0AF7               	line	16
  4366                           	goto	l2119
  4367  0197  29A4               	
  4368                           l843:	
  4369  0198                     	line	17
  4370                           	
  4371                           l2115:	
  4372  0198                     	movlw	01h
  4373  0198  3001               	
  4374                           u1265:
  4375  0199                     	clrc
  4376  0199  1003               	rlf	(___lwdiv@divisor),f
  4377  019A  0DF0               	rlf	(___lwdiv@divisor+1),f
  4378  019B  0DF1               	addlw	-1
  4379  019C  3EFF               	skipz
  4380  019D  1D03               	goto	u1265
  4381  019E  2999               	line	18
  4382                           	
  4383                           l2117:	
  4384  019F                     	movlw	low(01h)
  4385  019F  3001               	movwf	(??___lwdiv+0)+0
  4386  01A0  00F4               	movf	(??___lwdiv+0)+0,w
  4387  01A1  0874               	addwf	(___lwdiv@counter),f
  4388  01A2  07F7               	goto	l2119
  4389  01A3  29A4               	line	19
  4390                           	
  4391                           l842:	
  4392  01A4                     	line	16
  4393                           	
  4394                           l2119:	
  4395  01A4                     	btfss	(___lwdiv@divisor+1),(15)&7
  4396  01A4  1FF1               	goto	u1271
  4397  01A5  29A7               	goto	u1270
  4398  01A6  29A8               u1271:
  4399  01A7                     	goto	l2115
  4400  01A7  2998               u1270:
  4401  01A8                     	goto	l2121
  4402  01A8  29AA               	
  4403                           l844:	
  4404  01A9                     	goto	l2121
  4405  01A9  29AA               	line	20
  4406                           	
  4407                           l845:	
  4408  01AA                     	line	21
  4409                           	
  4410                           l2121:	
  4411  01AA                     	movlw	01h
  4412  01AA  3001               	
  4413                           u1285:
  4414  01AB                     	clrc
  4415  01AB  1003               	rlf	(___lwdiv@quotient),f
  4416  01AC  0DF5               	rlf	(___lwdiv@quotient+1),f
  4417  01AD  0DF6               	addlw	-1
  4418  01AE  3EFF               	skipz
  4419  01AF  1D03               	goto	u1285
  4420  01B0  29AB               	line	22
  4421                           	movf	(___lwdiv@divisor+1),w
  4422  01B1  0871               	subwf	(___lwdiv@dividend+1),w
  4423  01B2  0273               	skipz
  4424  01B3  1D03               	goto	u1295
  4425  01B4  29B7               	movf	(___lwdiv@divisor),w
  4426  01B5  0870               	subwf	(___lwdiv@dividend),w
  4427  01B6  0272               u1295:
  4428  01B7                     	skipc
  4429  01B7  1C03               	goto	u1291
  4430  01B8  29BA               	goto	u1290
  4431  01B9  29BB               u1291:
  4432  01BA                     	goto	l2127
  4433  01BA  29C3               u1290:
  4434  01BB                     	line	23
  4435                           	
  4436                           l2123:	
  4437  01BB                     	movf	(___lwdiv@divisor),w
  4438  01BB  0870               	subwf	(___lwdiv@dividend),f
  4439  01BC  02F2               	movf	(___lwdiv@divisor+1),w
  4440  01BD  0871               	skipc
  4441  01BE  1C03               	decf	(___lwdiv@dividend+1),f
  4442  01BF  03F3               	subwf	(___lwdiv@dividend+1),f
  4443  01C0  02F3               	line	24
  4444                           	
  4445                           l2125:	
  4446  01C1                     	bsf	(___lwdiv@quotient)+(0/8),(0)&7
  4447  01C1  1475               	goto	l2127
  4448  01C2  29C3               	line	25
  4449                           	
  4450                           l846:	
  4451  01C3                     	line	26
  4452                           	
  4453                           l2127:	
  4454  01C3                     	movlw	01h
  4455  01C3  3001               	
  4456                           u1305:
  4457  01C4                     	clrc
  4458  01C4  1003               	rrf	(___lwdiv@divisor+1),f
  4459  01C5  0CF1               	rrf	(___lwdiv@divisor),f
  4460  01C6  0CF0               	addlw	-1
  4461  01C7  3EFF               	skipz
  4462  01C8  1D03               	goto	u1305
  4463  01C9  29C4               	line	27
  4464                           	
  4465                           l2129:	
  4466  01CA                     	movlw	01h
  4467  01CA  3001               	subwf	(___lwdiv@counter),f
  4468  01CB  02F7               	btfss	status,2
  4469  01CC  1D03               	goto	u1311
  4470  01CD  29CF               	goto	u1310
  4471  01CE  29D0               u1311:
  4472  01CF                     	goto	l2121
  4473  01CF  29AA               u1310:
  4474  01D0                     	goto	l2131
  4475  01D0  29D2               	
  4476                           l847:	
  4477  01D1                     	goto	l2131
  4478  01D1  29D2               	line	28
  4479                           	
  4480                           l841:	
  4481  01D2                     	line	29
  4482                           	
  4483                           l2131:	
  4484  01D2                     	movf	(___lwdiv@quotient+1),w
  4485  01D2  0876               	movwf	(?___lwdiv+1)
  4486  01D3  00F1               	movf	(___lwdiv@quotient),w
  4487  01D4  0875               	movwf	(?___lwdiv)
  4488  01D5  00F0               	goto	l848
  4489  01D6  29D7               	
  4490                           l2133:	
  4491  01D7                     	line	30
  4492                           	
  4493                           l848:	
  4494  01D7                     	return
  4495  01D7  0008               	opt stack 0
  4496                           GLOBAL	__end_of___lwdiv
  4497                           	__end_of___lwdiv:
  4498  01D8                     	signat	___lwdiv,8314
  4499                           	global	___bmul
  4500                           
  4501 ;; *************** function ___bmul *****************
  4502 ;; Defined at:
  4503 ;;		line 4 in file "C:\Program Files (x86)\Microchip\xc8\v2.00\pic\sources\c90\common\Umul8.c"
  4504 ;; Parameters:    Size  Location     Type
  4505 ;;  multiplier      1    wreg     unsigned char 
  4506 ;;  multiplicand    1    0[COMMON] unsigned char 
  4507 ;; Auto vars:     Size  Location     Type
  4508 ;;  multiplier      1    3[COMMON] unsigned char 
  4509 ;;  product         1    2[COMMON] unsigned char 
  4510 ;; Return value:  Size  Location     Type
  4511 ;;                  1    wreg      unsigned char 
  4512 ;; Registers used:
  4513 ;;		wreg, status,2, status,0
  4514 ;; Tracked objects:
  4515 ;;		On entry : 0/0
  4516 ;;		On exit  : 0/0
  4517 ;;		Unchanged: 0/0
  4518 ;; Data sizes:     COMMON   BANK0   BANK1   BANK3   BANK2
  4519 ;;      Params:         1       0       0       0       0
  4520 ;;      Locals:         2       0       0       0       0
  4521 ;;      Temps:          1       0       0       0       0
  4522 ;;      Totals:         4       0       0       0       0
  4523 ;;Total ram usage:        4 bytes
  4524 ;; Hardware stack levels used:    1
  4525 ;; This function calls:
  4526 ;;		Nothing
  4527 ;; This function is called by:
  4528 ;;		_sprintf
  4529 ;; This function uses a non-reentrant model
  4530 ;;
  4531                           psect	text4,local,class=CODE,delta=2,merge=1,group=1
  4532                           	file	"C:\Program Files (x86)\Microchip\xc8\v2.00\pic\sources\c90\common\Umul8.c"
  4533                           	line	4
  4534                           global __ptext4
  4535                           __ptext4:	;psect for function ___bmul
  4536  0E5D                     psect	text4
  4537                           	file	"C:\Program Files (x86)\Microchip\xc8\v2.00\pic\sources\c90\common\Umul8.c"
  4538                           	line	4
  4539                           	global	__size_of___bmul
  4540                           	__size_of___bmul	equ	__end_of___bmul-___bmul
  4541  0019                     	
  4542                           ___bmul:	
  4543  0E5D                     ;incstack = 0
  4544                           	opt	stack 6
  4545                           ; Regs used in ___bmul: [wreg+status,2+status,0]
  4546                           ;___bmul@multiplier stored from wreg
  4547                           	movwf	(___bmul@multiplier)
  4548  0E5D  00F3               	line	6
  4549                           	
  4550                           l2071:	
  4551  0E5E                     	clrf	(___bmul@product)
  4552  0E5E  01F2               	goto	l2073
  4553  0E5F  2E60               	line	42
  4554                           	
  4555                           l599:	
  4556  0E60                     	line	43
  4557                           	
  4558                           l2073:	
  4559  0E60                     	btfss	(___bmul@multiplier),(0)&7
  4560  0E60  1C73               	goto	u1161
  4561  0E61  2E63               	goto	u1160
  4562  0E62  2E64               u1161:
  4563  0E63                     	goto	l2077
  4564  0E63  2E69               u1160:
  4565  0E64                     	line	44
  4566                           	
  4567                           l2075:	
  4568  0E64                     	movf	(___bmul@multiplicand),w
  4569  0E64  0870               	movwf	(??___bmul+0)+0
  4570  0E65  00F1               	movf	(??___bmul+0)+0,w
  4571  0E66  0871               	addwf	(___bmul@product),f
  4572  0E67  07F2               	goto	l2077
  4573  0E68  2E69               	
  4574                           l600:	
  4575  0E69                     	line	45
  4576                           	
  4577                           l2077:	
  4578  0E69                     	clrc
  4579  0E69  1003               	rlf	(___bmul@multiplicand),f
  4580  0E6A  0DF0               
  4581                           	line	46
  4582                           	
  4583                           l2079:	
  4584  0E6B                     	clrc
  4585  0E6B  1003               	rrf	(___bmul@multiplier),f
  4586  0E6C  0CF3               
  4587                           	line	47
  4588                           	movf	((___bmul@multiplier)),w
  4589  0E6D  0873               	btfss	status,2
  4590  0E6E  1D03               	goto	u1171
  4591  0E6F  2E71               	goto	u1170
  4592  0E70  2E72               u1171:
  4593  0E71                     	goto	l2073
  4594  0E71  2E60               u1170:
  4595  0E72                     	goto	l2081
  4596  0E72  2E73               	
  4597                           l601:	
  4598  0E73                     	line	50
  4599                           	
  4600                           l2081:	
  4601  0E73                     	movf	(___bmul@product),w
  4602  0E73  0872               	goto	l602
  4603  0E74  2E75               	
  4604                           l2083:	
  4605  0E75                     	line	51
  4606                           	
  4607                           l602:	
  4608  0E75                     	return
  4609  0E75  0008               	opt stack 0
  4610                           GLOBAL	__end_of___bmul
  4611                           	__end_of___bmul:
  4612  0E76                     	signat	___bmul,8313
  4613                           	global	_servo180
  4614                           
  4615 ;; *************** function _servo180 *****************
  4616 ;; Defined at:
  4617 ;;		line 243 in file "Pri-Master.c"
  4618 ;; Parameters:    Size  Location     Type
  4619 ;;		None
  4620 ;; Auto vars:     Size  Location     Type
  4621 ;;  i               2    2[COMMON] unsigned int 
  4622 ;; Return value:  Size  Location     Type
  4623 ;;                  1    wreg      void 
  4624 ;; Registers used:
  4625 ;;		wreg, status,2
  4626 ;; Tracked objects:
  4627 ;;		On entry : 0/0
  4628 ;;		On exit  : 0/0
  4629 ;;		Unchanged: 0/0
  4630 ;; Data sizes:     COMMON   BANK0   BANK1   BANK3   BANK2
  4631 ;;      Params:         0       0       0       0       0
  4632 ;;      Locals:         2       0       0       0       0
  4633 ;;      Temps:          2       0       0       0       0
  4634 ;;      Totals:         4       0       0       0       0
  4635 ;;Total ram usage:        4 bytes
  4636 ;; Hardware stack levels used:    1
  4637 ;; This function calls:
  4638 ;;		Nothing
  4639 ;; This function is called by:
  4640 ;;		_main
  4641 ;; This function uses a non-reentrant model
  4642 ;;
  4643                           psect	text5,local,class=CODE,delta=2,merge=1,group=0
  4644                           	file	"Pri-Master.c"
  4645                           	line	243
  4646                           global __ptext5
  4647                           __ptext5:	;psect for function _servo180
  4648  005F                     psect	text5
  4649                           	file	"Pri-Master.c"
  4650                           	line	243
  4651                           	global	__size_of_servo180
  4652                           	__size_of_servo180	equ	__end_of_servo180-_servo180
  4653  0035                     	
  4654                           _servo180:	
  4655  005F                     ;incstack = 0
  4656                           	opt	stack 7
  4657                           ; Regs used in _servo180: [wreg+status,2]
  4658                           	line	246
  4659                           	
  4660                           l2359:	
  4661  005F                     	clrf	(servo180@i)
  4662  005F  01F2               	clrf	(servo180@i+1)
  4663  0060  01F3               	
  4664                           l2361:	
  4665  0061                     	movlw	0
  4666  0061  3000               	subwf	(servo180@i+1),w
  4667  0062  0273               	movlw	032h
  4668  0063  3032               	skipnz
  4669  0064  1903               	subwf	(servo180@i),w
  4670  0065  0272               	skipc
  4671  0066  1C03               	goto	u1691
  4672  0067  2869               	goto	u1690
  4673  0068  286A               u1691:
  4674  0069                     	goto	l408
  4675  0069  286C               u1690:
  4676  006A                     	goto	l410
  4677  006A  2893               	
  4678                           l2363:	
  4679  006B                     	goto	l410
  4680  006B  2893               	
  4681                           l408:	
  4682  006C                     	line	248
  4683                           	bcf	status, 5	;RP0=0, select bank0
  4684  006C  1283               	bcf	status, 6	;RP1=0, select bank0
  4685  006D  1303               	bsf	(5),0	;volatile
  4686  006E  1405               	line	249
  4687                           	
  4688                           l2365:	
  4689  006F                     	opt asmopt_push
  4690                           opt asmopt_off
  4691                           movlw	3
  4692  006F  3003               movwf	((??_servo180+0)+0+1),f
  4693  0070  00F1               	movlw	151
  4694  0071  3097               movwf	((??_servo180+0)+0),f
  4695  0072  00F0               	u1897:
  4696  0073                     decfsz	((??_servo180+0)+0),f
  4697  0073  0BF0               	goto	u1897
  4698  0074  2873               	decfsz	((??_servo180+0)+0+1),f
  4699  0075  0BF1               	goto	u1897
  4700  0076  2873               	nop2
  4701  0077  2878               opt asmopt_pop
  4702                           
  4703                           	line	250
  4704                           	
  4705                           l2367:	
  4706  0078                     	bcf	status, 5	;RP0=0, select bank0
  4707  0078  1283               	bcf	status, 6	;RP1=0, select bank0
  4708  0079  1303               	bcf	(5),0	;volatile
  4709  007A  1005               	line	251
  4710                           	opt asmopt_push
  4711                           opt asmopt_off
  4712                           movlw	24
  4713  007B  3018               movwf	((??_servo180+0)+0+1),f
  4714  007C  00F1               	movlw	95
  4715  007D  305F               movwf	((??_servo180+0)+0),f
  4716  007E  00F0               	u1907:
  4717  007F                     decfsz	((??_servo180+0)+0),f
  4718  007F  0BF0               	goto	u1907
  4719  0080  287F               	decfsz	((??_servo180+0)+0+1),f
  4720  0081  0BF1               	goto	u1907
  4721  0082  287F               opt asmopt_pop
  4722                           
  4723                           	line	252
  4724                           	movlw	01h
  4725  0083  3001               	addwf	(servo180@i),f
  4726  0084  07F2               	skipnc
  4727  0085  1803               	incf	(servo180@i+1),f
  4728  0086  0AF3               	movlw	0
  4729  0087  3000               	addwf	(servo180@i+1),f
  4730  0088  07F3               	movlw	0
  4731  0089  3000               	subwf	(servo180@i+1),w
  4732  008A  0273               	movlw	032h
  4733  008B  3032               	skipnz
  4734  008C  1903               	subwf	(servo180@i),w
  4735  008D  0272               	skipc
  4736  008E  1C03               	goto	u1701
  4737  008F  2891               	goto	u1700
  4738  0090  2892               u1701:
  4739  0091                     	goto	l408
  4740  0091  286C               u1700:
  4741  0092                     	goto	l410
  4742  0092  2893               	
  4743                           l409:	
  4744  0093                     	line	253
  4745                           	
  4746                           l410:	
  4747  0093                     	return
  4748  0093  0008               	opt stack 0
  4749                           GLOBAL	__end_of_servo180
  4750                           	__end_of_servo180:
  4751  0094                     	signat	_servo180,89
  4752                           	global	_servo0
  4753                           
  4754 ;; *************** function _servo0 *****************
  4755 ;; Defined at:
  4756 ;;		line 232 in file "Pri-Master.c"
  4757 ;; Parameters:    Size  Location     Type
  4758 ;;		None
  4759 ;; Auto vars:     Size  Location     Type
  4760 ;;  i               2    2[COMMON] unsigned int 
  4761 ;; Return value:  Size  Location     Type
  4762 ;;                  1    wreg      void 
  4763 ;; Registers used:
  4764 ;;		wreg, status,2
  4765 ;; Tracked objects:
  4766 ;;		On entry : 0/0
  4767 ;;		On exit  : 0/0
  4768 ;;		Unchanged: 0/0
  4769 ;; Data sizes:     COMMON   BANK0   BANK1   BANK3   BANK2
  4770 ;;      Params:         0       0       0       0       0
  4771 ;;      Locals:         2       0       0       0       0
  4772 ;;      Temps:          2       0       0       0       0
  4773 ;;      Totals:         4       0       0       0       0
  4774 ;;Total ram usage:        4 bytes
  4775 ;; Hardware stack levels used:    1
  4776 ;; This function calls:
  4777 ;;		Nothing
  4778 ;; This function is called by:
  4779 ;;		_main
  4780 ;; This function uses a non-reentrant model
  4781 ;;
  4782                           psect	text6,local,class=CODE,delta=2,merge=1,group=0
  4783                           	line	232
  4784                           global __ptext6
  4785                           __ptext6:	;psect for function _servo0
  4786  0FCC                     psect	text6
  4787                           	file	"Pri-Master.c"
  4788                           	line	232
  4789                           	global	__size_of_servo0
  4790                           	__size_of_servo0	equ	__end_of_servo0-_servo0
  4791  0034                     	
  4792                           _servo0:	
  4793  0FCC                     ;incstack = 0
  4794                           	opt	stack 7
  4795                           ; Regs used in _servo0: [wreg+status,2]
  4796                           	line	235
  4797                           	
  4798                           l2349:	
  4799  0FCC                     	clrf	(servo0@i)
  4800  0FCC  01F2               	clrf	(servo0@i+1)
  4801  0FCD  01F3               	
  4802                           l2351:	
  4803  0FCE                     	movlw	0
  4804  0FCE  3000               	subwf	(servo0@i+1),w
  4805  0FCF  0273               	movlw	032h
  4806  0FD0  3032               	skipnz
  4807  0FD1  1903               	subwf	(servo0@i),w
  4808  0FD2  0272               	skipc
  4809  0FD3  1C03               	goto	u1671
  4810  0FD4  2FD6               	goto	u1670
  4811  0FD5  2FD7               u1671:
  4812  0FD6                     	goto	l403
  4813  0FD6  2FD9               u1670:
  4814  0FD7                     	goto	l405
  4815  0FD7  2FFF               	
  4816                           l2353:	
  4817  0FD8                     	goto	l405
  4818  0FD8  2FFF               	
  4819                           l403:	
  4820  0FD9                     	line	237
  4821                           	bcf	status, 5	;RP0=0, select bank0
  4822  0FD9  1283               	bcf	status, 6	;RP1=0, select bank0
  4823  0FDA  1303               	bsf	(5),0	;volatile
  4824  0FDB  1405               	line	238
  4825                           	
  4826                           l2355:	
  4827  0FDC                     	opt asmopt_push
  4828                           opt asmopt_off
  4829                           	movlw	199
  4830  0FDC  30C7               movwf	((??_servo0+0)+0),f
  4831  0FDD  00F0               	u1917:
  4832  0FDE                     	nop2
  4833  0FDE  2FDF               decfsz	(??_servo0+0)+0,f
  4834  0FDF  0BF0               	goto	u1917
  4835  0FE0  2FDE               	nop2
  4836  0FE1  2FE2               	nop2
  4837  0FE2  2FE3               opt asmopt_pop
  4838                           
  4839                           	line	239
  4840                           	
  4841                           l2357:	
  4842  0FE3                     	bcf	status, 5	;RP0=0, select bank0
  4843  0FE3  1283               	bcf	status, 6	;RP1=0, select bank0
  4844  0FE4  1303               	bcf	(5),0	;volatile
  4845  0FE5  1005               	line	240
  4846                           	opt asmopt_push
  4847                           opt asmopt_off
  4848                           movlw	25
  4849  0FE6  3019               movwf	((??_servo0+0)+0+1),f
  4850  0FE7  00F1               	movlw	171
  4851  0FE8  30AB               movwf	((??_servo0+0)+0),f
  4852  0FE9  00F0               	u1927:
  4853  0FEA                     decfsz	((??_servo0+0)+0),f
  4854  0FEA  0BF0               	goto	u1927
  4855  0FEB  2FEA               	decfsz	((??_servo0+0)+0+1),f
  4856  0FEC  0BF1               	goto	u1927
  4857  0FED  2FEA               	nop2
  4858  0FEE  2FEF               opt asmopt_pop
  4859                           
  4860                           	line	241
  4861                           	movlw	01h
  4862  0FEF  3001               	addwf	(servo0@i),f
  4863  0FF0  07F2               	skipnc
  4864  0FF1  1803               	incf	(servo0@i+1),f
  4865  0FF2  0AF3               	movlw	0
  4866  0FF3  3000               	addwf	(servo0@i+1),f
  4867  0FF4  07F3               	movlw	0
  4868  0FF5  3000               	subwf	(servo0@i+1),w
  4869  0FF6  0273               	movlw	032h
  4870  0FF7  3032               	skipnz
  4871  0FF8  1903               	subwf	(servo0@i),w
  4872  0FF9  0272               	skipc
  4873  0FFA  1C03               	goto	u1681
  4874  0FFB  2FFD               	goto	u1680
  4875  0FFC  2FFE               u1681:
  4876  0FFD                     	goto	l403
  4877  0FFD  2FD9               u1680:
  4878  0FFE                     	goto	l405
  4879  0FFE  2FFF               	
  4880                           l404:	
  4881  0FFF                     	line	242
  4882                           	
  4883                           l405:	
  4884  0FFF                     	return
  4885  0FFF  0008               	opt stack 0
  4886                           GLOBAL	__end_of_servo0
  4887                           	__end_of_servo0:
  4888  1000                     	signat	_servo0,89
  4889                           	global	_read_ds1307
  4890                           
  4891 ;; *************** function _read_ds1307 *****************
  4892 ;; Defined at:
  4893 ;;		line 40 in file "Pri-Master.c"
  4894 ;; Parameters:    Size  Location     Type
  4895 ;;  address         2    6[COMMON] unsigned short 
  4896 ;; Auto vars:     Size  Location     Type
  4897 ;;  r_data          2    8[COMMON] unsigned short 
  4898 ;; Return value:  Size  Location     Type
  4899 ;;                  2    6[COMMON] unsigned short 
  4900 ;; Registers used:
  4901 ;;		wreg, status,2, status,0, pclath, cstack
  4902 ;; Tracked objects:
  4903 ;;		On entry : 0/0
  4904 ;;		On exit  : 0/0
  4905 ;;		Unchanged: 0/0
  4906 ;; Data sizes:     COMMON   BANK0   BANK1   BANK3   BANK2
  4907 ;;      Params:         2       0       0       0       0
  4908 ;;      Locals:         2       0       0       0       0
  4909 ;;      Temps:          0       0       0       0       0
  4910 ;;      Totals:         4       0       0       0       0
  4911 ;;Total ram usage:        4 bytes
  4912 ;; Hardware stack levels used:    1
  4913 ;; Hardware stack levels required when called:    2
  4914 ;; This function calls:
  4915 ;;		_I2C_Master_Read
  4916 ;;		_I2C_Master_RepeatedStart
  4917 ;;		_I2C_Master_Start
  4918 ;;		_I2C_Master_Stop
  4919 ;;		_I2C_Master_Write
  4920 ;; This function is called by:
  4921 ;;		_main
  4922 ;; This function uses a non-reentrant model
  4923 ;;
  4924                           psect	text7,local,class=CODE,delta=2,merge=1,group=0
  4925                           	line	40
  4926                           global __ptext7
  4927                           __ptext7:	;psect for function _read_ds1307
  4928  00CC                     psect	text7
  4929                           	file	"Pri-Master.c"
  4930                           	line	40
  4931                           	global	__size_of_read_ds1307
  4932                           	__size_of_read_ds1307	equ	__end_of_read_ds1307-_read_ds1307
  4933  003C                     	
  4934                           _read_ds1307:	
  4935  00CC                     ;incstack = 0
  4936                           	opt	stack 5
  4937                           ; Regs used in _read_ds1307: [wreg+status,2+status,0+pclath+cstack]
  4938                           	line	42
  4939                           	
  4940                           l2199:	
  4941  00CC                     ;Pri-Master.c: 41: char abajo[] = "S4:1 00:00:00 AM";;Pri-Master.c: 42: char time[] = "0
                                 0:00:00 PM";
  4942                           	fcall	_I2C_Master_Start
  4943  00CC  120A  158A  25AD  120A  118A  	line	43
  4944                           ;Pri-Master.c: 43: char date[] = "00-00-00";
  4945                           	movlw	0D0h
  4946  00D1  30D0               	movwf	(I2C_Master_Write@d)
  4947  00D2  00F0               	movlw	0
  4948  00D3  3000               	movwf	((I2C_Master_Write@d))+1
  4949  00D4  00F1               	fcall	_I2C_Master_Write
  4950  00D5  120A  158A  25BF  120A  118A  	line	44
  4951                           ;Pri-Master.c: 44: 
  4952                           	movf	(read_ds1307@address+1),w
  4953  00DA  0877               	movwf	(I2C_Master_Write@d+1)
  4954  00DB  00F1               	movf	(read_ds1307@address),w
  4955  00DC  0876               	movwf	(I2C_Master_Write@d)
  4956  00DD  00F0               	fcall	_I2C_Master_Write
  4957  00DE  120A  158A  25BF  120A  118A  	line	45
  4958                           ;Pri-Master.c: 45: void main(void) {
  4959                           	fcall	_I2C_Master_RepeatedStart
  4960  00E3  120A  158A  25A4  120A  118A  	line	46
  4961                           ;Pri-Master.c: 46:     TRISD = 0x00;
  4962                           	movlw	0D1h
  4963  00E8  30D1               	movwf	(I2C_Master_Write@d)
  4964  00E9  00F0               	movlw	0
  4965  00EA  3000               	movwf	((I2C_Master_Write@d))+1
  4966  00EB  00F1               	fcall	_I2C_Master_Write
  4967  00EC  120A  158A  25BF  120A  118A  	line	47
  4968                           ;Pri-Master.c: 47:     TRISB = 0x00;
  4969                           	movlw	0
  4970  00F1  3000               	movwf	(I2C_Master_Read@a)
  4971  00F2  00F0               	movwf	(I2C_Master_Read@a+1)
  4972  00F3  00F1               	fcall	_I2C_Master_Read
  4973  00F4  120A  158A  2738  120A  118A  	movf	(1+(?_I2C_Master_Read)),w
  4974  00F9  0871               	movwf	(read_ds1307@r_data+1)
  4975  00FA  00F9               	movf	(0+(?_I2C_Master_Read)),w
  4976  00FB  0870               	movwf	(read_ds1307@r_data)
  4977  00FC  00F8               	line	48
  4978                           ;Pri-Master.c: 48:     TRISA = 0X00;
  4979                           	fcall	_I2C_Master_Stop
  4980  00FD  120A  158A  25B6  120A  118A  	line	49
  4981                           	
  4982                           l2201:	
  4983  0102                     ;Pri-Master.c: 49:     TRISCbits.TRISC0 = 1;
  4984                           	movf	(read_ds1307@r_data+1),w
  4985  0102  0879               	movwf	(?_read_ds1307+1)
  4986  0103  00F7               	movf	(read_ds1307@r_data),w
  4987  0104  0878               	movwf	(?_read_ds1307)
  4988  0105  00F6               	goto	l309
  4989  0106  2907               	
  4990                           l2203:	
  4991  0107                     	line	50
  4992                           	
  4993                           l309:	
  4994  0107                     	return
  4995  0107  0008               	opt stack 0
  4996                           GLOBAL	__end_of_read_ds1307
  4997                           	__end_of_read_ds1307:
  4998  0108                     	signat	_read_ds1307,4218
  4999                           	global	_I2C_Master_Write
  5000                           
  5001 ;; *************** function _I2C_Master_Write *****************
  5002 ;; Defined at:
  5003 ;;		line 70 in file "I2C.c"
  5004 ;; Parameters:    Size  Location     Type
  5005 ;;  d               2    0[COMMON] unsigned int 
  5006 ;; Auto vars:     Size  Location     Type
  5007 ;;		None
  5008 ;; Return value:  Size  Location     Type
  5009 ;;                  1    wreg      void 
  5010 ;; Registers used:
  5011 ;;		wreg, status,2, status,0, pclath, cstack
  5012 ;; Tracked objects:
  5013 ;;		On entry : 0/0
  5014 ;;		On exit  : 0/0
  5015 ;;		Unchanged: 0/0
  5016 ;; Data sizes:     COMMON   BANK0   BANK1   BANK3   BANK2
  5017 ;;      Params:         2       0       0       0       0
  5018 ;;      Locals:         0       0       0       0       0
  5019 ;;      Temps:          0       0       0       0       0
  5020 ;;      Totals:         2       0       0       0       0
  5021 ;;Total ram usage:        2 bytes
  5022 ;; Hardware stack levels used:    1
  5023 ;; Hardware stack levels required when called:    1
  5024 ;; This function calls:
  5025 ;;		_I2C_Master_Wait
  5026 ;; This function is called by:
  5027 ;;		_read_ds1307
  5028 ;;		_main
  5029 ;;		_I2C_Start
  5030 ;;		_MPU6050_Init
  5031 ;; This function uses a non-reentrant model
  5032 ;;
  5033                           psect	text8,local,class=CODE,delta=2,merge=1,group=0
  5034                           	file	"I2C.c"
  5035                           	line	70
  5036                           global __ptext8
  5037                           __ptext8:	;psect for function _I2C_Master_Write
  5038  0DBF                     psect	text8
  5039                           	file	"I2C.c"
  5040                           	line	70
  5041                           	global	__size_of_I2C_Master_Write
  5042                           	__size_of_I2C_Master_Write	equ	__end_of_I2C_Master_Write-_I2C_Master_Write
  5043  000A                     	
  5044                           _I2C_Master_Write:	
  5045  0DBF                     ;incstack = 0
  5046                           	opt	stack 5
  5047                           ; Regs used in _I2C_Master_Write: [wreg+status,2+status,0+pclath+cstack]
  5048                           	line	72
  5049                           	
  5050                           l1999:	
  5051  0DBF                     ;I2C.c: 70: void I2C_Master_Write(unsigned d);I2C.c: 71: {;I2C.c: 72:     I2C_Master_Wai
                                 t();
  5052                           	fcall	_I2C_Master_Wait
  5053  0DBF  120A  158A  25F1  120A  158A  	line	73
  5054                           	
  5055                           l2001:	
  5056  0DC4                     ;I2C.c: 73:     SSPBUF = d;
  5057                           	movf	(I2C_Master_Write@d),w
  5058  0DC4  0870               	bcf	status, 5	;RP0=0, select bank0
  5059  0DC5  1283               	bcf	status, 6	;RP1=0, select bank0
  5060  0DC6  1303               	movwf	(19)	;volatile
  5061  0DC7  0093               	line	74
  5062                           	
  5063                           l67:	
  5064  0DC8                     	return
  5065  0DC8  0008               	opt stack 0
  5066                           GLOBAL	__end_of_I2C_Master_Write
  5067                           	__end_of_I2C_Master_Write:
  5068  0DC9                     	signat	_I2C_Master_Write,4217
  5069                           	global	_I2C_Master_Stop
  5070                           
  5071 ;; *************** function _I2C_Master_Stop *****************
  5072 ;; Defined at:
  5073 ;;		line 60 in file "I2C.c"
  5074 ;; Parameters:    Size  Location     Type
  5075 ;;		None
  5076 ;; Auto vars:     Size  Location     Type
  5077 ;;		None
  5078 ;; Return value:  Size  Location     Type
  5079 ;;                  1    wreg      void 
  5080 ;; Registers used:
  5081 ;;		wreg, status,2, status,0, pclath, cstack
  5082 ;; Tracked objects:
  5083 ;;		On entry : 0/0
  5084 ;;		On exit  : 0/0
  5085 ;;		Unchanged: 0/0
  5086 ;; Data sizes:     COMMON   BANK0   BANK1   BANK3   BANK2
  5087 ;;      Params:         0       0       0       0       0
  5088 ;;      Locals:         0       0       0       0       0
  5089 ;;      Temps:          0       0       0       0       0
  5090 ;;      Totals:         0       0       0       0       0
  5091 ;;Total ram usage:        0 bytes
  5092 ;; Hardware stack levels used:    1
  5093 ;; Hardware stack levels required when called:    1
  5094 ;; This function calls:
  5095 ;;		_I2C_Master_Wait
  5096 ;; This function is called by:
  5097 ;;		_read_ds1307
  5098 ;;		_main
  5099 ;;		_MPU6050_Init
  5100 ;;		_MPU6050_Read
  5101 ;; This function uses a non-reentrant model
  5102 ;;
  5103                           psect	text9,local,class=CODE,delta=2,merge=1,group=0
  5104                           	line	60
  5105                           global __ptext9
  5106                           __ptext9:	;psect for function _I2C_Master_Stop
  5107  0DB6                     psect	text9
  5108                           	file	"I2C.c"
  5109                           	line	60
  5110                           	global	__size_of_I2C_Master_Stop
  5111                           	__size_of_I2C_Master_Stop	equ	__end_of_I2C_Master_Stop-_I2C_Master_Stop
  5112  0009                     	
  5113                           _I2C_Master_Stop:	
  5114  0DB6                     ;incstack = 0
  5115                           	opt	stack 5
  5116                           ; Regs used in _I2C_Master_Stop: [wreg+status,2+status,0+pclath+cstack]
  5117                           	line	62
  5118                           	
  5119                           l1995:	
  5120  0DB6                     ;I2C.c: 62:     I2C_Master_Wait();
  5121                           	fcall	_I2C_Master_Wait
  5122  0DB6  120A  158A  25F1  120A  158A  	line	63
  5123                           	
  5124                           l1997:	
  5125  0DBB                     ;I2C.c: 63:     SSPCON2bits.PEN = 1;
  5126                           	bsf	status, 5	;RP0=1, select bank1
  5127  0DBB  1683               	bcf	status, 6	;RP1=0, select bank1
  5128  0DBC  1303               	bsf	(145)^080h,2	;volatile
  5129  0DBD  1511               	line	64
  5130                           	
  5131                           l64:	
  5132  0DBE                     	return
  5133  0DBE  0008               	opt stack 0
  5134                           GLOBAL	__end_of_I2C_Master_Stop
  5135                           	__end_of_I2C_Master_Stop:
  5136  0DBF                     	signat	_I2C_Master_Stop,89
  5137                           	global	_I2C_Master_Start
  5138                           
  5139 ;; *************** function _I2C_Master_Start *****************
  5140 ;; Defined at:
  5141 ;;		line 44 in file "I2C.c"
  5142 ;; Parameters:    Size  Location     Type
  5143 ;;		None
  5144 ;; Auto vars:     Size  Location     Type
  5145 ;;		None
  5146 ;; Return value:  Size  Location     Type
  5147 ;;                  1    wreg      void 
  5148 ;; Registers used:
  5149 ;;		wreg, status,2, status,0, pclath, cstack
  5150 ;; Tracked objects:
  5151 ;;		On entry : 0/0
  5152 ;;		On exit  : 0/0
  5153 ;;		Unchanged: 0/0
  5154 ;; Data sizes:     COMMON   BANK0   BANK1   BANK3   BANK2
  5155 ;;      Params:         0       0       0       0       0
  5156 ;;      Locals:         0       0       0       0       0
  5157 ;;      Temps:          0       0       0       0       0
  5158 ;;      Totals:         0       0       0       0       0
  5159 ;;Total ram usage:        0 bytes
  5160 ;; Hardware stack levels used:    1
  5161 ;; Hardware stack levels required when called:    1
  5162 ;; This function calls:
  5163 ;;		_I2C_Master_Wait
  5164 ;; This function is called by:
  5165 ;;		_read_ds1307
  5166 ;;		_main
  5167 ;; This function uses a non-reentrant model
  5168 ;;
  5169                           psect	text10,local,class=CODE,delta=2,merge=1,group=0
  5170                           	line	44
  5171                           global __ptext10
  5172                           __ptext10:	;psect for function _I2C_Master_Start
  5173  0DAD                     psect	text10
  5174                           	file	"I2C.c"
  5175                           	line	44
  5176                           	global	__size_of_I2C_Master_Start
  5177                           	__size_of_I2C_Master_Start	equ	__end_of_I2C_Master_Start-_I2C_Master_Start
  5178  0009                     	
  5179                           _I2C_Master_Start:	
  5180  0DAD                     ;incstack = 0
  5181                           	opt	stack 5
  5182                           ; Regs used in _I2C_Master_Start: [wreg+status,2+status,0+pclath+cstack]
  5183                           	line	46
  5184                           	
  5185                           l1987:	
  5186  0DAD                     ;I2C.c: 46:     I2C_Master_Wait();
  5187                           	fcall	_I2C_Master_Wait
  5188  0DAD  120A  158A  25F1  120A  158A  	line	47
  5189                           	
  5190                           l1989:	
  5191  0DB2                     ;I2C.c: 47:     SSPCON2bits.SEN = 1;
  5192                           	bsf	status, 5	;RP0=1, select bank1
  5193  0DB2  1683               	bcf	status, 6	;RP1=0, select bank1
  5194  0DB3  1303               	bsf	(145)^080h,0	;volatile
  5195  0DB4  1411               	line	48
  5196                           	
  5197                           l58:	
  5198  0DB5                     	return
  5199  0DB5  0008               	opt stack 0
  5200                           GLOBAL	__end_of_I2C_Master_Start
  5201                           	__end_of_I2C_Master_Start:
  5202  0DB6                     	signat	_I2C_Master_Start,89
  5203                           	global	_I2C_Master_RepeatedStart
  5204                           
  5205 ;; *************** function _I2C_Master_RepeatedStart *****************
  5206 ;; Defined at:
  5207 ;;		line 52 in file "I2C.c"
  5208 ;; Parameters:    Size  Location     Type
  5209 ;;		None
  5210 ;; Auto vars:     Size  Location     Type
  5211 ;;		None
  5212 ;; Return value:  Size  Location     Type
  5213 ;;                  1    wreg      void 
  5214 ;; Registers used:
  5215 ;;		wreg, status,2, status,0, pclath, cstack
  5216 ;; Tracked objects:
  5217 ;;		On entry : 0/0
  5218 ;;		On exit  : 0/0
  5219 ;;		Unchanged: 0/0
  5220 ;; Data sizes:     COMMON   BANK0   BANK1   BANK3   BANK2
  5221 ;;      Params:         0       0       0       0       0
  5222 ;;      Locals:         0       0       0       0       0
  5223 ;;      Temps:          0       0       0       0       0
  5224 ;;      Totals:         0       0       0       0       0
  5225 ;;Total ram usage:        0 bytes
  5226 ;; Hardware stack levels used:    1
  5227 ;; Hardware stack levels required when called:    1
  5228 ;; This function calls:
  5229 ;;		_I2C_Master_Wait
  5230 ;; This function is called by:
  5231 ;;		_read_ds1307
  5232 ;; This function uses a non-reentrant model
  5233 ;;
  5234                           psect	text11,local,class=CODE,delta=2,merge=1,group=0
  5235                           	line	52
  5236                           global __ptext11
  5237                           __ptext11:	;psect for function _I2C_Master_RepeatedStart
  5238  0DA4                     psect	text11
  5239                           	file	"I2C.c"
  5240                           	line	52
  5241                           	global	__size_of_I2C_Master_RepeatedStart
  5242                           	__size_of_I2C_Master_RepeatedStart	equ	__end_of_I2C_Master_RepeatedStart-_I2C_Master_Re
                                 peatedStart
  5243  0009                     	
  5244                           _I2C_Master_RepeatedStart:	
  5245  0DA4                     ;incstack = 0
  5246                           	opt	stack 5
  5247                           ; Regs used in _I2C_Master_RepeatedStart: [wreg+status,2+status,0+pclath+cstack]
  5248                           	line	54
  5249                           	
  5250                           l1991:	
  5251  0DA4                     ;I2C.c: 54:     I2C_Master_Wait();
  5252                           	fcall	_I2C_Master_Wait
  5253  0DA4  120A  158A  25F1  120A  158A  	line	55
  5254                           	
  5255                           l1993:	
  5256  0DA9                     ;I2C.c: 55:     SSPCON2bits.RSEN = 1;
  5257                           	bsf	status, 5	;RP0=1, select bank1
  5258  0DA9  1683               	bcf	status, 6	;RP1=0, select bank1
  5259  0DAA  1303               	bsf	(145)^080h,1	;volatile
  5260  0DAB  1491               	line	56
  5261                           	
  5262                           l61:	
  5263  0DAC                     	return
  5264  0DAC  0008               	opt stack 0
  5265                           GLOBAL	__end_of_I2C_Master_RepeatedStart
  5266                           	__end_of_I2C_Master_RepeatedStart:
  5267  0DAD                     	signat	_I2C_Master_RepeatedStart,89
  5268                           	global	_I2C_Master_Read
  5269                           
  5270 ;; *************** function _I2C_Master_Read *****************
  5271 ;; Defined at:
  5272 ;;		line 79 in file "I2C.c"
  5273 ;; Parameters:    Size  Location     Type
  5274 ;;  a               2    0[COMMON] unsigned short 
  5275 ;; Auto vars:     Size  Location     Type
  5276 ;;  temp            2    4[COMMON] unsigned short 
  5277 ;; Return value:  Size  Location     Type
  5278 ;;                  2    0[COMMON] unsigned short 
  5279 ;; Registers used:
  5280 ;;		wreg, status,2, status,0, pclath, cstack
  5281 ;; Tracked objects:
  5282 ;;		On entry : 0/0
  5283 ;;		On exit  : 0/0
  5284 ;;		Unchanged: 0/0
  5285 ;; Data sizes:     COMMON   BANK0   BANK1   BANK3   BANK2
  5286 ;;      Params:         2       0       0       0       0
  5287 ;;      Locals:         2       0       0       0       0
  5288 ;;      Temps:          2       0       0       0       0
  5289 ;;      Totals:         6       0       0       0       0
  5290 ;;Total ram usage:        6 bytes
  5291 ;; Hardware stack levels used:    1
  5292 ;; Hardware stack levels required when called:    1
  5293 ;; This function calls:
  5294 ;;		_I2C_Master_Wait
  5295 ;; This function is called by:
  5296 ;;		_read_ds1307
  5297 ;;		_main
  5298 ;; This function uses a non-reentrant model
  5299 ;;
  5300                           psect	text12,local,class=CODE,delta=2,merge=1,group=0
  5301                           	line	79
  5302                           global __ptext12
  5303                           __ptext12:	;psect for function _I2C_Master_Read
  5304  0F38                     psect	text12
  5305                           	file	"I2C.c"
  5306                           	line	79
  5307                           	global	__size_of_I2C_Master_Read
  5308                           	__size_of_I2C_Master_Read	equ	__end_of_I2C_Master_Read-_I2C_Master_Read
  5309  002F                     	
  5310                           _I2C_Master_Read:	
  5311  0F38                     ;incstack = 0
  5312                           	opt	stack 5
  5313                           ; Regs used in _I2C_Master_Read: [wreg+status,2+status,0+pclath+cstack]
  5314                           	line	82
  5315                           	
  5316                           l2003:	
  5317  0F38                     ;I2C.c: 79: unsigned short I2C_Master_Read(unsigned short a);I2C.c: 80: {;I2C.c: 81:    
                                  unsigned short temp;;I2C.c: 82:     I2C_Master_Wait();
  5318                           	fcall	_I2C_Master_Wait
  5319  0F38  120A  158A  25F1  120A  158A  	line	83
  5320                           	
  5321                           l2005:	
  5322  0F3D                     ;I2C.c: 83:     SSPCON2bits.RCEN = 1;
  5323                           	bsf	status, 5	;RP0=1, select bank1
  5324  0F3D  1683               	bcf	status, 6	;RP1=0, select bank1
  5325  0F3E  1303               	bsf	(145)^080h,3	;volatile
  5326  0F3F  1591               	line	84
  5327                           ;I2C.c: 84:     I2C_Master_Wait();
  5328                           	fcall	_I2C_Master_Wait
  5329  0F40  120A  158A  25F1  120A  158A  	line	85
  5330                           	
  5331                           l2007:	
  5332  0F45                     ;I2C.c: 85:     temp = SSPBUF;
  5333                           	bcf	status, 5	;RP0=0, select bank0
  5334  0F45  1283               	bcf	status, 6	;RP1=0, select bank0
  5335  0F46  1303               	movf	(19),w	;volatile
  5336  0F47  0813               	movwf	(??_I2C_Master_Read+0)+0
  5337  0F48  00F2               	clrf	(??_I2C_Master_Read+0)+0+1
  5338  0F49  01F3               	movf	0+(??_I2C_Master_Read+0)+0,w
  5339  0F4A  0872               	movwf	(I2C_Master_Read@temp)
  5340  0F4B  00F4               	movf	1+(??_I2C_Master_Read+0)+0,w
  5341  0F4C  0873               	movwf	(I2C_Master_Read@temp+1)
  5342  0F4D  00F5               	line	86
  5343                           	
  5344                           l2009:	
  5345  0F4E                     ;I2C.c: 86:     I2C_Master_Wait();
  5346                           	fcall	_I2C_Master_Wait
  5347  0F4E  120A  158A  25F1  120A  158A  	line	87
  5348                           	
  5349                           l2011:	
  5350  0F53                     ;I2C.c: 87:     if(a == 1){
  5351                           		decf	((I2C_Master_Read@a)),w
  5352  0F53  0370               iorwf	((I2C_Master_Read@a+1)),w
  5353  0F54  0471               	btfss	status,2
  5354  0F55  1D03               	goto	u1091
  5355  0F56  2F58               	goto	u1090
  5356  0F57  2F59               u1091:
  5357  0F58                     	goto	l70
  5358  0F58  2F5D               u1090:
  5359  0F59                     	line	88
  5360                           	
  5361                           l2013:	
  5362  0F59                     ;I2C.c: 88:         SSPCON2bits.ACKDT = 0;
  5363                           	bsf	status, 5	;RP0=1, select bank1
  5364  0F59  1683               	bcf	status, 6	;RP1=0, select bank1
  5365  0F5A  1303               	bcf	(145)^080h,5	;volatile
  5366  0F5B  1291               	line	89
  5367                           ;I2C.c: 89:     }else{
  5368                           	goto	l71
  5369  0F5C  2F60               	
  5370                           l70:	
  5371  0F5D                     	line	90
  5372                           ;I2C.c: 90:         SSPCON2bits.ACKDT = 1;
  5373                           	bsf	status, 5	;RP0=1, select bank1
  5374  0F5D  1683               	bcf	status, 6	;RP1=0, select bank1
  5375  0F5E  1303               	bsf	(145)^080h,5	;volatile
  5376  0F5F  1691               	line	91
  5377                           ;I2C.c: 91:     }
  5378                           	
  5379                           l71:	
  5380  0F60                     	line	92
  5381                           ;I2C.c: 92:     SSPCON2bits.ACKEN = 1;
  5382                           	bsf	(145)^080h,4	;volatile
  5383  0F60  1611               	line	93
  5384                           	
  5385                           l2015:	
  5386  0F61                     ;I2C.c: 93:     return temp;
  5387                           	movf	(I2C_Master_Read@temp+1),w
  5388  0F61  0875               	movwf	(?_I2C_Master_Read+1)
  5389  0F62  00F1               	movf	(I2C_Master_Read@temp),w
  5390  0F63  0874               	movwf	(?_I2C_Master_Read)
  5391  0F64  00F0               	goto	l72
  5392  0F65  2F66               	
  5393                           l2017:	
  5394  0F66                     	line	94
  5395                           	
  5396                           l72:	
  5397  0F66                     	return
  5398  0F66  0008               	opt stack 0
  5399                           GLOBAL	__end_of_I2C_Master_Read
  5400                           	__end_of_I2C_Master_Read:
  5401  0F67                     	signat	_I2C_Master_Read,4218
  5402                           	global	_I2C_Master_Wait
  5403                           
  5404 ;; *************** function _I2C_Master_Wait *****************
  5405 ;; Defined at:
  5406 ;;		line 37 in file "I2C.c"
  5407 ;; Parameters:    Size  Location     Type
  5408 ;;		None
  5409 ;; Auto vars:     Size  Location     Type
  5410 ;;		None
  5411 ;; Return value:  Size  Location     Type
  5412 ;;                  1    wreg      void 
  5413 ;; Registers used:
  5414 ;;		wreg, status,2
  5415 ;; Tracked objects:
  5416 ;;		On entry : 0/0
  5417 ;;		On exit  : 0/0
  5418 ;;		Unchanged: 0/0
  5419 ;; Data sizes:     COMMON   BANK0   BANK1   BANK3   BANK2
  5420 ;;      Params:         0       0       0       0       0
  5421 ;;      Locals:         0       0       0       0       0
  5422 ;;      Temps:          0       0       0       0       0
  5423 ;;      Totals:         0       0       0       0       0
  5424 ;;Total ram usage:        0 bytes
  5425 ;; Hardware stack levels used:    1
  5426 ;; This function calls:
  5427 ;;		Nothing
  5428 ;; This function is called by:
  5429 ;;		_I2C_Master_Start
  5430 ;;		_I2C_Master_RepeatedStart
  5431 ;;		_I2C_Master_Stop
  5432 ;;		_I2C_Master_Write
  5433 ;;		_I2C_Master_Read
  5434 ;;		_I2C_Start
  5435 ;;		_I2C_Master_Write1
  5436 ;; This function uses a non-reentrant model
  5437 ;;
  5438                           psect	text13,local,class=CODE,delta=2,merge=1,group=0
  5439                           	line	37
  5440                           global __ptext13
  5441                           __ptext13:	;psect for function _I2C_Master_Wait
  5442  0DF1                     psect	text13
  5443                           	file	"I2C.c"
  5444                           	line	37
  5445                           	global	__size_of_I2C_Master_Wait
  5446                           	__size_of_I2C_Master_Wait	equ	__end_of_I2C_Master_Wait-_I2C_Master_Wait
  5447  000F                     	
  5448                           _I2C_Master_Wait:	
  5449  0DF1                     ;incstack = 0
  5450                           	opt	stack 5
  5451                           ; Regs used in _I2C_Master_Wait: [wreg+status,2]
  5452                           	line	39
  5453                           	
  5454                           l1955:	
  5455  0DF1                     ;I2C.c: 39:     while ((SSPSTAT & 0x04) || (SSPCON2 & 0x1F));
  5456                           	goto	l52
  5457  0DF1  2DF2               	
  5458                           l53:	
  5459  0DF2                     	
  5460                           l52:	
  5461  0DF2                     	bsf	status, 5	;RP0=1, select bank1
  5462  0DF2  1683               	bcf	status, 6	;RP1=0, select bank1
  5463  0DF3  1303               	btfsc	(148)^080h,(2)&7	;volatile
  5464  0DF4  1914               	goto	u1061
  5465  0DF5  2DF7               	goto	u1060
  5466  0DF6  2DF8               u1061:
  5467  0DF7                     	goto	l52
  5468  0DF7  2DF2               u1060:
  5469  0DF8                     	
  5470                           l1957:	
  5471  0DF8                     	movf	(145)^080h,w	;volatile
  5472  0DF8  0811               	andlw	01Fh
  5473  0DF9  391F               	btfss	status,2
  5474  0DFA  1D03               	goto	u1071
  5475  0DFB  2DFD               	goto	u1070
  5476  0DFC  2DFE               u1071:
  5477  0DFD                     	goto	l52
  5478  0DFD  2DF2               u1070:
  5479  0DFE                     	goto	l55
  5480  0DFE  2DFF               	
  5481                           l54:	
  5482  0DFF                     	line	40
  5483                           	
  5484                           l55:	
  5485  0DFF                     	return
  5486  0DFF  0008               	opt stack 0
  5487                           GLOBAL	__end_of_I2C_Master_Wait
  5488                           	__end_of_I2C_Master_Wait:
  5489  0E00                     	signat	_I2C_Master_Wait,89
  5490                           	global	_mandar
  5491                           
  5492 ;; *************** function _mandar *****************
  5493 ;; Defined at:
  5494 ;;		line 24 in file "USART1.c"
  5495 ;; Parameters:    Size  Location     Type
  5496 ;;  dato            2    0[COMMON] int 
  5497 ;; Auto vars:     Size  Location     Type
  5498 ;;		None
  5499 ;; Return value:  Size  Location     Type
  5500 ;;                  1    wreg      void 
  5501 ;; Registers used:
  5502 ;;		wreg
  5503 ;; Tracked objects:
  5504 ;;		On entry : 0/0
  5505 ;;		On exit  : 0/0
  5506 ;;		Unchanged: 0/0
  5507 ;; Data sizes:     COMMON   BANK0   BANK1   BANK3   BANK2
  5508 ;;      Params:         2       0       0       0       0
  5509 ;;      Locals:         0       0       0       0       0
  5510 ;;      Temps:          0       0       0       0       0
  5511 ;;      Totals:         2       0       0       0       0
  5512 ;;Total ram usage:        2 bytes
  5513 ;; Hardware stack levels used:    1
  5514 ;; This function calls:
  5515 ;;		Nothing
  5516 ;; This function is called by:
  5517 ;;		_main
  5518 ;; This function uses a non-reentrant model
  5519 ;;
  5520                           psect	text14,local,class=CODE,delta=2,merge=1,group=0
  5521                           	file	"USART1.c"
  5522                           	line	24
  5523                           global __ptext14
  5524                           __ptext14:	;psect for function _mandar
  5525  0052                     psect	text14
  5526                           	file	"USART1.c"
  5527                           	line	24
  5528                           	global	__size_of_mandar
  5529                           	__size_of_mandar	equ	__end_of_mandar-_mandar
  5530  000D                     	
  5531                           _mandar:	
  5532  0052                     ;incstack = 0
  5533                           	opt	stack 7
  5534                           ; Regs used in _mandar: [wreg]
  5535                           	line	25
  5536                           	
  5537                           l2345:	
  5538  0052                     ;USART1.c: 25:     while (TXSTAbits.TRMT == 0){}
  5539                           	goto	l428
  5540  0052  2853               	
  5541                           l429:	
  5542  0053                     	
  5543                           l428:	
  5544  0053                     	bsf	status, 5	;RP0=1, select bank1
  5545  0053  1683               	bcf	status, 6	;RP1=0, select bank1
  5546  0054  1303               	btfss	(152)^080h,1	;volatile
  5547  0055  1C98               	goto	u1661
  5548  0056  2858               	goto	u1660
  5549  0057  2859               u1661:
  5550  0058                     	goto	l428
  5551  0058  2853               u1660:
  5552  0059                     	goto	l2347
  5553  0059  285A               	
  5554                           l430:	
  5555  005A                     	line	26
  5556                           	
  5557                           l2347:	
  5558  005A                     ;USART1.c: 26:     TXREG = dato;
  5559                           	movf	(mandar@dato),w
  5560  005A  0870               	bcf	status, 5	;RP0=0, select bank0
  5561  005B  1283               	bcf	status, 6	;RP1=0, select bank0
  5562  005C  1303               	movwf	(25)	;volatile
  5563  005D  0099               	line	27
  5564                           	
  5565                           l431:	
  5566  005E                     	return
  5567  005E  0008               	opt stack 0
  5568                           GLOBAL	__end_of_mandar
  5569                           	__end_of_mandar:
  5570  005F                     	signat	_mandar,4217
  5571                           	global	_lcd_init
  5572                           
  5573 ;; *************** function _lcd_init *****************
  5574 ;; Defined at:
  5575 ;;		line 45 in file "LCD.c"
  5576 ;; Parameters:    Size  Location     Type
  5577 ;;		None
  5578 ;; Auto vars:     Size  Location     Type
  5579 ;;		None
  5580 ;; Return value:  Size  Location     Type
  5581 ;;                  1    wreg      void 
  5582 ;; Registers used:
  5583 ;;		wreg, status,2, status,0, pclath, cstack
  5584 ;; Tracked objects:
  5585 ;;		On entry : 0/0
  5586 ;;		On exit  : 0/0
  5587 ;;		Unchanged: 0/0
  5588 ;; Data sizes:     COMMON   BANK0   BANK1   BANK3   BANK2
  5589 ;;      Params:         0       0       0       0       0
  5590 ;;      Locals:         0       0       0       0       0
  5591 ;;      Temps:          0       0       0       0       0
  5592 ;;      Totals:         0       0       0       0       0
  5593 ;;Total ram usage:        0 bytes
  5594 ;; Hardware stack levels used:    1
  5595 ;; Hardware stack levels required when called:    3
  5596 ;; This function calls:
  5597 ;;		_lcd_cmd
  5598 ;; This function is called by:
  5599 ;;		_main
  5600 ;; This function uses a non-reentrant model
  5601 ;;
  5602                           psect	text15,local,class=CODE,delta=2,merge=1,group=0
  5603                           	file	"LCD.c"
  5604                           	line	45
  5605                           global __ptext15
  5606                           __ptext15:	;psect for function _lcd_init
  5607  0E76                     psect	text15
  5608                           	file	"LCD.c"
  5609                           	line	45
  5610                           	global	__size_of_lcd_init
  5611                           	__size_of_lcd_init	equ	__end_of_lcd_init-_lcd_init
  5612  001F                     	
  5613                           _lcd_init:	
  5614  0E76                     ;incstack = 0
  5615                           	opt	stack 4
  5616                           ; Regs used in _lcd_init: [wreg+status,2+status,0+pclath+cstack]
  5617                           	line	47
  5618                           	
  5619                           l2177:	
  5620  0E76                     ;LCD.c: 47:     lcd_cmd(0x38);
  5621                           	movlw	low(038h)
  5622  0E76  3038               	fcall	_lcd_cmd
  5623  0E77  120A  158A  2610  120A  158A  	line	48
  5624                           ;LCD.c: 48:     lcd_cmd(0x0E);
  5625                           	movlw	low(0Eh)
  5626  0E7C  300E               	fcall	_lcd_cmd
  5627  0E7D  120A  158A  2610  120A  158A  	line	49
  5628                           ;LCD.c: 49:     lcd_cmd(0x01);
  5629                           	movlw	low(01h)
  5630  0E82  3001               	fcall	_lcd_cmd
  5631  0E83  120A  158A  2610  120A  158A  	line	50
  5632                           ;LCD.c: 50:     lcd_cmd(0x06);
  5633                           	movlw	low(06h)
  5634  0E88  3006               	fcall	_lcd_cmd
  5635  0E89  120A  158A  2610  120A  158A  	line	51
  5636                           ;LCD.c: 51:     lcd_cmd(0x80);
  5637                           	movlw	low(080h)
  5638  0E8E  3080               	fcall	_lcd_cmd
  5639  0E8F  120A  158A  2610  120A  158A  	line	52
  5640                           	
  5641                           l218:	
  5642  0E94                     	return
  5643  0E94  0008               	opt stack 0
  5644                           GLOBAL	__end_of_lcd_init
  5645                           	__end_of_lcd_init:
  5646  0E95                     	signat	_lcd_init,89
  5647                           	global	_lcd_cmd
  5648                           
  5649 ;; *************** function _lcd_cmd *****************
  5650 ;; Defined at:
  5651 ;;		line 36 in file "LCD.c"
  5652 ;; Parameters:    Size  Location     Type
  5653 ;;  x               1    wreg     unsigned char 
  5654 ;; Auto vars:     Size  Location     Type
  5655 ;;  x               1    7[COMMON] unsigned char 
  5656 ;; Return value:  Size  Location     Type
  5657 ;;                  1    wreg      void 
  5658 ;; Registers used:
  5659 ;;		wreg, status,2, status,0, pclath, cstack
  5660 ;; Tracked objects:
  5661 ;;		On entry : 0/0
  5662 ;;		On exit  : 0/0
  5663 ;;		Unchanged: 0/0
  5664 ;; Data sizes:     COMMON   BANK0   BANK1   BANK3   BANK2
  5665 ;;      Params:         0       0       0       0       0
  5666 ;;      Locals:         1       0       0       0       0
  5667 ;;      Temps:          0       0       0       0       0
  5668 ;;      Totals:         1       0       0       0       0
  5669 ;;Total ram usage:        1 bytes
  5670 ;; Hardware stack levels used:    1
  5671 ;; Hardware stack levels required when called:    2
  5672 ;; This function calls:
  5673 ;;		_lcd_lat
  5674 ;;		_lcd_ready
  5675 ;; This function is called by:
  5676 ;;		_lcd_init
  5677 ;; This function uses a non-reentrant model
  5678 ;;
  5679                           psect	text16,local,class=CODE,delta=2,merge=1,group=0
  5680                           	line	36
  5681                           global __ptext16
  5682                           __ptext16:	;psect for function _lcd_cmd
  5683  0E10                     psect	text16
  5684                           	file	"LCD.c"
  5685                           	line	36
  5686                           	global	__size_of_lcd_cmd
  5687                           	__size_of_lcd_cmd	equ	__end_of_lcd_cmd-_lcd_cmd
  5688  0012                     	
  5689                           _lcd_cmd:	
  5690  0E10                     ;incstack = 0
  5691                           	opt	stack 4
  5692                           ; Regs used in _lcd_cmd: [wreg+status,2+status,0+pclath+cstack]
  5693                           ;lcd_cmd@x stored from wreg
  5694                           	movwf	(lcd_cmd@x)
  5695  0E10  00F7               	line	38
  5696                           	
  5697                           l2019:	
  5698  0E11                     ;LCD.c: 36: void lcd_cmd(unsigned char x);LCD.c: 37: {;LCD.c: 38:     lcd_ready();
  5699                           	fcall	_lcd_ready
  5700  0E11  120A  158A  270B  120A  158A  	line	39
  5701                           	
  5702                           l2021:	
  5703  0E16                     ;LCD.c: 39:     PORTB = x;
  5704                           	movf	(lcd_cmd@x),w
  5705  0E16  0877               	bcf	status, 5	;RP0=0, select bank0
  5706  0E17  1283               	bcf	status, 6	;RP1=0, select bank0
  5707  0E18  1303               	movwf	(6)	;volatile
  5708  0E19  0086               	line	40
  5709                           	
  5710                           l2023:	
  5711  0E1A                     ;LCD.c: 40:     PORTDbits.RD5 = 0;
  5712                           	bcf	(8),5	;volatile
  5713  0E1A  1288               	line	41
  5714                           	
  5715                           l2025:	
  5716  0E1B                     ;LCD.c: 41:     PORTDbits.RD6 = 0;
  5717                           	bcf	(8),6	;volatile
  5718  0E1B  1308               	line	42
  5719                           	
  5720                           l2027:	
  5721  0E1C                     ;LCD.c: 42:     lcd_lat();
  5722                           	fcall	_lcd_lat
  5723  0E1C  120A  158A  2600  120A  158A  	line	43
  5724                           	
  5725                           l215:	
  5726  0E21                     	return
  5727  0E21  0008               	opt stack 0
  5728                           GLOBAL	__end_of_lcd_cmd
  5729                           	__end_of_lcd_cmd:
  5730  0E22                     	signat	_lcd_cmd,4217
  5731                           	global	_lcd_ready
  5732                           
  5733 ;; *************** function _lcd_ready *****************
  5734 ;; Defined at:
  5735 ;;		line 19 in file "LCD.c"
  5736 ;; Parameters:    Size  Location     Type
  5737 ;;		None
  5738 ;; Auto vars:     Size  Location     Type
  5739 ;;		None
  5740 ;; Return value:  Size  Location     Type
  5741 ;;                  1    wreg      void 
  5742 ;; Registers used:
  5743 ;;		wreg, status,2, status,0, pclath, cstack
  5744 ;; Tracked objects:
  5745 ;;		On entry : 0/0
  5746 ;;		On exit  : 0/0
  5747 ;;		Unchanged: 0/0
  5748 ;; Data sizes:     COMMON   BANK0   BANK1   BANK3   BANK2
  5749 ;;      Params:         0       0       0       0       0
  5750 ;;      Locals:         0       0       0       0       0
  5751 ;;      Temps:          1       0       0       0       0
  5752 ;;      Totals:         1       0       0       0       0
  5753 ;;Total ram usage:        1 bytes
  5754 ;; Hardware stack levels used:    1
  5755 ;; Hardware stack levels required when called:    1
  5756 ;; This function calls:
  5757 ;;		_delay
  5758 ;; This function is called by:
  5759 ;;		_lcd_cmd
  5760 ;; This function uses a non-reentrant model
  5761 ;;
  5762                           psect	text17,local,class=CODE,delta=2,merge=1,group=0
  5763                           	line	19
  5764                           global __ptext17
  5765                           __ptext17:	;psect for function _lcd_ready
  5766  0F0B                     psect	text17
  5767                           	file	"LCD.c"
  5768                           	line	19
  5769                           	global	__size_of_lcd_ready
  5770                           	__size_of_lcd_ready	equ	__end_of_lcd_ready-_lcd_ready
  5771  002D                     	
  5772                           _lcd_ready:	
  5773  0F0B                     ;incstack = 0
  5774                           	opt	stack 4
  5775                           ; Regs used in _lcd_ready: [wreg+status,2+status,0+pclath+cstack]
  5776                           	line	21
  5777                           	
  5778                           l1965:	
  5779  0F0B                     ;LCD.c: 21:     PORTB = 0xFF;
  5780                           	movlw	low(0FFh)
  5781  0F0B  30FF               	bcf	status, 5	;RP0=0, select bank0
  5782  0F0C  1283               	bcf	status, 6	;RP1=0, select bank0
  5783  0F0D  1303               	movwf	(6)	;volatile
  5784  0F0E  0086               	line	22
  5785                           	
  5786                           l1967:	
  5787  0F0F                     ;LCD.c: 22:     PORTB &= 0x80;
  5788                           	movlw	low(080h)
  5789  0F0F  3080               	movwf	(??_lcd_ready+0)+0
  5790  0F10  00F6               	movf	(??_lcd_ready+0)+0,w
  5791  0F11  0876               	andwf	(6),f	;volatile
  5792  0F12  0586               	line	23
  5793                           	
  5794                           l1969:	
  5795  0F13                     ;LCD.c: 23:     PORTDbits.RD5 = 0;
  5796                           	bcf	(8),5	;volatile
  5797  0F13  1288               	line	24
  5798                           	
  5799                           l1971:	
  5800  0F14                     ;LCD.c: 24:     PORTDbits.RD6 = 1;
  5801                           	bsf	(8),6	;volatile
  5802  0F14  1708               	line	25
  5803                           	
  5804                           l1973:	
  5805  0F15                     ;LCD.c: 25:     PORTDbits.RD7 = 0; delay(1); PORTDbits.RD7 = 1;
  5806                           	bcf	(8),7	;volatile
  5807  0F15  1388               	
  5808                           l1975:	
  5809  0F16                     	movlw	01h
  5810  0F16  3001               	movwf	(delay@ms)
  5811  0F17  00F0               	movlw	0
  5812  0F18  3000               	movwf	((delay@ms))+1
  5813  0F19  00F1               	fcall	_delay
  5814  0F1A  120A  158A  2767  120A  158A  	
  5815                           l1977:	
  5816  0F1F                     	bcf	status, 5	;RP0=0, select bank0
  5817  0F1F  1283               	bcf	status, 6	;RP1=0, select bank0
  5818  0F20  1303               	bsf	(8),7	;volatile
  5819  0F21  1788               	line	26
  5820                           	
  5821                           l1979:	
  5822  0F22                     ;LCD.c: 26:     if(PORTB == 0x80)
  5823                           		movlw	128
  5824  0F22  3080               	xorwf	((6)),w	;volatile
  5825  0F23  0606               	btfss	status,2
  5826  0F24  1D03               	goto	u1081
  5827  0F25  2F27               	goto	u1080
  5828  0F26  2F28               u1081:
  5829  0F27                     	goto	l212
  5830  0F27  2F37               u1080:
  5831  0F28                     	line	28
  5832                           	
  5833                           l1981:	
  5834  0F28                     ;LCD.c: 27:     {;LCD.c: 28:         PORTDbits.RD7 = 0; delay(1); PORTDbits.RD7 = 1;
  5835                           	bcf	(8),7	;volatile
  5836  0F28  1388               	
  5837                           l1983:	
  5838  0F29                     	movlw	01h
  5839  0F29  3001               	movwf	(delay@ms)
  5840  0F2A  00F0               	movlw	0
  5841  0F2B  3000               	movwf	((delay@ms))+1
  5842  0F2C  00F1               	fcall	_delay
  5843  0F2D  120A  158A  2767  120A  158A  	
  5844                           l1985:	
  5845  0F32                     	bcf	status, 5	;RP0=0, select bank0
  5846  0F32  1283               	bcf	status, 6	;RP1=0, select bank0
  5847  0F33  1303               	bsf	(8),7	;volatile
  5848  0F34  1788               	line	29
  5849                           ;LCD.c: 29:     }
  5850                           	goto	l212
  5851  0F35  2F37               	line	30
  5852                           ;LCD.c: 30:     else
  5853                           	
  5854                           l210:	
  5855  0F36                     	goto	l212
  5856  0F36  2F37               	line	33
  5857                           ;LCD.c: 31:     {;LCD.c: 33:     }
  5858                           	
  5859                           l211:	
  5860  0F37                     	line	34
  5861                           	
  5862                           l212:	
  5863  0F37                     	return
  5864  0F37  0008               	opt stack 0
  5865                           GLOBAL	__end_of_lcd_ready
  5866                           	__end_of_lcd_ready:
  5867  0F38                     	signat	_lcd_ready,89
  5868                           	global	_lcd_lat
  5869                           
  5870 ;; *************** function _lcd_lat *****************
  5871 ;; Defined at:
  5872 ;;		line 12 in file "LCD.c"
  5873 ;; Parameters:    Size  Location     Type
  5874 ;;		None
  5875 ;; Auto vars:     Size  Location     Type
  5876 ;;		None
  5877 ;; Return value:  Size  Location     Type
  5878 ;;                  1    wreg      void 
  5879 ;; Registers used:
  5880 ;;		wreg, status,2, status,0, pclath, cstack
  5881 ;; Tracked objects:
  5882 ;;		On entry : 0/0
  5883 ;;		On exit  : 0/0
  5884 ;;		Unchanged: 0/0
  5885 ;; Data sizes:     COMMON   BANK0   BANK1   BANK3   BANK2
  5886 ;;      Params:         0       0       0       0       0
  5887 ;;      Locals:         0       0       0       0       0
  5888 ;;      Temps:          0       0       0       0       0
  5889 ;;      Totals:         0       0       0       0       0
  5890 ;;Total ram usage:        0 bytes
  5891 ;; Hardware stack levels used:    1
  5892 ;; Hardware stack levels required when called:    1
  5893 ;; This function calls:
  5894 ;;		_delay
  5895 ;; This function is called by:
  5896 ;;		_lcd_cmd
  5897 ;; This function uses a non-reentrant model
  5898 ;;
  5899                           psect	text18,local,class=CODE,delta=2,merge=1,group=0
  5900                           	line	12
  5901                           global __ptext18
  5902                           __ptext18:	;psect for function _lcd_lat
  5903  0E00                     psect	text18
  5904                           	file	"LCD.c"
  5905                           	line	12
  5906                           	global	__size_of_lcd_lat
  5907                           	__size_of_lcd_lat	equ	__end_of_lcd_lat-_lcd_lat
  5908  0010                     	
  5909                           _lcd_lat:	
  5910  0E00                     ;incstack = 0
  5911                           	opt	stack 4
  5912                           ; Regs used in _lcd_lat: [wreg+status,2+status,0+pclath+cstack]
  5913                           	line	14
  5914                           	
  5915                           l1959:	
  5916  0E00                     ;LCD.c: 14:     PORTDbits.RD7 = 1;
  5917                           	bcf	status, 5	;RP0=0, select bank0
  5918  0E00  1283               	bcf	status, 6	;RP1=0, select bank0
  5919  0E01  1303               	bsf	(8),7	;volatile
  5920  0E02  1788               	line	15
  5921                           	
  5922                           l1961:	
  5923  0E03                     ;LCD.c: 15:     delay(1);
  5924                           	movlw	01h
  5925  0E03  3001               	movwf	(delay@ms)
  5926  0E04  00F0               	movlw	0
  5927  0E05  3000               	movwf	((delay@ms))+1
  5928  0E06  00F1               	fcall	_delay
  5929  0E07  120A  158A  2767  120A  158A  	line	16
  5930                           	
  5931                           l1963:	
  5932  0E0C                     ;LCD.c: 16:     PORTDbits.RD7 = 0;
  5933                           	bcf	status, 5	;RP0=0, select bank0
  5934  0E0C  1283               	bcf	status, 6	;RP1=0, select bank0
  5935  0E0D  1303               	bcf	(8),7	;volatile
  5936  0E0E  1388               	line	17
  5937                           	
  5938                           l207:	
  5939  0E0F                     	return
  5940  0E0F  0008               	opt stack 0
  5941                           GLOBAL	__end_of_lcd_lat
  5942                           	__end_of_lcd_lat:
  5943  0E10                     	signat	_lcd_lat,89
  5944                           	global	_delay
  5945                           
  5946 ;; *************** function _delay *****************
  5947 ;; Defined at:
  5948 ;;		line 54 in file "LCD.c"
  5949 ;; Parameters:    Size  Location     Type
  5950 ;;  ms              2    0[COMMON] unsigned int 
  5951 ;; Auto vars:     Size  Location     Type
  5952 ;;  i               2    4[COMMON] unsigned int 
  5953 ;;  j               2    2[COMMON] unsigned int 
  5954 ;; Return value:  Size  Location     Type
  5955 ;;                  1    wreg      void 
  5956 ;; Registers used:
  5957 ;;		wreg, status,2
  5958 ;; Tracked objects:
  5959 ;;		On entry : 0/0
  5960 ;;		On exit  : 0/0
  5961 ;;		Unchanged: 0/0
  5962 ;; Data sizes:     COMMON   BANK0   BANK1   BANK3   BANK2
  5963 ;;      Params:         2       0       0       0       0
  5964 ;;      Locals:         4       0       0       0       0
  5965 ;;      Temps:          0       0       0       0       0
  5966 ;;      Totals:         6       0       0       0       0
  5967 ;;Total ram usage:        6 bytes
  5968 ;; Hardware stack levels used:    1
  5969 ;; This function calls:
  5970 ;;		Nothing
  5971 ;; This function is called by:
  5972 ;;		_lcd_lat
  5973 ;;		_lcd_ready
  5974 ;;		_main
  5975 ;; This function uses a non-reentrant model
  5976 ;;
  5977                           psect	text19,local,class=CODE,delta=2,merge=1,group=0
  5978                           	line	54
  5979                           global __ptext19
  5980                           __ptext19:	;psect for function _delay
  5981  0F67                     psect	text19
  5982                           	file	"LCD.c"
  5983                           	line	54
  5984                           	global	__size_of_delay
  5985                           	__size_of_delay	equ	__end_of_delay-_delay
  5986  0032                     	
  5987                           _delay:	
  5988  0F67                     ;incstack = 0
  5989                           	opt	stack 4
  5990                           ; Regs used in _delay: [wreg+status,2]
  5991                           	line	57
  5992                           	
  5993                           l1943:	
  5994  0F67                     ;LCD.c: 54: void delay(unsigned int ms);LCD.c: 55: {;LCD.c: 56:     unsigned int i,j;;LC
                                 D.c: 57:     for(i=0;i<=120;i++)
  5995                           	clrf	(delay@i)
  5996  0F67  01F4               	clrf	(delay@i+1)
  5997  0F68  01F5               	
  5998                           l1945:	
  5999  0F69                     	movlw	0
  6000  0F69  3000               	subwf	(delay@i+1),w
  6001  0F6A  0275               	movlw	079h
  6002  0F6B  3079               	skipnz
  6003  0F6C  1903               	subwf	(delay@i),w
  6004  0F6D  0274               	skipc
  6005  0F6E  1C03               	goto	u1031
  6006  0F6F  2F71               	goto	u1030
  6007  0F70  2F72               u1031:
  6008  0F71                     	goto	l1949
  6009  0F71  2F74               u1030:
  6010  0F72                     	goto	l226
  6011  0F72  2F98               	
  6012                           l1947:	
  6013  0F73                     	goto	l226
  6014  0F73  2F98               	
  6015                           l221:	
  6016  0F74                     	line	58
  6017                           	
  6018                           l1949:	
  6019  0F74                     ;LCD.c: 58:         for(j=0;j<=ms;j++);
  6020                           	clrf	(delay@j)
  6021  0F74  01F2               	clrf	(delay@j+1)
  6022  0F75  01F3               	goto	l223
  6023  0F76  2F7D               	
  6024                           l224:	
  6025  0F77                     	
  6026                           l1951:	
  6027  0F77                     	movlw	01h
  6028  0F77  3001               	addwf	(delay@j),f
  6029  0F78  07F2               	skipnc
  6030  0F79  1803               	incf	(delay@j+1),f
  6031  0F7A  0AF3               	movlw	0
  6032  0F7B  3000               	addwf	(delay@j+1),f
  6033  0F7C  07F3               	
  6034                           l223:	
  6035  0F7D                     	movf	(delay@j+1),w
  6036  0F7D  0873               	subwf	(delay@ms+1),w
  6037  0F7E  0271               	skipz
  6038  0F7F  1D03               	goto	u1045
  6039  0F80  2F83               	movf	(delay@j),w
  6040  0F81  0872               	subwf	(delay@ms),w
  6041  0F82  0270               u1045:
  6042  0F83                     	skipnc
  6043  0F83  1803               	goto	u1041
  6044  0F84  2F86               	goto	u1040
  6045  0F85  2F87               u1041:
  6046  0F86                     	goto	l1951
  6047  0F86  2F77               u1040:
  6048  0F87                     	goto	l1953
  6049  0F87  2F88               	
  6050                           l225:	
  6051  0F88                     	
  6052                           l1953:	
  6053  0F88                     	movlw	01h
  6054  0F88  3001               	addwf	(delay@i),f
  6055  0F89  07F4               	skipnc
  6056  0F8A  1803               	incf	(delay@i+1),f
  6057  0F8B  0AF5               	movlw	0
  6058  0F8C  3000               	addwf	(delay@i+1),f
  6059  0F8D  07F5               	movlw	0
  6060  0F8E  3000               	subwf	(delay@i+1),w
  6061  0F8F  0275               	movlw	079h
  6062  0F90  3079               	skipnz
  6063  0F91  1903               	subwf	(delay@i),w
  6064  0F92  0274               	skipc
  6065  0F93  1C03               	goto	u1051
  6066  0F94  2F96               	goto	u1050
  6067  0F95  2F97               u1051:
  6068  0F96                     	goto	l1949
  6069  0F96  2F74               u1050:
  6070  0F97                     	goto	l226
  6071  0F97  2F98               	
  6072                           l222:	
  6073  0F98                     	line	59
  6074                           	
  6075                           l226:	
  6076  0F98                     	return
  6077  0F98  0008               	opt stack 0
  6078                           GLOBAL	__end_of_delay
  6079                           	__end_of_delay:
  6080  0F99                     	signat	_delay,4217
  6081                           	global	_config
  6082                           
  6083 ;; *************** function _config *****************
  6084 ;; Defined at:
  6085 ;;		line 12 in file "USART1.c"
  6086 ;; Parameters:    Size  Location     Type
  6087 ;;		None
  6088 ;; Auto vars:     Size  Location     Type
  6089 ;;		None
  6090 ;; Return value:  Size  Location     Type
  6091 ;;                  1    wreg      void 
  6092 ;; Registers used:
  6093 ;;		wreg, status,2
  6094 ;; Tracked objects:
  6095 ;;		On entry : 0/0
  6096 ;;		On exit  : 0/0
  6097 ;;		Unchanged: 0/0
  6098 ;; Data sizes:     COMMON   BANK0   BANK1   BANK3   BANK2
  6099 ;;      Params:         0       0       0       0       0
  6100 ;;      Locals:         0       0       0       0       0
  6101 ;;      Temps:          0       0       0       0       0
  6102 ;;      Totals:         0       0       0       0       0
  6103 ;;Total ram usage:        0 bytes
  6104 ;; Hardware stack levels used:    1
  6105 ;; This function calls:
  6106 ;;		Nothing
  6107 ;; This function is called by:
  6108 ;;		_main
  6109 ;; This function uses a non-reentrant model
  6110 ;;
  6111                           psect	text20,local,class=CODE,delta=2,merge=1,group=0
  6112                           	file	"USART1.c"
  6113                           	line	12
  6114                           global __ptext20
  6115                           __ptext20:	;psect for function _config
  6116  0E49                     psect	text20
  6117                           	file	"USART1.c"
  6118                           	line	12
  6119                           	global	__size_of_config
  6120                           	__size_of_config	equ	__end_of_config-_config
  6121  0014                     	
  6122                           _config:	
  6123  0E49                     ;incstack = 0
  6124                           	opt	stack 7
  6125                           ; Regs used in _config: [wreg+status,2]
  6126                           	line	13
  6127                           	
  6128                           l2213:	
  6129  0E49                     ;USART1.c: 13:     TXSTAbits.SYNC = 0;
  6130                           	bsf	status, 5	;RP0=1, select bank1
  6131  0E49  1683               	bcf	status, 6	;RP1=0, select bank1
  6132  0E4A  1303               	bcf	(152)^080h,4	;volatile
  6133  0E4B  1218               	line	14
  6134                           ;USART1.c: 14:     TXSTAbits.BRGH = 0;
  6135                           	bcf	(152)^080h,2	;volatile
  6136  0E4C  1118               	line	15
  6137                           ;USART1.c: 15:     BAUDCTLbits.BRG16 = 1;
  6138                           	bsf	status, 5	;RP0=1, select bank3
  6139  0E4D  1683               	bsf	status, 6	;RP1=1, select bank3
  6140  0E4E  1703               	bsf	(391)^0180h,3	;volatile
  6141  0E4F  1587               	line	16
  6142                           	
  6143                           l2215:	
  6144  0E50                     ;USART1.c: 16:     SPBRG = 25;
  6145                           	movlw	low(019h)
  6146  0E50  3019               	bsf	status, 5	;RP0=1, select bank1
  6147  0E51  1683               	bcf	status, 6	;RP1=0, select bank1
  6148  0E52  1303               	movwf	(153)^080h	;volatile
  6149  0E53  0099               	line	17
  6150                           	
  6151                           l2217:	
  6152  0E54                     ;USART1.c: 17:     SPBRGH = 0;
  6153                           	clrf	(154)^080h	;volatile
  6154  0E54  019A               	line	18
  6155                           	
  6156                           l2219:	
  6157  0E55                     ;USART1.c: 18:     RCSTAbits.SPEN = 1;
  6158                           	bcf	status, 5	;RP0=0, select bank0
  6159  0E55  1283               	bcf	status, 6	;RP1=0, select bank0
  6160  0E56  1303               	bsf	(24),7	;volatile
  6161  0E57  1798               	line	19
  6162                           	
  6163                           l2221:	
  6164  0E58                     ;USART1.c: 19:     RCSTAbits.CREN = 1;
  6165                           	bsf	(24),4	;volatile
  6166  0E58  1618               	line	20
  6167                           	
  6168                           l2223:	
  6169  0E59                     ;USART1.c: 20:     TXSTAbits.TXEN = 1;
  6170                           	bsf	status, 5	;RP0=1, select bank1
  6171  0E59  1683               	bcf	status, 6	;RP1=0, select bank1
  6172  0E5A  1303               	bsf	(152)^080h,5	;volatile
  6173  0E5B  1698               	line	21
  6174                           	
  6175                           l425:	
  6176  0E5C                     	return
  6177  0E5C  0008               	opt stack 0
  6178                           GLOBAL	__end_of_config
  6179                           	__end_of_config:
  6180  0E5D                     	signat	_config,89
  6181                           	global	_atoi
  6182                           
  6183 ;; *************** function _atoi *****************
  6184 ;; Defined at:
  6185 ;;		line 5 in file "C:\Program Files (x86)\Microchip\xc8\v2.00\pic\sources\c90\common\atoi.c"
  6186 ;; Parameters:    Size  Location     Type
  6187 ;;  s               1    wreg     PTR const unsigned char 
  6188 ;;		 -> valorf(1), 
  6189 ;; Auto vars:     Size  Location     Type
  6190 ;;  s               1   13[COMMON] PTR const unsigned char 
  6191 ;;		 -> valorf(1), 
  6192 ;;  a               2   11[COMMON] int 
  6193 ;;  sign            1   10[COMMON] unsigned char 
  6194 ;; Return value:  Size  Location     Type
  6195 ;;                  2    6[COMMON] int 
  6196 ;; Registers used:
  6197 ;;		wreg, fsr0l, fsr0h, status,2, status,0, pclath, cstack
  6198 ;; Tracked objects:
  6199 ;;		On entry : 0/0
  6200 ;;		On exit  : 0/0
  6201 ;;		Unchanged: 0/0
  6202 ;; Data sizes:     COMMON   BANK0   BANK1   BANK3   BANK2
  6203 ;;      Params:         2       0       0       0       0
  6204 ;;      Locals:         4       0       0       0       0
  6205 ;;      Temps:          2       0       0       0       0
  6206 ;;      Totals:         8       0       0       0       0
  6207 ;;Total ram usage:        8 bytes
  6208 ;; Hardware stack levels used:    1
  6209 ;; Hardware stack levels required when called:    1
  6210 ;; This function calls:
  6211 ;;		___wmul
  6212 ;;		_isdigit
  6213 ;; This function is called by:
  6214 ;;		_main
  6215 ;; This function uses a non-reentrant model
  6216 ;;
  6217                           psect	text21,local,class=CODE,delta=2,merge=1,group=2
  6218                           	file	"C:\Program Files (x86)\Microchip\xc8\v2.00\pic\sources\c90\common\atoi.c"
  6219                           	line	5
  6220                           global __ptext21
  6221                           __ptext21:	;psect for function _atoi
  6222  0245                     psect	text21
  6223                           	file	"C:\Program Files (x86)\Microchip\xc8\v2.00\pic\sources\c90\common\atoi.c"
  6224                           	line	5
  6225                           	global	__size_of_atoi
  6226                           	__size_of_atoi	equ	__end_of_atoi-_atoi
  6227  0085                     	
  6228                           _atoi:	
  6229  0245                     ;incstack = 0
  6230                           	opt	stack 6
  6231                           ; Regs used in _atoi: [wreg-fsr0h+status,2+status,0+pclath+cstack]
  6232                           ;atoi@s stored from wreg
  6233                           	movwf	(atoi@s)
  6234  0245  00FD               	line	10
  6235                           	
  6236                           l2225:	
  6237  0246                     	goto	l2229
  6238  0246  2A4C               	
  6239                           l1005:	
  6240  0247                     	line	11
  6241                           	
  6242                           l2227:	
  6243  0247                     	movlw	low(01h)
  6244  0247  3001               	movwf	(??_atoi+0)+0
  6245  0248  00F8               	movf	(??_atoi+0)+0,w
  6246  0249  0878               	addwf	(atoi@s),f
  6247  024A  07FD               	goto	l2229
  6248  024B  2A4C               	
  6249                           l1004:	
  6250  024C                     	line	10
  6251                           	
  6252                           l2229:	
  6253  024C                     	movf	(atoi@s),w
  6254  024C  087D               	movwf	fsr0
  6255  024D  0084               		movlw	32
  6256  024E  3020               	bcf	status, 7	;select IRP bank0
  6257  024F  1383               	xorwf	(indf),w
  6258  0250  0600               	btfsc	status,2
  6259  0251  1903               	goto	u1461
  6260  0252  2A54               	goto	u1460
  6261  0253  2A55               u1461:
  6262  0254                     	goto	l2227
  6263  0254  2A47               u1460:
  6264  0255                     	
  6265                           l2231:	
  6266  0255                     	movf	(atoi@s),w
  6267  0255  087D               	movwf	fsr0
  6268  0256  0084               		movlw	9
  6269  0257  3009               	xorwf	(indf),w
  6270  0258  0600               	btfsc	status,2
  6271  0259  1903               	goto	u1471
  6272  025A  2A5C               	goto	u1470
  6273  025B  2A5D               u1471:
  6274  025C                     	goto	l2227
  6275  025C  2A47               u1470:
  6276  025D                     	goto	l2233
  6277  025D  2A5E               	
  6278                           l1006:	
  6279  025E                     	line	12
  6280                           	
  6281                           l2233:	
  6282  025E                     	clrf	(atoi@a)
  6283  025E  01FB               	clrf	(atoi@a+1)
  6284  025F  01FC               	line	13
  6285                           	clrf	(atoi@sign)
  6286  0260  01FA               	line	14
  6287                           	
  6288                           l2235:	
  6289  0261                     	movf	(atoi@s),w
  6290  0261  087D               	movwf	fsr0
  6291  0262  0084               		movlw	45
  6292  0263  302D               	xorwf	(indf),w
  6293  0264  0600               	btfss	status,2
  6294  0265  1D03               	goto	u1481
  6295  0266  2A68               	goto	u1480
  6296  0267  2A69               u1481:
  6297  0268                     	goto	l2239
  6298  0268  2A72               u1480:
  6299  0269                     	line	15
  6300                           	
  6301                           l2237:	
  6302  0269                     	movlw	low(01h)
  6303  0269  3001               	movwf	(??_atoi+0)+0
  6304  026A  00F8               	movf	(??_atoi+0)+0,w
  6305  026B  0878               	addwf	(atoi@sign),f
  6306  026C  07FA               	line	16
  6307                           	movlw	low(01h)
  6308  026D  3001               	movwf	(??_atoi+0)+0
  6309  026E  00F8               	movf	(??_atoi+0)+0,w
  6310  026F  0878               	addwf	(atoi@s),f
  6311  0270  07FD               	line	17
  6312                           	goto	l2247
  6313  0271  2AA5               	
  6314                           l1007:	
  6315  0272                     	
  6316                           l2239:	
  6317  0272                     	movf	(atoi@s),w
  6318  0272  087D               	movwf	fsr0
  6319  0273  0084               		movlw	43
  6320  0274  302B               	xorwf	(indf),w
  6321  0275  0600               	btfss	status,2
  6322  0276  1D03               	goto	u1491
  6323  0277  2A79               	goto	u1490
  6324  0278  2A7A               u1491:
  6325  0279                     	goto	l2247
  6326  0279  2AA5               u1490:
  6327  027A                     	line	18
  6328                           	
  6329                           l2241:	
  6330  027A                     	movlw	low(01h)
  6331  027A  3001               	movwf	(??_atoi+0)+0
  6332  027B  00F8               	movf	(??_atoi+0)+0,w
  6333  027C  0878               	addwf	(atoi@s),f
  6334  027D  07FD               	goto	l2247
  6335  027E  2AA5               	
  6336                           l1009:	
  6337  027F                     	goto	l2247
  6338  027F  2AA5               	line	19
  6339                           	
  6340                           l1008:	
  6341  0280                     	goto	l2247
  6342  0280  2AA5               	
  6343                           l1011:	
  6344  0281                     	line	20
  6345                           	
  6346                           l2243:	
  6347  0281                     	movf	(atoi@a+1),w
  6348  0281  087C               	movwf	(___wmul@multiplier+1)
  6349  0282  00F1               	movf	(atoi@a),w
  6350  0283  087B               	movwf	(___wmul@multiplier)
  6351  0284  00F0               	movlw	0Ah
  6352  0285  300A               	movwf	(___wmul@multiplicand)
  6353  0286  00F2               	movlw	0
  6354  0287  3000               	movwf	((___wmul@multiplicand))+1
  6355  0288  00F3               	fcall	___wmul
  6356  0289  120A  158A  26B9  120A  118A  	movf	(atoi@s),w
  6357  028E  087D               	movwf	fsr0
  6358  028F  0084               	bcf	status, 7	;select IRP bank0
  6359  0290  1383               	movf	indf,w
  6360  0291  0800               	addwf	(0+(?___wmul)),w
  6361  0292  0770               	movwf	(??_atoi+0)+0
  6362  0293  00F8               	movf	(1+(?___wmul)),w
  6363  0294  0871               	skipnc
  6364  0295  1803               	incf	(1+(?___wmul)),w
  6365  0296  0A71               	movwf	((??_atoi+0)+0)+1
  6366  0297  00F9               	movf	0+(??_atoi+0)+0,w
  6367  0298  0878               	addlw	low(0FFD0h)
  6368  0299  3ED0               	movwf	(atoi@a)
  6369  029A  00FB               	movf	1+(??_atoi+0)+0,w
  6370  029B  0879               	skipnc
  6371  029C  1803               	addlw	1
  6372  029D  3E01               	addlw	high(0FFD0h)
  6373  029E  3EFF               	movwf	1+(atoi@a)
  6374  029F  00FC               	
  6375                           l2245:	
  6376  02A0                     	movlw	low(01h)
  6377  02A0  3001               	movwf	(??_atoi+0)+0
  6378  02A1  00F8               	movf	(??_atoi+0)+0,w
  6379  02A2  0878               	addwf	(atoi@s),f
  6380  02A3  07FD               	goto	l2247
  6381  02A4  2AA5               	
  6382                           l1010:	
  6383  02A5                     	line	19
  6384                           	
  6385                           l2247:	
  6386  02A5                     	movf	(atoi@s),w
  6387  02A5  087D               	movwf	fsr0
  6388  02A6  0084               	movf	indf,w
  6389  02A7  0800               	fcall	_isdigit
  6390  02A8  120A  158A  2635  120A  118A  	btfsc	status,0
  6391  02AD  1803               	goto	u1501
  6392  02AE  2AB0               	goto	u1500
  6393  02AF  2AB1               u1501:
  6394  02B0                     	goto	l2243
  6395  02B0  2A81               u1500:
  6396  02B1                     	goto	l2249
  6397  02B1  2AB2               	
  6398                           l1012:	
  6399  02B2                     	line	21
  6400                           	
  6401                           l2249:	
  6402  02B2                     	movf	((atoi@sign)),w
  6403  02B2  087A               	btfsc	status,2
  6404  02B3  1903               	goto	u1511
  6405  02B4  2AB6               	goto	u1510
  6406  02B5  2AB7               u1511:
  6407  02B6                     	goto	l2255
  6408  02B6  2AC4               u1510:
  6409  02B7                     	line	22
  6410                           	
  6411                           l2251:	
  6412  02B7                     	comf	(atoi@a),w
  6413  02B7  097B               	movwf	(??_atoi+0)+0
  6414  02B8  00F8               	comf	(atoi@a+1),w
  6415  02B9  097C               	movwf	((??_atoi+0)+0+1)
  6416  02BA  00F9               	incf	(??_atoi+0)+0,f
  6417  02BB  0AF8               	skipnz
  6418  02BC  1903               	incf	((??_atoi+0)+0+1),f
  6419  02BD  0AF9               	movf	0+(??_atoi+0)+0,w
  6420  02BE  0878               	movwf	(?_atoi)
  6421  02BF  00F6               	movf	1+(??_atoi+0)+0,w
  6422  02C0  0879               	movwf	(?_atoi+1)
  6423  02C1  00F7               	goto	l1014
  6424  02C2  2AC9               	
  6425                           l2253:	
  6426  02C3                     	goto	l1014
  6427  02C3  2AC9               	
  6428                           l1013:	
  6429  02C4                     	line	23
  6430                           	
  6431                           l2255:	
  6432  02C4                     	movf	(atoi@a+1),w
  6433  02C4  087C               	movwf	(?_atoi+1)
  6434  02C5  00F7               	movf	(atoi@a),w
  6435  02C6  087B               	movwf	(?_atoi)
  6436  02C7  00F6               	goto	l1014
  6437  02C8  2AC9               	
  6438                           l2257:	
  6439  02C9                     	line	24
  6440                           	
  6441                           l1014:	
  6442  02C9                     	return
  6443  02C9  0008               	opt stack 0
  6444                           GLOBAL	__end_of_atoi
  6445                           	__end_of_atoi:
  6446  02CA                     	signat	_atoi,4218
  6447                           	global	_isdigit
  6448                           
  6449 ;; *************** function _isdigit *****************
  6450 ;; Defined at:
  6451 ;;		line 8 in file "C:\Program Files (x86)\Microchip\xc8\v2.00\pic\sources\c90\common\isdigit.c"
  6452 ;; Parameters:    Size  Location     Type
  6453 ;;  c               1    wreg     unsigned char 
  6454 ;; Auto vars:     Size  Location     Type
  6455 ;;  c               1    1[COMMON] unsigned char 
  6456 ;; Return value:  Size  Location     Type
  6457 ;;		None               void
  6458 ;; Registers used:
  6459 ;;		wreg, status,2, status,0
  6460 ;; Tracked objects:
  6461 ;;		On entry : 0/0
  6462 ;;		On exit  : 0/0
  6463 ;;		Unchanged: 0/0
  6464 ;; Data sizes:     COMMON   BANK0   BANK1   BANK3   BANK2
  6465 ;;      Params:         0       0       0       0       0
  6466 ;;      Locals:         2       0       0       0       0
  6467 ;;      Temps:          0       0       0       0       0
  6468 ;;      Totals:         2       0       0       0       0
  6469 ;;Total ram usage:        2 bytes
  6470 ;; Hardware stack levels used:    1
  6471 ;; This function calls:
  6472 ;;		Nothing
  6473 ;; This function is called by:
  6474 ;;		_sprintf
  6475 ;;		_atoi
  6476 ;; This function uses a non-reentrant model
  6477 ;;
  6478                           psect	text22,local,class=CODE,delta=2,merge=1,group=2
  6479                           	file	"C:\Program Files (x86)\Microchip\xc8\v2.00\pic\sources\c90\common\isdigit.c"
  6480                           	line	8
  6481                           global __ptext22
  6482                           __ptext22:	;psect for function _isdigit
  6483  0E35                     psect	text22
  6484                           	file	"C:\Program Files (x86)\Microchip\xc8\v2.00\pic\sources\c90\common\isdigit.c"
  6485                           	line	8
  6486                           	global	__size_of_isdigit
  6487                           	__size_of_isdigit	equ	__end_of_isdigit-_isdigit
  6488  0014                     	
  6489                           _isdigit:	
  6490  0E35                     ;incstack = 0
  6491                           	opt	stack 6
  6492                           ; Regs used in _isdigit: [wreg+status,2+status,0]
  6493                           ;isdigit@c stored from wreg
  6494                           	movwf	(isdigit@c)
  6495  0E35  00F1               	line	14
  6496                           	
  6497                           l2045:	
  6498  0E36                     	clrf	(_isdigit$1143)
  6499  0E36  01F0               	
  6500                           l2047:	
  6501  0E37                     	movlw	low(03Ah)
  6502  0E37  303A               	subwf	(isdigit@c),w
  6503  0E38  0271               	skipnc
  6504  0E39  1803               	goto	u1101
  6505  0E3A  2E3C               	goto	u1100
  6506  0E3B  2E3D               u1101:
  6507  0E3C                     	goto	l2053
  6508  0E3C  2E46               u1100:
  6509  0E3D                     	
  6510                           l2049:	
  6511  0E3D                     	movlw	low(030h)
  6512  0E3D  3030               	subwf	(isdigit@c),w
  6513  0E3E  0271               	skipc
  6514  0E3F  1C03               	goto	u1111
  6515  0E40  2E42               	goto	u1110
  6516  0E41  2E43               u1111:
  6517  0E42                     	goto	l2053
  6518  0E42  2E46               u1110:
  6519  0E43                     	
  6520                           l2051:	
  6521  0E43                     	clrf	(_isdigit$1143)
  6522  0E43  01F0               	incf	(_isdigit$1143),f
  6523  0E44  0AF0               	goto	l2053
  6524  0E45  2E46               	
  6525                           l1018:	
  6526  0E46                     	
  6527                           l2053:	
  6528  0E46                     	rrf	(_isdigit$1143),w
  6529  0E46  0C70               	
  6530                           	goto	l1019
  6531  0E47  2E48               	
  6532                           l2055:	
  6533  0E48                     	line	15
  6534                           	
  6535                           l1019:	
  6536  0E48                     	return
  6537  0E48  0008               	opt stack 0
  6538                           GLOBAL	__end_of_isdigit
  6539                           	__end_of_isdigit:
  6540  0E49                     	signat	_isdigit,4216
  6541                           	global	___wmul
  6542                           
  6543 ;; *************** function ___wmul *****************
  6544 ;; Defined at:
  6545 ;;		line 15 in file "C:\Program Files (x86)\Microchip\xc8\v2.00\pic\sources\c90\common\Umul16.c"
  6546 ;; Parameters:    Size  Location     Type
  6547 ;;  multiplier      2    0[COMMON] unsigned int 
  6548 ;;  multiplicand    2    2[COMMON] unsigned int 
  6549 ;; Auto vars:     Size  Location     Type
  6550 ;;  product         2    4[COMMON] unsigned int 
  6551 ;; Return value:  Size  Location     Type
  6552 ;;                  2    0[COMMON] unsigned int 
  6553 ;; Registers used:
  6554 ;;		wreg, status,2, status,0
  6555 ;; Tracked objects:
  6556 ;;		On entry : 0/0
  6557 ;;		On exit  : 0/0
  6558 ;;		Unchanged: 0/0
  6559 ;; Data sizes:     COMMON   BANK0   BANK1   BANK3   BANK2
  6560 ;;      Params:         4       0       0       0       0
  6561 ;;      Locals:         2       0       0       0       0
  6562 ;;      Temps:          0       0       0       0       0
  6563 ;;      Totals:         6       0       0       0       0
  6564 ;;Total ram usage:        6 bytes
  6565 ;; Hardware stack levels used:    1
  6566 ;; This function calls:
  6567 ;;		Nothing
  6568 ;; This function is called by:
  6569 ;;		_atoi
  6570 ;;		_BCD_2_DEC
  6571 ;; This function uses a non-reentrant model
  6572 ;;
  6573                           psect	text23,local,class=CODE,delta=2,merge=1,group=1
  6574                           	file	"C:\Program Files (x86)\Microchip\xc8\v2.00\pic\sources\c90\common\Umul16.c"
  6575                           	line	15
  6576                           global __ptext23
  6577                           __ptext23:	;psect for function ___wmul
  6578  0EB9                     psect	text23
  6579                           	file	"C:\Program Files (x86)\Microchip\xc8\v2.00\pic\sources\c90\common\Umul16.c"
  6580                           	line	15
  6581                           	global	__size_of___wmul
  6582                           	__size_of___wmul	equ	__end_of___wmul-___wmul
  6583  0028                     	
  6584                           ___wmul:	
  6585  0EB9                     ;incstack = 0
  6586                           	opt	stack 6
  6587                           ; Regs used in ___wmul: [wreg+status,2+status,0]
  6588                           	line	43
  6589                           	
  6590                           l2057:	
  6591  0EB9                     	clrf	(___wmul@product)
  6592  0EB9  01F4               	clrf	(___wmul@product+1)
  6593  0EBA  01F5               	goto	l2059
  6594  0EBB  2EBC               	line	44
  6595                           	
  6596                           l575:	
  6597  0EBC                     	line	45
  6598                           	
  6599                           l2059:	
  6600  0EBC                     	btfss	(___wmul@multiplier),(0)&7
  6601  0EBC  1C70               	goto	u1121
  6602  0EBD  2EBF               	goto	u1120
  6603  0EBE  2EC0               u1121:
  6604  0EBF                     	goto	l576
  6605  0EBF  2EC6               u1120:
  6606  0EC0                     	line	46
  6607                           	
  6608                           l2061:	
  6609  0EC0                     	movf	(___wmul@multiplicand),w
  6610  0EC0  0872               	addwf	(___wmul@product),f
  6611  0EC1  07F4               	skipnc
  6612  0EC2  1803               	incf	(___wmul@product+1),f
  6613  0EC3  0AF5               	movf	(___wmul@multiplicand+1),w
  6614  0EC4  0873               	addwf	(___wmul@product+1),f
  6615  0EC5  07F5               	
  6616                           l576:	
  6617  0EC6                     	line	47
  6618                           	movlw	01h
  6619  0EC6  3001               	
  6620                           u1135:
  6621  0EC7                     	clrc
  6622  0EC7  1003               	rlf	(___wmul@multiplicand),f
  6623  0EC8  0DF2               	rlf	(___wmul@multiplicand+1),f
  6624  0EC9  0DF3               	addlw	-1
  6625  0ECA  3EFF               	skipz
  6626  0ECB  1D03               	goto	u1135
  6627  0ECC  2EC7               	line	48
  6628                           	
  6629                           l2063:	
  6630  0ECD                     	movlw	01h
  6631  0ECD  3001               	
  6632                           u1145:
  6633  0ECE                     	clrc
  6634  0ECE  1003               	rrf	(___wmul@multiplier+1),f
  6635  0ECF  0CF1               	rrf	(___wmul@multiplier),f
  6636  0ED0  0CF0               	addlw	-1
  6637  0ED1  3EFF               	skipz
  6638  0ED2  1D03               	goto	u1145
  6639  0ED3  2ECE               	line	49
  6640                           	
  6641                           l2065:	
  6642  0ED4                     	movf	((___wmul@multiplier)),w
  6643  0ED4  0870               iorwf	((___wmul@multiplier+1)),w
  6644  0ED5  0471               	btfss	status,2
  6645  0ED6  1D03               	goto	u1151
  6646  0ED7  2ED9               	goto	u1150
  6647  0ED8  2EDA               u1151:
  6648  0ED9                     	goto	l2059
  6649  0ED9  2EBC               u1150:
  6650  0EDA                     	goto	l2067
  6651  0EDA  2EDB               	
  6652                           l577:	
  6653  0EDB                     	line	52
  6654                           	
  6655                           l2067:	
  6656  0EDB                     	movf	(___wmul@product+1),w
  6657  0EDB  0875               	movwf	(?___wmul+1)
  6658  0EDC  00F1               	movf	(___wmul@product),w
  6659  0EDD  0874               	movwf	(?___wmul)
  6660  0EDE  00F0               	goto	l578
  6661  0EDF  2EE0               	
  6662                           l2069:	
  6663  0EE0                     	line	53
  6664                           	
  6665                           l578:	
  6666  0EE0                     	return
  6667  0EE0  0008               	opt stack 0
  6668                           GLOBAL	__end_of___wmul
  6669                           	__end_of___wmul:
  6670  0EE1                     	signat	___wmul,8314
  6671                           	global	_LCD_STRING
  6672                           
  6673 ;; *************** function _LCD_STRING *****************
  6674 ;; Defined at:
  6675 ;;		line 98 in file "LCD.c"
  6676 ;; Parameters:    Size  Location     Type
  6677 ;;  a               2    2[COMMON] PTR unsigned char 
  6678 ;;		 -> valor(16), time(12), STR_2(16), STR_1(12), 
  6679 ;; Auto vars:     Size  Location     Type
  6680 ;;  n               2    7[COMMON] int 
  6681 ;; Return value:  Size  Location     Type
  6682 ;;                  1    wreg      void 
  6683 ;; Registers used:
  6684 ;;		wreg, fsr0l, fsr0h, status,2, status,0, btemp+1, pclath, cstack
  6685 ;; Tracked objects:
  6686 ;;		On entry : 0/0
  6687 ;;		On exit  : 0/0
  6688 ;;		Unchanged: 0/0
  6689 ;; Data sizes:     COMMON   BANK0   BANK1   BANK3   BANK2
  6690 ;;      Params:         2       0       0       0       0
  6691 ;;      Locals:         2       0       0       0       0
  6692 ;;      Temps:          3       0       0       0       0
  6693 ;;      Totals:         7       0       0       0       0
  6694 ;;Total ram usage:        7 bytes
  6695 ;; Hardware stack levels used:    1
  6696 ;; Hardware stack levels required when called:    1
  6697 ;; This function calls:
  6698 ;;		_LCD_CHAR
  6699 ;; This function is called by:
  6700 ;;		_main
  6701 ;; This function uses a non-reentrant model
  6702 ;;
  6703                           psect	text24,local,class=CODE,delta=2,merge=1,group=0
  6704                           	file	"LCD.c"
  6705                           	line	98
  6706                           global __ptext24
  6707                           __ptext24:	;psect for function _LCD_STRING
  6708  0149                     psect	text24
  6709                           	file	"LCD.c"
  6710                           	line	98
  6711                           	global	__size_of_LCD_STRING
  6712                           	__size_of_LCD_STRING	equ	__end_of_LCD_STRING-_LCD_STRING
  6713  0044                     	
  6714                           _LCD_STRING:	
  6715  0149                     ;incstack = 0
  6716                           	opt	stack 6
  6717                           ; Regs used in _LCD_STRING: [wreg-fsr0h+status,2+status,0+btemp+1+pclath+cstack]
  6718                           	line	101
  6719                           	
  6720                           l2191:	
  6721  0149                     ;LCD.c: 98: void LCD_STRING(char *a);LCD.c: 99: {;LCD.c: 100:     int n;;LCD.c: 101:    
                                  for(n = 0; a[n] != '\0'; n++){
  6722                           	clrf	(LCD_STRING@n)
  6723  0149  01F7               	clrf	(LCD_STRING@n+1)
  6724  014A  01F8               	goto	l2197
  6725  014B  296F               	
  6726                           l242:	
  6727  014C                     	line	102
  6728                           	
  6729                           l2193:	
  6730  014C                     ;LCD.c: 102:         LCD_CHAR(a[n]);
  6731                           	movf	(LCD_STRING@n),w
  6732  014C  0877               	addwf	(LCD_STRING@a),w
  6733  014D  0772               	movwf	(??_LCD_STRING+1)+0
  6734  014E  00F5               	movf	(LCD_STRING@a+1),w
  6735  014F  0873               	movwf	(??_LCD_STRING+0)+0
  6736  0150  00F4               	skipnc
  6737  0151  1803               	incf	(??_LCD_STRING+0)+0,f
  6738  0152  0AF4               	btfss	(LCD_STRING@n),7
  6739  0153  1FF7               	goto	u1420
  6740  0154  2956               	decf	(??_LCD_STRING+0)+0,f
  6741  0155  03F4               u1420:
  6742  0156                     	movf	(??_LCD_STRING+0)+0,w
  6743  0156  0874               	movwf	0+((??_LCD_STRING+1)+0)+1
  6744  0157  00F6               	movf	1+(??_LCD_STRING+1)+0,w
  6745  0158  0876               	bcf	status, 5	;RP0=0, select bank0
  6746  0159  1283               	bcf	status, 6	;RP1=0, select bank0
  6747  015A  1303               	movwf	btemp+1
  6748  015B  00FF               	movf	0+(??_LCD_STRING+1)+0,w
  6749  015C  0875               	movwf	fsr0
  6750  015D  0084               	fcall	stringtab
  6751  015E  120A  118A  2003  120A  118A  	fcall	_LCD_CHAR
  6752  0163  120A  158A  25E2  120A  118A  	line	103
  6753                           	
  6754                           l2195:	
  6755  0168                     ;LCD.c: 103:     }
  6756                           	movlw	01h
  6757  0168  3001               	addwf	(LCD_STRING@n),f
  6758  0169  07F7               	skipnc
  6759  016A  1803               	incf	(LCD_STRING@n+1),f
  6760  016B  0AF8               	movlw	0
  6761  016C  3000               	addwf	(LCD_STRING@n+1),f
  6762  016D  07F8               	goto	l2197
  6763  016E  296F               	
  6764                           l241:	
  6765  016F                     	
  6766                           l2197:	
  6767  016F                     	movf	(LCD_STRING@n),w
  6768  016F  0877               	addwf	(LCD_STRING@a),w
  6769  0170  0772               	movwf	(??_LCD_STRING+1)+0
  6770  0171  00F5               	movf	(LCD_STRING@a+1),w
  6771  0172  0873               	movwf	(??_LCD_STRING+0)+0
  6772  0173  00F4               	skipnc
  6773  0174  1803               	incf	(??_LCD_STRING+0)+0,f
  6774  0175  0AF4               	btfss	(LCD_STRING@n),7
  6775  0176  1FF7               	goto	u1430
  6776  0177  2979               	decf	(??_LCD_STRING+0)+0,f
  6777  0178  03F4               u1430:
  6778  0179                     	movf	(??_LCD_STRING+0)+0,w
  6779  0179  0874               	movwf	0+((??_LCD_STRING+1)+0)+1
  6780  017A  00F6               	movf	1+(??_LCD_STRING+1)+0,w
  6781  017B  0876               	bcf	status, 5	;RP0=0, select bank0
  6782  017C  1283               	bcf	status, 6	;RP1=0, select bank0
  6783  017D  1303               	movwf	btemp+1
  6784  017E  00FF               	movf	0+(??_LCD_STRING+1)+0,w
  6785  017F  0875               	movwf	fsr0
  6786  0180  0084               	fcall	stringtab
  6787  0181  120A  118A  2003  120A  118A  	xorlw	0
  6788  0186  3A00               	skipz
  6789  0187  1D03               	goto	u1441
  6790  0188  298A               	goto	u1440
  6791  0189  298B               u1441:
  6792  018A                     	goto	l2193
  6793  018A  294C               u1440:
  6794  018B                     	goto	l244
  6795  018B  298C               	
  6796                           l243:	
  6797  018C                     	line	104
  6798                           	
  6799                           l244:	
  6800  018C                     	return
  6801  018C  0008               	opt stack 0
  6802                           GLOBAL	__end_of_LCD_STRING
  6803                           	__end_of_LCD_STRING:
  6804  018D                     	signat	_LCD_STRING,4217
  6805                           	global	_LCD_CHAR
  6806                           
  6807 ;; *************** function _LCD_CHAR *****************
  6808 ;; Defined at:
  6809 ;;		line 88 in file "LCD.c"
  6810 ;; Parameters:    Size  Location     Type
  6811 ;;  a               1    wreg     unsigned char 
  6812 ;; Auto vars:     Size  Location     Type
  6813 ;;  a               1    1[COMMON] unsigned char 
  6814 ;; Return value:  Size  Location     Type
  6815 ;;                  1    wreg      void 
  6816 ;; Registers used:
  6817 ;;		wreg
  6818 ;; Tracked objects:
  6819 ;;		On entry : 0/0
  6820 ;;		On exit  : 0/0
  6821 ;;		Unchanged: 0/0
  6822 ;; Data sizes:     COMMON   BANK0   BANK1   BANK3   BANK2
  6823 ;;      Params:         0       0       0       0       0
  6824 ;;      Locals:         1       0       0       0       0
  6825 ;;      Temps:          1       0       0       0       0
  6826 ;;      Totals:         2       0       0       0       0
  6827 ;;Total ram usage:        2 bytes
  6828 ;; Hardware stack levels used:    1
  6829 ;; This function calls:
  6830 ;;		Nothing
  6831 ;; This function is called by:
  6832 ;;		_LCD_STRING
  6833 ;; This function uses a non-reentrant model
  6834 ;;
  6835                           psect	text25,local,class=CODE,delta=2,merge=1,group=0
  6836                           	line	88
  6837                           global __ptext25
  6838                           __ptext25:	;psect for function _LCD_CHAR
  6839  0DE2                     psect	text25
  6840                           	file	"LCD.c"
  6841                           	line	88
  6842                           	global	__size_of_LCD_CHAR
  6843                           	__size_of_LCD_CHAR	equ	__end_of_LCD_CHAR-_LCD_CHAR
  6844  000F                     	
  6845                           _LCD_CHAR:	
  6846  0DE2                     ;incstack = 0
  6847                           	opt	stack 6
  6848                           ; Regs used in _LCD_CHAR: [wreg]
  6849                           ;LCD_CHAR@a stored from wreg
  6850                           	movwf	(LCD_CHAR@a)
  6851  0DE2  00F1               	line	90
  6852                           	
  6853                           l2037:	
  6854  0DE3                     ;LCD.c: 88: void LCD_CHAR(char a);LCD.c: 89: {;LCD.c: 90:     PORTDbits.RD5 = 1;
  6855                           	bcf	status, 5	;RP0=0, select bank0
  6856  0DE3  1283               	bcf	status, 6	;RP1=0, select bank0
  6857  0DE4  1303               	bsf	(8),5	;volatile
  6858  0DE5  1688               	line	92
  6859                           	
  6860                           l2039:	
  6861  0DE6                     ;LCD.c: 92:     PORTB = a;
  6862                           	movf	(LCD_CHAR@a),w
  6863  0DE6  0871               	movwf	(6)	;volatile
  6864  0DE7  0086               	line	93
  6865                           	
  6866                           l2041:	
  6867  0DE8                     ;LCD.c: 93:     PORTDbits.RD7 = 1;
  6868                           	bsf	(8),7	;volatile
  6869  0DE8  1788               	line	94
  6870                           ;LCD.c: 94:     _delay((unsigned long)((40)*(4000000/4000000.0)));
  6871                           	opt asmopt_push
  6872                           opt asmopt_off
  6873                           	movlw	13
  6874  0DE9  300D               movwf	((??_LCD_CHAR+0)+0),f
  6875  0DEA  00F0               	u1937:
  6876  0DEB                     decfsz	(??_LCD_CHAR+0)+0,f
  6877  0DEB  0BF0               	goto	u1937
  6878  0DEC  2DEB               opt asmopt_pop
  6879                           
  6880                           	line	95
  6881                           	
  6882                           l2043:	
  6883  0DED                     ;LCD.c: 95:     PORTDbits.RD7 = 0;
  6884                           	bcf	status, 5	;RP0=0, select bank0
  6885  0DED  1283               	bcf	status, 6	;RP1=0, select bank0
  6886  0DEE  1303               	bcf	(8),7	;volatile
  6887  0DEF  1388               	line	96
  6888                           	
  6889                           l238:	
  6890  0DF0                     	return
  6891  0DF0  0008               	opt stack 0
  6892                           GLOBAL	__end_of_LCD_CHAR
  6893                           	__end_of_LCD_CHAR:
  6894  0DF1                     	signat	_LCD_CHAR,4217
  6895                           	global	_LCD_CURSOR
  6896                           
  6897 ;; *************** function _LCD_CURSOR *****************
  6898 ;; Defined at:
  6899 ;;		line 71 in file "LCD.c"
  6900 ;; Parameters:    Size  Location     Type
  6901 ;;  a               2    4[COMMON] int 
  6902 ;;  b               2    6[COMMON] int 
  6903 ;; Auto vars:     Size  Location     Type
  6904 ;;  d               2    8[COMMON] int 
  6905 ;; Return value:  Size  Location     Type
  6906 ;;                  1    wreg      void 
  6907 ;; Registers used:
  6908 ;;		wreg, status,2, status,0, pclath, cstack
  6909 ;; Tracked objects:
  6910 ;;		On entry : 0/0
  6911 ;;		On exit  : 0/0
  6912 ;;		Unchanged: 0/0
  6913 ;; Data sizes:     COMMON   BANK0   BANK1   BANK3   BANK2
  6914 ;;      Params:         4       0       0       0       0
  6915 ;;      Locals:         2       0       0       0       0
  6916 ;;      Temps:          0       0       0       0       0
  6917 ;;      Totals:         6       0       0       0       0
  6918 ;;Total ram usage:        6 bytes
  6919 ;; Hardware stack levels used:    1
  6920 ;; Hardware stack levels required when called:    1
  6921 ;; This function calls:
  6922 ;;		_LCD_DATO
  6923 ;; This function is called by:
  6924 ;;		_main
  6925 ;; This function uses a non-reentrant model
  6926 ;;
  6927                           psect	text26,local,class=CODE,delta=2,merge=1,group=0
  6928                           	line	71
  6929                           global __ptext26
  6930                           __ptext26:	;psect for function _LCD_CURSOR
  6931  0F99                     psect	text26
  6932                           	file	"LCD.c"
  6933                           	line	71
  6934                           	global	__size_of_LCD_CURSOR
  6935                           	__size_of_LCD_CURSOR	equ	__end_of_LCD_CURSOR-_LCD_CURSOR
  6936  0033                     	
  6937                           _LCD_CURSOR:	
  6938  0F99                     ;incstack = 0
  6939                           	opt	stack 6
  6940                           ; Regs used in _LCD_CURSOR: [wreg+status,2+status,0+pclath+cstack]
  6941                           	line	74
  6942                           	
  6943                           l2179:	
  6944  0F99                     ;LCD.c: 71: void LCD_CURSOR(int a, int b);LCD.c: 72: {;LCD.c: 73:     int d;;LCD.c: 74: 
                                  if(a == 1)
  6945                           		decf	((LCD_CURSOR@a)),w
  6946  0F99  0374               iorwf	((LCD_CURSOR@a+1)),w
  6947  0F9A  0475               	btfss	status,2
  6948  0F9B  1D03               	goto	u1401
  6949  0F9C  2F9E               	goto	u1400
  6950  0F9D  2F9F               u1401:
  6951  0F9E                     	goto	l2185
  6952  0F9E  2FB1               u1400:
  6953  0F9F                     	line	76
  6954                           	
  6955                           l2181:	
  6956  0F9F                     ;LCD.c: 75:  {;LCD.c: 76:         d = 0x80 + b - 1;
  6957                           	movf	(LCD_CURSOR@b),w
  6958  0F9F  0876               	addlw	low(07Fh)
  6959  0FA0  3E7F               	movwf	(LCD_CURSOR@d)
  6960  0FA1  00F8               	movf	(LCD_CURSOR@b+1),w
  6961  0FA2  0877               	skipnc
  6962  0FA3  1803               	addlw	1
  6963  0FA4  3E01               	addlw	high(07Fh)
  6964  0FA5  3E00               	movwf	1+(LCD_CURSOR@d)
  6965  0FA6  00F9               	line	77
  6966                           	
  6967                           l2183:	
  6968  0FA7                     ;LCD.c: 77:   LCD_DATO(d);
  6969                           	movf	(LCD_CURSOR@d+1),w
  6970  0FA7  0879               	movwf	(LCD_DATO@var+1)
  6971  0FA8  00F1               	movf	(LCD_CURSOR@d),w
  6972  0FA9  0878               	movwf	(LCD_DATO@var)
  6973  0FAA  00F0               	fcall	_LCD_DATO
  6974  0FAB  120A  158A  2695  120A  158A  	line	78
  6975                           ;LCD.c: 78:  }
  6976                           	goto	l235
  6977  0FB0  2FCB               	line	79
  6978                           ;LCD.c: 79:  else if(a == 2)
  6979                           	
  6980                           l232:	
  6981  0FB1                     	
  6982                           l2185:	
  6983  0FB1                     		movlw	2
  6984  0FB1  3002               	xorwf	((LCD_CURSOR@a)),w
  6985  0FB2  0674               iorwf	((LCD_CURSOR@a+1)),w
  6986  0FB3  0475               	btfss	status,2
  6987  0FB4  1D03               	goto	u1411
  6988  0FB5  2FB7               	goto	u1410
  6989  0FB6  2FB8               u1411:
  6990  0FB7                     	goto	l235
  6991  0FB7  2FCB               u1410:
  6992  0FB8                     	line	81
  6993                           	
  6994                           l2187:	
  6995  0FB8                     ;LCD.c: 80:  {;LCD.c: 81:   d = 0xC0 + b - 1;
  6996                           	movf	(LCD_CURSOR@b),w
  6997  0FB8  0876               	addlw	low(0BFh)
  6998  0FB9  3EBF               	movwf	(LCD_CURSOR@d)
  6999  0FBA  00F8               	movf	(LCD_CURSOR@b+1),w
  7000  0FBB  0877               	skipnc
  7001  0FBC  1803               	addlw	1
  7002  0FBD  3E01               	addlw	high(0BFh)
  7003  0FBE  3E00               	movwf	1+(LCD_CURSOR@d)
  7004  0FBF  00F9               	line	82
  7005                           	
  7006                           l2189:	
  7007  0FC0                     ;LCD.c: 82:   LCD_DATO(d);
  7008                           	movf	(LCD_CURSOR@d+1),w
  7009  0FC0  0879               	movwf	(LCD_DATO@var+1)
  7010  0FC1  00F1               	movf	(LCD_CURSOR@d),w
  7011  0FC2  0878               	movwf	(LCD_DATO@var)
  7012  0FC3  00F0               	fcall	_LCD_DATO
  7013  0FC4  120A  158A  2695  120A  158A  	goto	l235
  7014  0FC9  2FCB               	line	83
  7015                           ;LCD.c: 83:  }
  7016                           	
  7017                           l234:	
  7018  0FCA                     	goto	l235
  7019  0FCA  2FCB               	
  7020                           l233:	
  7021  0FCB                     	line	84
  7022                           	
  7023                           l235:	
  7024  0FCB                     	return
  7025  0FCB  0008               	opt stack 0
  7026                           GLOBAL	__end_of_LCD_CURSOR
  7027                           	__end_of_LCD_CURSOR:
  7028  0FCC                     	signat	_LCD_CURSOR,8313
  7029                           	global	_LCD_DATO
  7030                           
  7031 ;; *************** function _LCD_DATO *****************
  7032 ;; Defined at:
  7033 ;;		line 61 in file "LCD.c"
  7034 ;; Parameters:    Size  Location     Type
  7035 ;;  var             2    0[COMMON] int 
  7036 ;; Auto vars:     Size  Location     Type
  7037 ;;		None
  7038 ;; Return value:  Size  Location     Type
  7039 ;;                  1    wreg      void 
  7040 ;; Registers used:
  7041 ;;		wreg
  7042 ;; Tracked objects:
  7043 ;;		On entry : 0/0
  7044 ;;		On exit  : 0/0
  7045 ;;		Unchanged: 0/0
  7046 ;; Data sizes:     COMMON   BANK0   BANK1   BANK3   BANK2
  7047 ;;      Params:         2       0       0       0       0
  7048 ;;      Locals:         0       0       0       0       0
  7049 ;;      Temps:          2       0       0       0       0
  7050 ;;      Totals:         4       0       0       0       0
  7051 ;;Total ram usage:        4 bytes
  7052 ;; Hardware stack levels used:    1
  7053 ;; This function calls:
  7054 ;;		Nothing
  7055 ;; This function is called by:
  7056 ;;		_LCD_CURSOR
  7057 ;;		_main
  7058 ;; This function uses a non-reentrant model
  7059 ;;
  7060                           psect	text27,local,class=CODE,delta=2,merge=1,group=0
  7061                           	line	61
  7062                           global __ptext27
  7063                           __ptext27:	;psect for function _LCD_DATO
  7064  0E95                     psect	text27
  7065                           	file	"LCD.c"
  7066                           	line	61
  7067                           	global	__size_of_LCD_DATO
  7068                           	__size_of_LCD_DATO	equ	__end_of_LCD_DATO-_LCD_DATO
  7069  0024                     	
  7070                           _LCD_DATO:	
  7071  0E95                     ;incstack = 0
  7072                           	opt	stack 7
  7073                           ; Regs used in _LCD_DATO: [wreg]
  7074                           	line	62
  7075                           	
  7076                           l2029:	
  7077  0E95                     ;LCD.c: 62:     PORTDbits.RD5 = 0;
  7078                           	bcf	status, 5	;RP0=0, select bank0
  7079  0E95  1283               	bcf	status, 6	;RP1=0, select bank0
  7080  0E96  1303               	bcf	(8),5	;volatile
  7081  0E97  1288               	line	63
  7082                           	
  7083                           l2031:	
  7084  0E98                     ;LCD.c: 63:     _delay((unsigned long)((5)*(4000000/4000.0)));
  7085                           	opt asmopt_push
  7086                           opt asmopt_off
  7087                           movlw	7
  7088  0E98  3007               movwf	((??_LCD_DATO+0)+0+1),f
  7089  0E99  00F3               	movlw	125
  7090  0E9A  307D               movwf	((??_LCD_DATO+0)+0),f
  7091  0E9B  00F2               	u1947:
  7092  0E9C                     decfsz	((??_LCD_DATO+0)+0),f
  7093  0E9C  0BF2               	goto	u1947
  7094  0E9D  2E9C               	decfsz	((??_LCD_DATO+0)+0+1),f
  7095  0E9E  0BF3               	goto	u1947
  7096  0E9F  2E9C               opt asmopt_pop
  7097                           
  7098                           	line	64
  7099                           	
  7100                           l2033:	
  7101  0EA0                     ;LCD.c: 64:     PORTDbits.RD7 = 1;
  7102                           	bcf	status, 5	;RP0=0, select bank0
  7103  0EA0  1283               	bcf	status, 6	;RP1=0, select bank0
  7104  0EA1  1303               	bsf	(8),7	;volatile
  7105  0EA2  1788               	line	65
  7106                           ;LCD.c: 65:     PORTB = var;
  7107                           	movf	(LCD_DATO@var),w
  7108  0EA3  0870               	movwf	(6)	;volatile
  7109  0EA4  0086               	line	66
  7110                           ;LCD.c: 66:     _delay((unsigned long)((5)*(4000000/4000.0)));
  7111                           	opt asmopt_push
  7112                           opt asmopt_off
  7113                           movlw	7
  7114  0EA5  3007               movwf	((??_LCD_DATO+0)+0+1),f
  7115  0EA6  00F3               	movlw	125
  7116  0EA7  307D               movwf	((??_LCD_DATO+0)+0),f
  7117  0EA8  00F2               	u1957:
  7118  0EA9                     decfsz	((??_LCD_DATO+0)+0),f
  7119  0EA9  0BF2               	goto	u1957
  7120  0EAA  2EA9               	decfsz	((??_LCD_DATO+0)+0+1),f
  7121  0EAB  0BF3               	goto	u1957
  7122  0EAC  2EA9               opt asmopt_pop
  7123                           
  7124                           	line	67
  7125                           	
  7126                           l2035:	
  7127  0EAD                     ;LCD.c: 67:     PORTDbits.RD7 = 0;
  7128                           	bcf	status, 5	;RP0=0, select bank0
  7129  0EAD  1283               	bcf	status, 6	;RP1=0, select bank0
  7130  0EAE  1303               	bcf	(8),7	;volatile
  7131  0EAF  1388               	line	68
  7132                           ;LCD.c: 68:     _delay((unsigned long)((5)*(4000000/4000.0)));
  7133                           	opt asmopt_push
  7134                           opt asmopt_off
  7135                           movlw	7
  7136  0EB0  3007               movwf	((??_LCD_DATO+0)+0+1),f
  7137  0EB1  00F3               	movlw	125
  7138  0EB2  307D               movwf	((??_LCD_DATO+0)+0),f
  7139  0EB3  00F2               	u1967:
  7140  0EB4                     decfsz	((??_LCD_DATO+0)+0),f
  7141  0EB4  0BF2               	goto	u1967
  7142  0EB5  2EB4               	decfsz	((??_LCD_DATO+0)+0+1),f
  7143  0EB6  0BF3               	goto	u1967
  7144  0EB7  2EB4               opt asmopt_pop
  7145                           
  7146                           	line	69
  7147                           	
  7148                           l229:	
  7149  0EB8                     	return
  7150  0EB8  0008               	opt stack 0
  7151                           GLOBAL	__end_of_LCD_DATO
  7152                           	__end_of_LCD_DATO:
  7153  0EB9                     	signat	_LCD_DATO,4217
  7154                           	global	_I2C_Master_Init
  7155                           
  7156 ;; *************** function _I2C_Master_Init *****************
  7157 ;; Defined at:
  7158 ;;		line 21 in file "I2C.c"
  7159 ;; Parameters:    Size  Location     Type
  7160 ;;  c               4    0[BANK0 ] const unsigned long 
  7161 ;; Auto vars:     Size  Location     Type
  7162 ;;		None
  7163 ;; Return value:  Size  Location     Type
  7164 ;;                  1    wreg      void 
  7165 ;; Registers used:
  7166 ;;		wreg, status,2, status,0, pclath, cstack
  7167 ;; Tracked objects:
  7168 ;;		On entry : 0/0
  7169 ;;		On exit  : 0/0
  7170 ;;		Unchanged: 0/0
  7171 ;; Data sizes:     COMMON   BANK0   BANK1   BANK3   BANK2
  7172 ;;      Params:         0       4       0       0       0
  7173 ;;      Locals:         0       0       0       0       0
  7174 ;;      Temps:          0       4       0       0       0
  7175 ;;      Totals:         0       8       0       0       0
  7176 ;;Total ram usage:        8 bytes
  7177 ;; Hardware stack levels used:    1
  7178 ;; Hardware stack levels required when called:    1
  7179 ;; This function calls:
  7180 ;;		___lldiv
  7181 ;; This function is called by:
  7182 ;;		_main
  7183 ;; This function uses a non-reentrant model
  7184 ;;
  7185                           psect	text28,local,class=CODE,delta=2,merge=1,group=0
  7186                           	file	"I2C.c"
  7187                           	line	21
  7188                           global __ptext28
  7189                           __ptext28:	;psect for function _I2C_Master_Init
  7190  0094                     psect	text28
  7191                           	file	"I2C.c"
  7192                           	line	21
  7193                           	global	__size_of_I2C_Master_Init
  7194                           	__size_of_I2C_Master_Init	equ	__end_of_I2C_Master_Init-_I2C_Master_Init
  7195  0038                     	
  7196                           _I2C_Master_Init:	
  7197  0094                     ;incstack = 0
  7198                           	opt	stack 6
  7199                           ; Regs used in _I2C_Master_Init: [wreg+status,2+status,0+pclath+cstack]
  7200                           	line	23
  7201                           	
  7202                           l2157:	
  7203  0094                     ;I2C.c: 21: void I2C_Master_Init(const unsigned long c);I2C.c: 22: {;I2C.c: 23:     SSPC
                                 ON = 0b00101000;
  7204                           	movlw	low(028h)
  7205  0094  3028               	bcf	status, 5	;RP0=0, select bank0
  7206  0095  1283               	bcf	status, 6	;RP1=0, select bank0
  7207  0096  1303               	movwf	(20)	;volatile
  7208  0097  0094               	line	24
  7209                           	
  7210                           l2159:	
  7211  0098                     ;I2C.c: 24:     SSPCON2 = 0;
  7212                           	bsf	status, 5	;RP0=1, select bank1
  7213  0098  1683               	bcf	status, 6	;RP1=0, select bank1
  7214  0099  1303               	clrf	(145)^080h	;volatile
  7215  009A  0191               	line	25
  7216                           	
  7217                           l2161:	
  7218  009B                     ;I2C.c: 25:     SSPADD = (4000000/(4*c))-1;
  7219                           	bcf	status, 5	;RP0=0, select bank0
  7220  009B  1283               	bcf	status, 6	;RP1=0, select bank0
  7221  009C  1303               	movf	(I2C_Master_Init@c),w
  7222  009D  0849               	movwf	(??_I2C_Master_Init+0)+0
  7223  009E  00CD               	movf	(I2C_Master_Init@c+1),w
  7224  009F  084A               	movwf	((??_I2C_Master_Init+0)+0+1)
  7225  00A0  00CE               	movf	(I2C_Master_Init@c+2),w
  7226  00A1  084B               	movwf	((??_I2C_Master_Init+0)+0+2)
  7227  00A2  00CF               	movf	(I2C_Master_Init@c+3),w
  7228  00A3  084C               	movwf	((??_I2C_Master_Init+0)+0+3)
  7229  00A4  00D0               	movlw	02h
  7230  00A5  3002               u1385:
  7231  00A6                     	clrc
  7232  00A6  1003               	rlf	(??_I2C_Master_Init+0)+0,f
  7233  00A7  0DCD               	rlf	(??_I2C_Master_Init+0)+1,f
  7234  00A8  0DCE               	rlf	(??_I2C_Master_Init+0)+2,f
  7235  00A9  0DCF               	rlf	(??_I2C_Master_Init+0)+3,f
  7236  00AA  0DD0               u1380:
  7237  00AB                     	addlw	-1
  7238  00AB  3EFF               	skipz
  7239  00AC  1D03               	goto	u1385
  7240  00AD  28A6               	movf	3+(??_I2C_Master_Init+0)+0,w
  7241  00AE  0850               	movwf	(___lldiv@divisor+3)
  7242  00AF  00F3               	movf	2+(??_I2C_Master_Init+0)+0,w
  7243  00B0  084F               	movwf	(___lldiv@divisor+2)
  7244  00B1  00F2               	movf	1+(??_I2C_Master_Init+0)+0,w
  7245  00B2  084E               	movwf	(___lldiv@divisor+1)
  7246  00B3  00F1               	movf	0+(??_I2C_Master_Init+0)+0,w
  7247  00B4  084D               	movwf	(___lldiv@divisor)
  7248  00B5  00F0               
  7249                           	movlw	0
  7250  00B6  3000               	movwf	(___lldiv@dividend+3)
  7251  00B7  00F7               	movlw	03Dh
  7252  00B8  303D               	movwf	(___lldiv@dividend+2)
  7253  00B9  00F6               	movlw	09h
  7254  00BA  3009               	movwf	(___lldiv@dividend+1)
  7255  00BB  00F5               	movlw	0
  7256  00BC  3000               	movwf	(___lldiv@dividend)
  7257  00BD  00F4               
  7258                           	fcall	___lldiv
  7259  00BE  120A  118A  21D8  120A  118A  	movf	(0+(?___lldiv)),w
  7260  00C3  0870               	addlw	0FFh
  7261  00C4  3EFF               	bsf	status, 5	;RP0=1, select bank1
  7262  00C5  1683               	bcf	status, 6	;RP1=0, select bank1
  7263  00C6  1303               	movwf	(147)^080h	;volatile
  7264  00C7  0093               	line	26
  7265                           	
  7266                           l2163:	
  7267  00C8                     ;I2C.c: 26:     SSPSTAT = 0;
  7268                           	clrf	(148)^080h	;volatile
  7269  00C8  0194               	line	27
  7270                           	
  7271                           l2165:	
  7272  00C9                     ;I2C.c: 27:     TRISCbits.TRISC3 = 1;
  7273                           	bsf	(135)^080h,3	;volatile
  7274  00C9  1587               	line	28
  7275                           	
  7276                           l2167:	
  7277  00CA                     ;I2C.c: 28:     TRISCbits.TRISC4 = 1;
  7278                           	bsf	(135)^080h,4	;volatile
  7279  00CA  1607               	line	29
  7280                           	
  7281                           l49:	
  7282  00CB                     	return
  7283  00CB  0008               	opt stack 0
  7284                           GLOBAL	__end_of_I2C_Master_Init
  7285                           	__end_of_I2C_Master_Init:
  7286  00CC                     	signat	_I2C_Master_Init,4217
  7287                           	global	___lldiv
  7288                           
  7289 ;; *************** function ___lldiv *****************
  7290 ;; Defined at:
  7291 ;;		line 5 in file "C:\Program Files (x86)\Microchip\xc8\v2.00\pic\sources\c90\common\__lldiv.c"
  7292 ;; Parameters:    Size  Location     Type
  7293 ;;  divisor         4    0[COMMON] unsigned long 
  7294 ;;  dividend        4    4[COMMON] unsigned long 
  7295 ;; Auto vars:     Size  Location     Type
  7296 ;;  quotient        4    9[COMMON] unsigned long 
  7297 ;;  counter         1   13[COMMON] unsigned char 
  7298 ;; Return value:  Size  Location     Type
  7299 ;;                  4    0[COMMON] unsigned long 
  7300 ;; Registers used:
  7301 ;;		wreg, status,2, status,0
  7302 ;; Tracked objects:
  7303 ;;		On entry : 0/0
  7304 ;;		On exit  : 0/0
  7305 ;;		Unchanged: 0/0
  7306 ;; Data sizes:     COMMON   BANK0   BANK1   BANK3   BANK2
  7307 ;;      Params:         8       0       0       0       0
  7308 ;;      Locals:         5       0       0       0       0
  7309 ;;      Temps:          1       0       0       0       0
  7310 ;;      Totals:        14       0       0       0       0
  7311 ;;Total ram usage:       14 bytes
  7312 ;; Hardware stack levels used:    1
  7313 ;; This function calls:
  7314 ;;		Nothing
  7315 ;; This function is called by:
  7316 ;;		_I2C_Master_Init
  7317 ;; This function uses a non-reentrant model
  7318 ;;
  7319                           psect	text29,local,class=CODE,delta=2,merge=1,group=1
  7320                           	file	"C:\Program Files (x86)\Microchip\xc8\v2.00\pic\sources\c90\common\__lldiv.c"
  7321                           	line	5
  7322                           global __ptext29
  7323                           __ptext29:	;psect for function ___lldiv
  7324  01D8                     psect	text29
  7325                           	file	"C:\Program Files (x86)\Microchip\xc8\v2.00\pic\sources\c90\common\__lldiv.c"
  7326                           	line	5
  7327                           	global	__size_of___lldiv
  7328                           	__size_of___lldiv	equ	__end_of___lldiv-___lldiv
  7329  006D                     	
  7330                           ___lldiv:	
  7331  01D8                     ;incstack = 0
  7332                           	opt	stack 6
  7333                           ; Regs used in ___lldiv: [wreg+status,2+status,0]
  7334                           	line	13
  7335                           	
  7336                           l2085:	
  7337  01D8                     	movlw	high highword(0)
  7338  01D8  3000               	movwf	(___lldiv@quotient+3)
  7339  01D9  00FC               	movlw	low highword(0)
  7340  01DA  3000               	movwf	(___lldiv@quotient+2)
  7341  01DB  00FB               	movlw	high(0)
  7342  01DC  3000               	movwf	(___lldiv@quotient+1)
  7343  01DD  00FA               	movlw	low(0)
  7344  01DE  3000               	movwf	(___lldiv@quotient)
  7345  01DF  00F9               
  7346                           	line	14
  7347                           	movf	(___lldiv@divisor+3),w
  7348  01E0  0873               	iorwf	(___lldiv@divisor+2),w
  7349  01E1  0472               	iorwf	(___lldiv@divisor+1),w
  7350  01E2  0471               	iorwf	(___lldiv@divisor),w
  7351  01E3  0470               	skipnz
  7352  01E4  1903               	goto	u1181
  7353  01E5  29E7               	goto	u1180
  7354  01E6  29E8               u1181:
  7355  01E7                     	goto	l2105
  7356  01E7  2A3B               u1180:
  7357  01E8                     	line	15
  7358                           	
  7359                           l2087:	
  7360  01E8                     	clrf	(___lldiv@counter)
  7361  01E8  01FD               	incf	(___lldiv@counter),f
  7362  01E9  0AFD               	line	16
  7363                           	goto	l2091
  7364  01EA  29F9               	
  7365                           l607:	
  7366  01EB                     	line	17
  7367                           	
  7368                           l2089:	
  7369  01EB                     	movlw	01h
  7370  01EB  3001               	movwf	(??___lldiv+0)+0
  7371  01EC  00F8               u1195:
  7372  01ED                     	clrc
  7373  01ED  1003               	rlf	(___lldiv@divisor),f
  7374  01EE  0DF0               	rlf	(___lldiv@divisor+1),f
  7375  01EF  0DF1               	rlf	(___lldiv@divisor+2),f
  7376  01F0  0DF2               	rlf	(___lldiv@divisor+3),f
  7377  01F1  0DF3               	decfsz	(??___lldiv+0)+0
  7378  01F2  0BF8               	goto	u1195
  7379  01F3  29ED               	line	18
  7380                           	movlw	low(01h)
  7381  01F4  3001               	movwf	(??___lldiv+0)+0
  7382  01F5  00F8               	movf	(??___lldiv+0)+0,w
  7383  01F6  0878               	addwf	(___lldiv@counter),f
  7384  01F7  07FD               	goto	l2091
  7385  01F8  29F9               	line	19
  7386                           	
  7387                           l606:	
  7388  01F9                     	line	16
  7389                           	
  7390                           l2091:	
  7391  01F9                     	btfss	(___lldiv@divisor+3),(31)&7
  7392  01F9  1FF3               	goto	u1201
  7393  01FA  29FC               	goto	u1200
  7394  01FB  29FD               u1201:
  7395  01FC                     	goto	l2089
  7396  01FC  29EB               u1200:
  7397  01FD                     	goto	l2093
  7398  01FD  29FF               	
  7399                           l608:	
  7400  01FE                     	goto	l2093
  7401  01FE  29FF               	line	20
  7402                           	
  7403                           l609:	
  7404  01FF                     	line	21
  7405                           	
  7406                           l2093:	
  7407  01FF                     	movlw	01h
  7408  01FF  3001               	movwf	(??___lldiv+0)+0
  7409  0200  00F8               u1215:
  7410  0201                     	clrc
  7411  0201  1003               	rlf	(___lldiv@quotient),f
  7412  0202  0DF9               	rlf	(___lldiv@quotient+1),f
  7413  0203  0DFA               	rlf	(___lldiv@quotient+2),f
  7414  0204  0DFB               	rlf	(___lldiv@quotient+3),f
  7415  0205  0DFC               	decfsz	(??___lldiv+0)+0
  7416  0206  0BF8               	goto	u1215
  7417  0207  2A01               	line	22
  7418                           	
  7419                           l2095:	
  7420  0208                     	movf	(___lldiv@divisor+3),w
  7421  0208  0873               	subwf	(___lldiv@dividend+3),w
  7422  0209  0277               	skipz
  7423  020A  1D03               	goto	u1225
  7424  020B  2A16               	movf	(___lldiv@divisor+2),w
  7425  020C  0872               	subwf	(___lldiv@dividend+2),w
  7426  020D  0276               	skipz
  7427  020E  1D03               	goto	u1225
  7428  020F  2A16               	movf	(___lldiv@divisor+1),w
  7429  0210  0871               	subwf	(___lldiv@dividend+1),w
  7430  0211  0275               	skipz
  7431  0212  1D03               	goto	u1225
  7432  0213  2A16               	movf	(___lldiv@divisor),w
  7433  0214  0870               	subwf	(___lldiv@dividend),w
  7434  0215  0274               u1225:
  7435  0216                     	skipc
  7436  0216  1C03               	goto	u1221
  7437  0217  2A19               	goto	u1220
  7438  0218  2A1A               u1221:
  7439  0219                     	goto	l2101
  7440  0219  2A2A               u1220:
  7441  021A                     	line	23
  7442                           	
  7443                           l2097:	
  7444  021A                     	movf	(___lldiv@divisor),w
  7445  021A  0870               	subwf	(___lldiv@dividend),f
  7446  021B  02F4               	movf	(___lldiv@divisor+1),w
  7447  021C  0871               	skipc
  7448  021D  1C03               	incfsz	(___lldiv@divisor+1),w
  7449  021E  0F71               	subwf	(___lldiv@dividend+1),f
  7450  021F  02F5               	movf	(___lldiv@divisor+2),w
  7451  0220  0872               	skipc
  7452  0221  1C03               	incfsz	(___lldiv@divisor+2),w
  7453  0222  0F72               	subwf	(___lldiv@dividend+2),f
  7454  0223  02F6               	movf	(___lldiv@divisor+3),w
  7455  0224  0873               	skipc
  7456  0225  1C03               	incfsz	(___lldiv@divisor+3),w
  7457  0226  0F73               	subwf	(___lldiv@dividend+3),f
  7458  0227  02F7               	line	24
  7459                           	
  7460                           l2099:	
  7461  0228                     	bsf	(___lldiv@quotient)+(0/8),(0)&7
  7462  0228  1479               	goto	l2101
  7463  0229  2A2A               	line	25
  7464                           	
  7465                           l610:	
  7466  022A                     	line	26
  7467                           	
  7468                           l2101:	
  7469  022A                     	movlw	01h
  7470  022A  3001               u1235:
  7471  022B                     	clrc
  7472  022B  1003               	rrf	(___lldiv@divisor+3),f
  7473  022C  0CF3               	rrf	(___lldiv@divisor+2),f
  7474  022D  0CF2               	rrf	(___lldiv@divisor+1),f
  7475  022E  0CF1               	rrf	(___lldiv@divisor),f
  7476  022F  0CF0               	addlw	-1
  7477  0230  3EFF               	skipz
  7478  0231  1D03               	goto	u1235
  7479  0232  2A2B               
  7480                           	line	27
  7481                           	
  7482                           l2103:	
  7483  0233                     	movlw	01h
  7484  0233  3001               	subwf	(___lldiv@counter),f
  7485  0234  02FD               	btfss	status,2
  7486  0235  1D03               	goto	u1241
  7487  0236  2A38               	goto	u1240
  7488  0237  2A39               u1241:
  7489  0238                     	goto	l2093
  7490  0238  29FF               u1240:
  7491  0239                     	goto	l2105
  7492  0239  2A3B               	
  7493                           l611:	
  7494  023A                     	goto	l2105
  7495  023A  2A3B               	line	28
  7496                           	
  7497                           l605:	
  7498  023B                     	line	29
  7499                           	
  7500                           l2105:	
  7501  023B                     	movf	(___lldiv@quotient+3),w
  7502  023B  087C               	movwf	(?___lldiv+3)
  7503  023C  00F3               	movf	(___lldiv@quotient+2),w
  7504  023D  087B               	movwf	(?___lldiv+2)
  7505  023E  00F2               	movf	(___lldiv@quotient+1),w
  7506  023F  087A               	movwf	(?___lldiv+1)
  7507  0240  00F1               	movf	(___lldiv@quotient),w
  7508  0241  0879               	movwf	(?___lldiv)
  7509  0242  00F0               
  7510                           	goto	l612
  7511  0243  2A44               	
  7512                           l2107:	
  7513  0244                     	line	30
  7514                           	
  7515                           l612:	
  7516  0244                     	return
  7517  0244  0008               	opt stack 0
  7518                           GLOBAL	__end_of___lldiv
  7519                           	__end_of___lldiv:
  7520  0245                     	signat	___lldiv,8316
  7521                           	global	_BCD2UpperCh
  7522                           
  7523 ;; *************** function _BCD2UpperCh *****************
  7524 ;; Defined at:
  7525 ;;		line 51 in file "Pri-Master.c"
  7526 ;; Parameters:    Size  Location     Type
  7527 ;;  bcd             1    wreg     unsigned char 
  7528 ;; Auto vars:     Size  Location     Type
  7529 ;;  bcd             1    1[COMMON] unsigned char 
  7530 ;; Return value:  Size  Location     Type
  7531 ;;                  1    wreg      unsigned char 
  7532 ;; Registers used:
  7533 ;;		wreg, status,2, status,0
  7534 ;; Tracked objects:
  7535 ;;		On entry : 0/0
  7536 ;;		On exit  : 0/0
  7537 ;;		Unchanged: 0/0
  7538 ;; Data sizes:     COMMON   BANK0   BANK1   BANK3   BANK2
  7539 ;;      Params:         0       0       0       0       0
  7540 ;;      Locals:         1       0       0       0       0
  7541 ;;      Temps:          1       0       0       0       0
  7542 ;;      Totals:         2       0       0       0       0
  7543 ;;Total ram usage:        2 bytes
  7544 ;; Hardware stack levels used:    1
  7545 ;; This function calls:
  7546 ;;		Nothing
  7547 ;; This function is called by:
  7548 ;;		_main
  7549 ;; This function uses a non-reentrant model
  7550 ;;
  7551                           psect	text30,local,class=CODE,delta=2,merge=1,group=0
  7552                           	file	"Pri-Master.c"
  7553                           	line	51
  7554                           global __ptext30
  7555                           __ptext30:	;psect for function _BCD2UpperCh
  7556  0DD5                     psect	text30
  7557                           	file	"Pri-Master.c"
  7558                           	line	51
  7559                           	global	__size_of_BCD2UpperCh
  7560                           	__size_of_BCD2UpperCh	equ	__end_of_BCD2UpperCh-_BCD2UpperCh
  7561  000D                     	
  7562                           _BCD2UpperCh:	
  7563  0DD5                     ;incstack = 0
  7564                           	opt	stack 7
  7565                           ; Regs used in _BCD2UpperCh: [wreg+status,2+status,0]
  7566                           ;BCD2UpperCh@bcd stored from wreg
  7567                           	movwf	(BCD2UpperCh@bcd)
  7568  0DD5  00F1               	line	53
  7569                           	
  7570                           l2205:	
  7571  0DD6                     ;Pri-Master.c: 51:     ANSELH = 0;;Pri-Master.c: 52:     PORTB = 0;;Pri-Master.c: 53:   
                                   PORTA = 0;
  7572                           	movf	(BCD2UpperCh@bcd),w
  7573  0DD6  0871               	movwf	(??_BCD2UpperCh+0)+0
  7574  0DD7  00F0               	movlw	04h
  7575  0DD8  3004               u1455:
  7576  0DD9                     	clrc
  7577  0DD9  1003               	rrf	(??_BCD2UpperCh+0)+0,f
  7578  0DDA  0CF0               	addlw	-1
  7579  0DDB  3EFF               	skipz
  7580  0DDC  1D03               	goto	u1455
  7581  0DDD  2DD9               	movf	0+(??_BCD2UpperCh+0)+0,w
  7582  0DDE  0870               	addlw	030h
  7583  0DDF  3E30               	goto	l312
  7584  0DE0  2DE1               	
  7585                           l2207:	
  7586  0DE1                     	line	54
  7587                           	
  7588                           l312:	
  7589  0DE1                     	return
  7590  0DE1  0008               	opt stack 0
  7591                           GLOBAL	__end_of_BCD2UpperCh
  7592                           	__end_of_BCD2UpperCh:
  7593  0DE2                     	signat	_BCD2UpperCh,4217
  7594                           	global	_BCD2LowerCh
  7595                           
  7596 ;; *************** function _BCD2LowerCh *****************
  7597 ;; Defined at:
  7598 ;;		line 56 in file "Pri-Master.c"
  7599 ;; Parameters:    Size  Location     Type
  7600 ;;  bcd             1    wreg     unsigned char 
  7601 ;; Auto vars:     Size  Location     Type
  7602 ;;  bcd             1    0[COMMON] unsigned char 
  7603 ;; Return value:  Size  Location     Type
  7604 ;;                  1    wreg      unsigned char 
  7605 ;; Registers used:
  7606 ;;		wreg, status,2, status,0
  7607 ;; Tracked objects:
  7608 ;;		On entry : 0/0
  7609 ;;		On exit  : 0/0
  7610 ;;		Unchanged: 0/0
  7611 ;; Data sizes:     COMMON   BANK0   BANK1   BANK3   BANK2
  7612 ;;      Params:         0       0       0       0       0
  7613 ;;      Locals:         1       0       0       0       0
  7614 ;;      Temps:          0       0       0       0       0
  7615 ;;      Totals:         1       0       0       0       0
  7616 ;;Total ram usage:        1 bytes
  7617 ;; Hardware stack levels used:    1
  7618 ;; This function calls:
  7619 ;;		Nothing
  7620 ;; This function is called by:
  7621 ;;		_main
  7622 ;; This function uses a non-reentrant model
  7623 ;;
  7624                           psect	text31,local,class=CODE,delta=2,merge=1,group=0
  7625                           	line	56
  7626                           global __ptext31
  7627                           __ptext31:	;psect for function _BCD2LowerCh
  7628  0D96                     psect	text31
  7629                           	file	"Pri-Master.c"
  7630                           	line	56
  7631                           	global	__size_of_BCD2LowerCh
  7632                           	__size_of_BCD2LowerCh	equ	__end_of_BCD2LowerCh-_BCD2LowerCh
  7633  0006                     	
  7634                           _BCD2LowerCh:	
  7635  0D96                     ;incstack = 0
  7636                           	opt	stack 7
  7637                           ; Regs used in _BCD2LowerCh: [wreg+status,2+status,0]
  7638                           ;BCD2LowerCh@bcd stored from wreg
  7639                           	movwf	(BCD2LowerCh@bcd)
  7640  0D96  00F0               	line	58
  7641                           	
  7642                           l2209:	
  7643  0D97                     ;Pri-Master.c: 56:     I2C_Master_Init(100000);;Pri-Master.c: 57:     config();;Pri-Mast
                                 er.c: 58:     lcd_init();
  7644                           	movf	(BCD2LowerCh@bcd),w
  7645  0D97  0870               	andlw	0Fh
  7646  0D98  390F               	addlw	030h
  7647  0D99  3E30               	goto	l315
  7648  0D9A  2D9B               	
  7649                           l2211:	
  7650  0D9B                     	line	59
  7651                           	
  7652                           l315:	
  7653  0D9B                     	return
  7654  0D9B  0008               	opt stack 0
  7655                           GLOBAL	__end_of_BCD2LowerCh
  7656                           	__end_of_BCD2LowerCh:
  7657  0D9C                     	signat	_BCD2LowerCh,4217
  7658                           global	___latbits
  7659                           ___latbits	equ	2
  7660  0002                     	global	btemp
  7661                           	btemp set 07Eh
  7662  007E                     
  7663                           	DABS	1,126,2	;btemp
  7664                           	global	wtemp0
  7665                           	wtemp0 set btemp+0
  7666  007E                     	end


Data Sizes:
    Strings     53
    Constant    10
    Data        54
    BSS         57
    Persistent  0
    Stack       0

Auto Spaces:
    Space          Size  Autos    Used
    COMMON           14     14      14
    BANK0            80     23      76
    BANK1            80      0      58
    BANK3            96      0       0
    BANK2            96      0       0

Pointer List with Targets:

    atoi@s	PTR const unsigned char  size(1) Largest target is 1
		 -> valorf(BANK0[1]), 

    sprintf@f	PTR const unsigned char  size(1) Largest target is 25
		 -> STR_3(CODE[25]), 

    sprintf@sp	PTR unsigned char  size(1) Largest target is 16
		 -> valor(BANK1[16]), 

    sprintf@ap	PTR void [1] size(1) Largest target is 2
		 -> ?_sprintf(BANK0[2]), 

    LCD_STRING@a	PTR unsigned char  size(2) Largest target is 16
		 -> valor(BANK1[16]), time(BANK0[12]), STR_2(CODE[16]), STR_1(CODE[12]), 


Critical Paths under _main in COMMON

    _main->_atoi
    _sprintf->___lwmod
    ___lwmod->___lwdiv
    _read_ds1307->_I2C_Master_Read
    _lcd_init->_lcd_cmd
    _lcd_cmd->_lcd_ready
    _lcd_ready->_delay
    _lcd_lat->_delay
    _atoi->___wmul
    _LCD_STRING->_LCD_CHAR
    _LCD_CURSOR->_LCD_DATO
    _I2C_Master_Init->___lldiv

Critical Paths under _main in BANK0

    _main->_sprintf

Critical Paths under _main in BANK1

    None.

Critical Paths under _main in BANK3

    None.

Critical Paths under _main in BANK2

    None.

Call Graph Tables:

 ---------------------------------------------------------------------------------
 (Depth) Function   	        Calls       Base Space   Used Autos Params    Refs
 ---------------------------------------------------------------------------------
 (0) _main                                                 2     2      0   10370
                                             21 BANK0      2     2      0
                        _BCD2LowerCh
                        _BCD2UpperCh
                    _I2C_Master_Init
                    _I2C_Master_Read
                   _I2C_Master_Start
                    _I2C_Master_Stop
                   _I2C_Master_Write
                         _LCD_CURSOR
                           _LCD_DATO
                         _LCD_STRING
                               _atoi
                             _config
                              _delay
                           _lcd_init
                             _mandar
                        _read_ds1307
                             _servo0
                           _servo180
                            _sprintf
 ---------------------------------------------------------------------------------
 (1) _sprintf                                             29    18     11    1696
                                              0 BANK0     21    10     11
                             ___bmul
                            ___lwdiv
                            ___lwmod
                            _isdigit
 ---------------------------------------------------------------------------------
 (2) ___lwmod                                              6     2      4     311
                                              8 COMMON     6     2      4
                            ___lwdiv (ARG)
 ---------------------------------------------------------------------------------
 (2) ___lwdiv                                              8     4      4     314
                                              0 COMMON     8     4      4
 ---------------------------------------------------------------------------------
 (2) ___bmul                                               4     3      1     168
                                              0 COMMON     4     3      1
 ---------------------------------------------------------------------------------
 (1) _servo180                                             4     4      0      46
                                              0 COMMON     4     4      0
 ---------------------------------------------------------------------------------
 (1) _servo0                                               4     4      0      46
                                              0 COMMON     4     4      0
 ---------------------------------------------------------------------------------
 (1) _read_ds1307                                          4     2      2    2392
                                              6 COMMON     4     2      2
                    _I2C_Master_Read
           _I2C_Master_RepeatedStart
                   _I2C_Master_Start
                    _I2C_Master_Stop
                   _I2C_Master_Write
 ---------------------------------------------------------------------------------
 (2) _I2C_Master_Write                                     2     0      2    1466
                                              0 COMMON     2     0      2
                    _I2C_Master_Wait
 ---------------------------------------------------------------------------------
 (2) _I2C_Master_Stop                                      0     0      0       0
                    _I2C_Master_Wait
 ---------------------------------------------------------------------------------
 (2) _I2C_Master_Start                                     0     0      0       0
                    _I2C_Master_Wait
 ---------------------------------------------------------------------------------
 (2) _I2C_Master_RepeatedStart                             0     0      0       0
                    _I2C_Master_Wait
 ---------------------------------------------------------------------------------
 (2) _I2C_Master_Read                                      6     4      2     349
                                              0 COMMON     6     4      2
                    _I2C_Master_Wait
 ---------------------------------------------------------------------------------
 (3) _I2C_Master_Wait                                      0     0      0       0
 ---------------------------------------------------------------------------------
 (1) _mandar                                               2     0      2     478
                                              0 COMMON     2     0      2
 ---------------------------------------------------------------------------------
 (1) _lcd_init                                             0     0      0     814
                            _lcd_cmd
 ---------------------------------------------------------------------------------
 (2) _lcd_cmd                                              1     1      0     814
                                              7 COMMON     1     1      0
                            _lcd_lat
                          _lcd_ready
 ---------------------------------------------------------------------------------
 (3) _lcd_ready                                            1     1      0     396
                                              6 COMMON     1     1      0
                              _delay
 ---------------------------------------------------------------------------------
 (3) _lcd_lat                                              0     0      0     396
                              _delay
 ---------------------------------------------------------------------------------
 (4) _delay                                                6     4      2     396
                                              0 COMMON     6     4      2
 ---------------------------------------------------------------------------------
 (1) _config                                               0     0      0       0
 ---------------------------------------------------------------------------------
 (1) _atoi                                                 8     6      2     725
                                              6 COMMON     8     6      2
                             ___wmul
                            _isdigit
 ---------------------------------------------------------------------------------
 (2) _isdigit                                              2     2      0      68
                                              0 COMMON     2     2      0
 ---------------------------------------------------------------------------------
 (2) ___wmul                                               6     2      4     396
                                              0 COMMON     6     2      4
 ---------------------------------------------------------------------------------
 (1) _LCD_STRING                                           7     5      2     416
                                              2 COMMON     7     5      2
                           _LCD_CHAR
 ---------------------------------------------------------------------------------
 (2) _LCD_CHAR                                             2     2      0      22
                                              0 COMMON     2     2      0
 ---------------------------------------------------------------------------------
 (1) _LCD_CURSOR                                           6     2      4     764
                                              4 COMMON     6     2      4
                           _LCD_DATO
 ---------------------------------------------------------------------------------
 (1) _LCD_DATO                                             4     2      2     326
                                              0 COMMON     4     2      2
 ---------------------------------------------------------------------------------
 (1) _I2C_Master_Init                                      8     4      4     412
                                              0 BANK0      8     4      4
                            ___lldiv
 ---------------------------------------------------------------------------------
 (2) ___lldiv                                             14     6      8     314
                                              0 COMMON    14     6      8
 ---------------------------------------------------------------------------------
 (1) _BCD2UpperCh                                          2     2      0      22
                                              0 COMMON     2     2      0
 ---------------------------------------------------------------------------------
 (1) _BCD2LowerCh                                          1     1      0      22
                                              0 COMMON     1     1      0
 ---------------------------------------------------------------------------------
 Estimated maximum stack depth 4
 ---------------------------------------------------------------------------------

 Call Graph Graphs:

 _main (ROOT)
   _BCD2LowerCh
   _BCD2UpperCh
   _I2C_Master_Init
     ___lldiv
   _I2C_Master_Read
     _I2C_Master_Wait
   _I2C_Master_Start
     _I2C_Master_Wait
   _I2C_Master_Stop
     _I2C_Master_Wait
   _I2C_Master_Write
     _I2C_Master_Wait
   _LCD_CURSOR
     _LCD_DATO
   _LCD_DATO
   _LCD_STRING
     _LCD_CHAR
   _atoi
     ___wmul
     _isdigit
   _config
   _delay
   _lcd_init
     _lcd_cmd
       _lcd_lat
         _delay
       _lcd_ready
         _delay
   _mandar
   _read_ds1307
     _I2C_Master_Read
       _I2C_Master_Wait
     _I2C_Master_RepeatedStart
       _I2C_Master_Wait
     _I2C_Master_Start
       _I2C_Master_Wait
     _I2C_Master_Stop
       _I2C_Master_Wait
     _I2C_Master_Write
       _I2C_Master_Wait
   _servo0
   _servo180
   _sprintf
     ___bmul
     ___lwdiv
     ___lwmod
       ___lwdiv (ARG)
     _isdigit

 Address spaces:
Name               Size   Autos  Total    Cost      Usage
BANK3               60      0       0       9        0.0%
BITBANK3            60      0       0       8        0.0%
SFR3                 0      0       0       4        0.0%
BITSFR3              0      0       0       4        0.0%
BANK2               60      0       0      11        0.0%
BITBANK2            60      0       0      10        0.0%
SFR2                 0      0       0       5        0.0%
BITSFR2              0      0       0       5        0.0%
BANK1               50      0      3A       7       72.5%
BITBANK1            50      0       0       6        0.0%
SFR1                 0      0       0       2        0.0%
BITSFR1              0      0       0       2        0.0%
BANK0               50     17      4C       5       95.0%
BITBANK0            50      0       0       4        0.0%
SFR0                 0      0       0       1        0.0%
BITSFR0              0      0       0       1        0.0%
COMMON               E      E       E       1      100.0%
BITCOMMON            E      0       0       0        0.0%
CODE                 0      0       0       0        0.0%
DATA                 0      0      94      12        0.0%
ABS                  0      0      94       3        0.0%
NULL                 0      0       0       0        0.0%
STACK                0      0       0       2        0.0%
EEDATA             100      0       0       0        0.0%


Microchip Technology PIC Macro Assembler V2.00 build -1524193055 
Symbol Table                                                                                   Thu May 07 12:27:22 2020

                      LCD_CURSOR@a 0074                        LCD_CURSOR@b 0076  
                      LCD_CURSOR@d 0078                                  pc 0002  
                   ___bmul@product 0072                        __CFG_CP$OFF 0000  
                      _SSPSTATbits 0094                                 _BF 04A0  
                               l52 0DF2                                 l53 0DF2  
                               l61 0DAC                                 l54 0DFF  
                               l70 0F5D                                 l55 0DFF  
                               l71 0F60                                 l72 0F66  
                               l64 0DBE                                 l49 00CB  
                               l58 0DB5                                 l67 0DC8  
                               _ap 0020                                 _hr 002A  
                               fsr 0004                ___wmul@multiplicand 0072  
                              l210 0F36                                l211 0F37  
                              l212 0F37                                l221 0F74  
                              l222 0F98                                l223 0F7D  
                              l207 0E0F                                l215 0E21  
                              l312 0DE1                                l232 0FB1  
                              l224 0F77                                l400 07CE  
                              l233 0FCB                                l241 016F  
                              l225 0F88                                l234 0FCA  
                              l242 014C                                l226 0F98  
                              l218 0E94                                l410 0093  
                              l315 0D9B                                l235 0FCB  
                              l243 018C                                l403 0FD9  
                              l244 018C                                l404 0FFF  
                              l229 0EB8                                l309 0107  
                              l405 0FFF                                l238 0DF0  
                              l430 005A                                l431 005E  
                              l408 006C                                l600 0E69  
                              l425 0E5C                                l409 0093  
                              l601 0E73                                l610 022A  
                              l602 0E75                                l611 023A  
                              l612 0244                                l428 0053  
                              l380 06FB                                l372 04AA  
                              l605 023B                                l429 0053  
                              l381 0711                                l373 066F  
                              l606 01F9                                l550 0328  
                              l390 07B3                                l382 0727  
                              l374 0678                                l607 01EB  
                              l551 032D                                l383 073D  
                              l375 06D0                                l608 01FE  
                              l544 043B                                l560 037C  
                              l552 0333                                l392 07AE  
                              l384 077F                                l376 0754  
                              l609 01FF                                l561 0386  
                              l553 032E                                l545 02D2  
                              l393 07B8                                l385 0780  
                              l377 06D1                                l554 044F  
                              l570 043A                                l562 03AE  
                              l546 02E4                                l394 07C0  
                              l386 078B                                l378 076C  
                              l571 044E                                l563 03A3  
                              l555 032F                                l547 0329  
                              l395 07C2                                l387 078E  
                              l379 06E5                                l572 0454  
                              l564 03C5                                l556 0330  
                              l548 0317                                l396 07CA  
                              l388 0795                                l565 03E1  
                              l557 0352                                l549 02F7  
                              l397 07CC                                l389 079A  
                              l566 03E0                                l558 0331  
                              l398 07CD                                l575 0EBC  
                              l567 03F5                                l559 036C  
                              l399 07CE                                l576 0EC6  
                              l568 0430                                l577 0EDB  
                              l841 01D2                                l569 03F6  
                              l578 0EE0                                l842 01A4  
                              l843 0198                                l851 0143  
                              l844 01A9                                l852 011D  
                              l845 01AA                                l853 0111  
                              l846 01C3                                l854 0122  
                              l599 0E60                                l847 01D1  
                              l855 0123                                l848 01D7  
                              l856 0134                                l857 0142  
                              l858 0148                                _GIE 005F  
                              _PEN 048A                       __CFG_CPD$OFF 0000  
                              _SEN 0488                                _ala 0034  
                              _day 0028                                _var 0032  
                              fsr0 0004                                indf 0000  
                      LCD_STRING@a 0072                        LCD_STRING@n 0077  
                     __CFG_LVP$OFF 0000                               l1010 02A5  
                             l1011 0281                               l1012 02B2  
                             l1004 024C                               l1013 02C4  
                             l1005 0247                               l1014 02C9  
                             l1006 025E                               l1007 0272  
                             l1008 0280                               l1009 027F  
                             l2001 0DC4                               l1018 0E46  
                             l1019 0E48                               l2011 0F53  
                             l2003 0F38                               l2101 022A  
                             l2021 0E16                               l2013 0F59  
                             l2005 0F3D                               l2103 0233  
                             l2031 0E98                               l2023 0E1A  
                             l2015 0F61                               l2007 0F45  
                             l2111 018F                               l2105 023B  
                             l2033 0EA0                               l2041 0DE8  
                             l2025 0E1B                               l2017 0F66  
                             l2009 0F4E                               l2201 0102  
                             l2121 01AA                               l2113 0195  
                             l2211 0D9B                               l2107 0244  
                             l2035 0EAD                               l2043 0DED  
                             l2051 0E43                               l2027 0E1C  
                             l2019 0E11                               l2203 0107  
                             l2123 01BB                               l2115 0198  
                             l2131 01D2                               l2205 0DD6  
                             l2029 0E95                               l2037 0DE3  
                             l2061 0EC0                               l2053 0E46  
                             l2045 0E36                               l2221 0E58  
                             l2213 0E49                               l2133 01D7  
                             l2125 01C1                               l2117 019F  
                             l2109 018D                               l2141 0118  
                             l2301 0377                               l2207 0DE1  
                             l2039 0DE6                               l2063 0ECD  
                             l2055 0E48                               l2047 0E37  
                             l2231 0255                               l2223 0E59  
                             l2215 0E50                               l2071 0E5E  
                             l2127 01C3                               l2119 01A4  
                             l2151 013B                               l2143 011D  
                             l2135 0108                               l2311 03A3  
                             l2303 037C                               l2209 0D97  
                             l2161 009B                               l2065 0ED4  
                             l2057 0EB9                               l2049 0E3D  
                             l2241 027A                               l2233 025E  
                             l2225 0246                               l2217 0E54  
                             l2081 0E73                               l2073 0E60  
                             l2129 01CA                               l2145 0123  
                             l2137 010E                               l2153 0143  
                             l2321 03E1                               l2305 0385  
                             l2313 03AE                               l2401 04C6  
                             l2091 01F9                               l2163 00C8  
                             l2067 0EDB                               l2059 0EBC  
                             l2251 02B7                               l2243 0281  
                             l2235 0261                               l2227 0247  
                             l2219 0E55                               l2083 0E75  
                             l2075 0E64                               l2155 0148  
                             l2147 012D                               l2139 0111  
                             l2331 042B                               l2323 03E9  
                             l2315 03BE                               l2307 0386  
                             l2411 04F2                               l2403 04CB  
                             l2093 01FF                               l2085 01D8  
                             l2165 00C9                               l2157 0094  
                             l2181 0F9F                               l2069 0EE0  
                             l2253 02C3                               l2245 02A0  
                             l2237 0269                               l2229 024C  
                             l2077 0E69                               l2149 0134  
                             l2325 03F0                               l2333 0430  
                             l2317 03C5                               l2309 03A2  
                             l2261 02D2                               l2501 06FB  
                             l2421 051E                               l2413 04F7  
                             l2405 04D6                               l2095 0208  
                             l2087 01E8                               l2167 00CA  
                             l2159 0098                               l2183 0FA7  
                             l2191 0149                               l2255 02C4  
                             l2247 02A5                               l2239 0272  
                             l2351 0FCE                               l2079 0E6B  
                             l2327 03F6                               l2319 03D9  
                             l2271 02F1                               l2263 02D8  
                             l2335 043B                               l2511 0732  
                             l2503 0706                               l2431 055A  
                             l2423 0523                               l2415 0502  
                             l2407 04DB                               l2097 021A  
                             l2089 01EB                               l2185 0FB1  
                             l2193 014C                               l2257 02C9  
                             l2249 02B2                               l2177 0E76  
                             l2345 0052                               l2353 0FD8  
                             l2361 0061                               l2329 0424  
                             l2337 044F                               l2273 02F5  
                             l2281 0329                               l2265 02DF  
                             l2513 073D                               l2505 0711  
                             l2521 076C                               l2441 0593  
                             l2433 0560                               l2425 052E  
                             l2417 0507                               l2409 04E4  
                             l2099 0228                               l2187 0FB8  
                             l2179 0F99                               l2195 0168  
                             l2347 005A                               l2355 0FDC  
                             l2363 006B                               l2339 0454  
                             l2291 035E                               l2283 0332  
                             l2275 02F7                               l2267 02E4  
                             l2259 02CD                               l2531 0792  
                             l2523 0774                               l2515 0748  
                             l2507 071C                               l2451 05CE  
                             l2443 05A2                               l2435 0566  
                             l2427 053C                               l2419 0510  
                             l2189 0FC0                               l2197 016F  
                             l2357 0FE3                               l2349 0FCC  
                             l2365 006F                               l2293 0362  
                             l2285 0333                               l2277 0312  
                             l2269 02E5                               l2541 07B3  
                             l2533 0795                               l2525 0786  
                             l2517 0753                               l2509 0727  
                             l2461 060F                               l2453 05D9  
                             l2445 05AD                               l2437 0575  
                             l2429 054B                               l2381 0472  
                             l2373 0455                               l2199 00CC  
                             l2367 0078                               l2359 005F  
                             l2295 0366                               l2287 0352  
                             l2279 0317                               l2543 07B8  
                             l2535 079A                               l2527 078B  
                             l2519 0754                               l2471 0654  
                             l2463 061E                               l2455 05E4  
                             l2447 05B8                               l2439 0584  
                             l2391 0497                               l2383 0477  
                             l2375 045A                               l2297 036C  
                             l2289 035A                               l2545 07BE  
                             l2537 07A7                               l2529 078E  
                             l2481 0696                               l2473 0660  
                             l2465 062D                               l2457 05F1  
                             l2449 05C3                               l2393 04A0  
                             l2385 047C                               l2377 0464  
                             l2299 0371                               l2547 07C2  
                             l2539 07AE                               l2491 06C8  
                             l2483 06A3                               l2475 0666  
                             l2467 063C                               l2459 0600  
                             l2395 04AA                               l2387 0485  
                             l2379 0465                               l2549 07C8  
                             l2493 06D1                               l2485 06AC  
                             l2477 066F                               l2469 0649  
                             l2397 04AF                               l2389 048E  
                             l1951 0F77                               l1943 0F67  
                             l2495 06DA                               l2487 06B9  
                             l2479 0678                               l2399 04B8  
                             l1953 0F88                               l1945 0F69  
                             l1961 0E03                               l2497 06E5  
                             l2489 06C2                               l1947 0F73  
                             l1963 0E0C                               l1971 0F14  
                             l1955 0DF1                               l2499 06F0  
                             l1949 0F74                               l1981 0F28  
                             l1973 0F15                               l1965 0F0B  
                             l1957 0DF8                               l1959 0E00  
                             l1983 0F29                               l1975 0F16  
                             l1967 0F0F                               l1991 0DA4  
                             l2695 075B                               l1985 0F32  
                             l1977 0F1F                               l1969 0F13  
                             l1993 0DA9                               l2697 0347  
                             l1979 0F22                               l1987 0DAD  
                             l1995 0DB6                               l1989 0DB2  
                             l1997 0DBB                               l1999 0DBF  
                             STR_1 0046                               STR_2 0036  
                             STR_3 001D                               u1100 0E3D  
                             u1101 0E3C                               u1110 0E43  
                             u1030 0F72                               u1111 0E42  
                             u1031 0F71                               u1200 01FD  
                             u1120 0EC0                               u1040 0F87  
                             u1201 01FC                               u1121 0EBF  
                             u1041 0F86                               u1050 0F97  
                             u1051 0F96                               u1220 021A  
                             u1060 0DF8                               u1221 0219  
                             u1045 0F83                               u1061 0DF7  
                             u1150 0EDA                               u1070 0DFE  
                             u1310 01D0                               u1215 0201  
                             u1151 0ED9                               u1135 0EC7  
                             u1071 0DFD                               u1311 01CF  
                             u1240 0239                               u1400 0F9F  
                             u1080 0F28                               u1160 0E64  
                             u1320 010E                               u1241 0238  
                             u1225 0216                               u1401 0F9E  
                             u1145 0ECE                               u1081 0F27  
                             u1161 0E63                               u1305 01C4  
                             u1321 010D                               u1410 0FB8  
                             u1090 0F59                               u1170 0E72  
                             u1250 0195                               u1235 022B  
                             u1411 0FB7                               u1091 0F58  
                             u1171 0E71                               u1251 0194  
                             u1180 01E8                               u1420 0156  
                             u1500 02B1                               u1340 0121  
                             u1181 01E7                               u1501 02B0  
                             u1341 0120                               u1430 0179  
                             u1510 02B7                               u1270 01A8  
                             u1350 012D                               u1511 02B6  
                             u1271 01A7                               u1351 012C  
                             u1335 0112                               u1440 018B  
                             u1600 03AD                               u1520 02D8  
                             u1441 018A                               u1265 0199  
                             u1601 03AC                               u1521 02D7  
                             u1290 01BB                               u1370 0141  
                             u1610 03BE                               u1530 02F1  
                             u1195 01ED                               u1291 01BA  
                             u1371 0140                               u1355 0129  
                             u1611 03BD                               u1531 02F0  
                             u1380 00AB                               u1460 0255  
                             u1700 0092                               u1620 03D9  
                             u1540 0327                               u1461 0254  
                             u1701 0091                               u1285 01AB  
                             u1365 0135                               u1621 03D8  
                             u1541 0326                               u1470 025D  
                             u1630 03E9                               u1550 0362  
                             u1710 0666                               u1455 0DD9  
                             u1471 025C                               u1295 01B7  
                             u1631 03E8                               u1615 03BA  
                             u1551 0361                               u1711 0665  
                             u1480 0269                               u1640 0439  
                             u1560 0371                               u1720 06C8  
                             u1385 00A6                               u1481 0268  
                             u1641 0438                               u1625 03D5  
                             u1561 0370                               u1721 06C7  
                             u1490 027A                               u1650 044D  
                             u1570 0377                               u1730 0774  
                             u1491 0279                               u1651 044C  
                             u1571 0376                               u1731 0773  
                             u1660 0059                               u1580 0384  
                             u1740 0786                               u1661 0058  
                             u1581 0383                               u1741 0785  
                             u1670 0FD7                               u1590 03A1  
                             u1750 0792                               u1671 0FD6  
                             u1591 03A0                               u1751 0791  
                             u1807 04D1                               u1680 0FFE  
                             u1760 07A7                               u1681 0FFD  
                             u1761 07A6                               u1817 04FD  
                             u1690 006A                               u1770 07AD  
                             u1907 007F                               u1691 0069  
                             u1595 039D                               u1771 07AC  
                             u1827 0529                               u1780 07BE  
                             u1917 0FDE                               u1781 07BD  
                             u1765 07A3                               u1837 06E0  
                             u1790 07C8                               u1927 0FEA  
                             u1791 07C7                               u1847 06F6  
                             u1937 0DEB                               u1857 070C  
                             u1947 0E9C                               u1867 0722  
                             _PEIE 005E                               u1957 0EA9  
                             u1877 0738                               u1967 0EB4  
                             u1887 074E                               u1897 0073  
                             _RCEN 048B                               _RCIF 0065  
                     __CFG_WRT$OFF 0000                               _dday 0026  
                             _date 00C1   __end_of_I2C_Master_RepeatedStart 0DAD  
                             _atoi 0245                               _main 0455  
                             _mot1 003A                               _mot2 0038  
                             _mot3 0036                               _hour 002C  
                             _time 0060                               _year 0022  
                             btemp 007E                               start 0000  
                    __CFG_IESO$OFF 0000                  ___bmul@multiplier 0073  
                 __end_of_LCD_CHAR 0DF1                   __end_of_LCD_DATO 0EB9  
                 ?_I2C_Master_Init 0049                   ?_I2C_Master_Read 0070  
                 ?_I2C_Master_Wait 0070                   ?_I2C_Master_Stop 0070  
                            ?_atoi 0076                              ?_main 0070  
                     ?_read_ds1307 0076                              _ACKEN 048C  
                            _ACKDT 048D                      __CFG_WDTE$OFF 0000  
                            _ANSEL 0188                    __end_of___lldiv 0245  
                  __end_of___lwdiv 01D8                    __end_of___lwmod 0149  
                            _RCREG 001A                              _SPBRG 0099  
                            _PORTA 0005                              _PORTB 0006  
                            _PORTD 0008                              _TRISA 0085  
                            _TRISB 0086                              _TRISD 0088  
                            _SSPIE 0463                              _SSPIF 0063  
                            _TXREG 0019                __size_of_LCD_CURSOR 0033  
                   __CFG_FCMEN$OFF 0000                    __end_of_lcd_cmd 0E22  
                  __end_of_lcd_lat 0E10                              _abajo 00A0  
                            _delay 0F67                __size_of_LCD_STRING 0044  
                            _deter 0046                    __end_of_dpowers 001D  
                  __end_of_isdigit 0E49                              _month 0024  
                            _valor 00CA                              atoi@a 007B  
                            atoi@s 007D                     __CFG_BOREN$OFF 0000  
                            pclath 000A                              status 0003  
                            wtemp0 007E                    __end_of_sprintf 0455  
                   __CFG_MCLRE$OFF 0000                    __initialization 07D1  
                     __end_of_atoi 02CA                       __end_of_main 07D1  
                           ??_atoi 0078                             ??_main 005E  
                ?_I2C_Master_Start 0070                  ?_I2C_Master_Write 0070  
                           ?_delay 0070                 ??_I2C_Master_Start 0070  
               ??_I2C_Master_Write 0072                             _ANSELH 0189  
                           _SPBRGH 009A                             _SSPADD 0093  
                           _TRISC3 043B                             _TRISC4 043C  
                           _SSPCON 0014                             _SSPBUF 0013  
                   __CFG_PWRTE$OFF 0000           _I2C_Master_RepeatedStart 0DA4  
                 __end_of_lcd_init 0E95                             ___bmul 0E5D  
                           ___wmul 0EB9                          ??___lldiv 0078  
                        ??___lwdiv 0074                          ??___lwmod 007C  
                           _config 0E49                             _arriba 00B1  
                           _mandar 0052                             delay@i 0074  
                           delay@j 0072                             _minute 002E  
                           _second 0030                             _valor1 0044  
                           _valor2 0042                             _valor3 0040  
                           _valor4 003E                             _valor5 003C  
                           _servo0 0FCC                             _valorf 0048  
                        ??_lcd_cmd 0077                          ??_lcd_lat 0076  
                 __end_of_servo180 0094                          ??_isdigit 0070  
                        ??_sprintf 0054                          LCD_CHAR@a 0071  
                        ?_LCD_CHAR 0070                          ?_LCD_DATO 0070  
          __end_of__initialization 07FC                       ??_LCD_CURSOR 0078  
              ___bmul@multiplicand 0070                       ??_LCD_STRING 0074  
                   __pcstackCOMMON 0070                       __pidataBANK0 0DC9  
                     __pidataBANK1 0EE1                      __end_of_delay 0F99  
                    ??_BCD2LowerCh 0070               __size_of_read_ds1307 003C  
                    ??_BCD2UpperCh 0070                 __end_of_LCD_CURSOR 0FCC  
               __size_of_lcd_ready 002D                            ??_delay 0072  
               __end_of_LCD_STRING 018D                         __pbssBANK0 0020  
                       __pbssBANK1 00CA                         ??_LCD_CHAR 0070  
                       ??_LCD_DATO 0072                         __pmaintext 0455  
                          ?___bmul 0070                            ?___wmul 0070  
                          ?_config 0070                  read_ds1307@r_data 0078  
                          ?_mandar 0070                            _ACKSTAT 048E  
                          ?_servo0 0070                            _SSPCON2 0091  
              __end_of_BCD2LowerCh 0D9C                          ?_lcd_init 0070  
                          _SSPSTAT 0094                         __stringtab 0003  
              __end_of_BCD2UpperCh 0DE2                     BCD2LowerCh@bcd 0070  
                        ?_servo180 0070                  __end_of_lcd_ready 0F38  
                  __size_of___bmul 0019                            ___lldiv 01D8  
                  __size_of___wmul 0028                            ___lwdiv 018D  
                          ___lwmod 0108                    __size_of_config 0014  
                  __size_of_mandar 000D                            __ptext1 02CA  
                          __ptext2 0108                            __ptext3 018D  
                          __ptext4 0E5D                            __ptext5 005F  
                          __ptext6 0FCC                            __ptext7 00CC  
                          __ptext8 0DBF                            __ptext9 0DB6  
                  __size_of_servo0 0034                            _lcd_cmd 0E10  
                          _lcd_lat 0E00                            _dpowers 0013  
                          _isdigit 0E35                            delay@ms 0070  
         __size_of_I2C_Master_Init 0038           __size_of_I2C_Master_Read 002F  
         __size_of_I2C_Master_Wait 000F           __size_of_I2C_Master_Stop 0009  
                          _sprintf 02CA                            clrloop0 0D9D  
                       ??_lcd_init 0078               end_of_initialization 07FC  
       ??_I2C_Master_RepeatedStart 0070          __size_of_I2C_Master_Start 0009  
        __size_of_I2C_Master_Write 000A                    ___lldiv@divisor 0070  
                  ___lldiv@counter 007D                            servo0@i 0072  
                       ??_servo180 0070                          _RCSTAbits 0018  
                 I2C_Master_Init@c 0049                   I2C_Master_Read@a 0070  
                        _PORTAbits 0005                          _PORTCbits 0007  
                        _PORTDbits 0008                        _BCD2LowerCh 0D96  
                        _TRISCbits 0087                        _BCD2UpperCh 0DD5  
                        _TXSTAbits 0098                  __size_of_LCD_CHAR 000F  
                __size_of_LCD_DATO 0024                     BCD2UpperCh@bcd 0071  
                   __end_of___bmul 0E76                     __end_of___wmul 0EE1  
                      _BAUDCTLbits 0187                         mandar@dato 0070  
                   __end_of_config 0E5D                     __end_of_mandar 005F  
                   __end_of_servo0 1000                start_initialization 07D1  
                ??_I2C_Master_Init 004D                  ??_I2C_Master_Read 0072  
                ??_I2C_Master_Wait 0070                  ??_I2C_Master_Stop 0070  
         __CFG_FOSC$INTRC_NOCLKOUT 0000                           ??___bmul 0071  
                         ??___wmul 0074                         init_fetch0 0E22  
                         ??_config 0070                        __pdataBANK0 0060  
                      __pdataBANK1 00A0                           ??_mandar 0072  
                         ??_servo0 0070                      ??_read_ds1307 0078  
                        ___latbits 0002                      __pcstackBANK0 0049  
                     _isdigit$1143 0070                  __size_of_lcd_init 001F  
                      sprintf@flag 0058                        sprintf@prec 005C  
                 _I2C_Master_Start 0DAD                   _I2C_Master_Write 0DBF  
                 ___lwdiv@dividend 0072                           ?___lldiv 0070  
               read_ds1307@address 0076                  __size_of_servo180 0035  
                         ?___lwdiv 0070                           ?___lwmod 0078  
                        _lcd_ready 0F0B                          __pstrings 0003  
                         ?_lcd_cmd 0070                           ?_lcd_lat 0070  
                         ?_isdigit 0070                __end_of_read_ds1307 0108  
                 ___lwdiv@quotient 0075                     __size_of_delay 0032  
                         ?_sprintf 0049                           _LCD_CHAR 0DE2  
                         _LCD_DATO 0E95                     ___wmul@product 0074  
                        clear_ram0 0D9C                           _PIR1bits 000C  
                       ?_lcd_ready 0070                        __stringbase 0012  
                ___wmul@multiplier 0070                       ?_BCD2LowerCh 0070  
                     ?_BCD2UpperCh 0070                I2C_Master_Read@temp 0074  
__size_of_I2C_Master_RepeatedStart 0009          ?_I2C_Master_RepeatedStart 0070  
                 __size_of___lldiv 006D                   __size_of___lwdiv 004B  
                 __size_of___lwmod 0041                 __end_of__stringtab 0013  
                      _read_ds1307 00CC                   __size_of_lcd_cmd 0012  
                 __size_of_lcd_lat 0010                         sprintf@val 005A  
                  _I2C_Master_Init 0094                    _I2C_Master_Read 0F38  
                  _I2C_Master_Wait 0DF1                    _I2C_Master_Stop 0DB6  
                 __size_of_isdigit 0014                    ___lwdiv@divisor 0070  
                  ___lwdiv@counter 0077                           __ptext10 0DAD  
                         __ptext11 0DA4                           __ptext20 0E49  
                         __ptext12 0F38                           __ptext21 0245  
                         __ptext13 0DF1                           __ptext30 0DD5  
                         __ptext22 0E35                           __ptext14 0052  
                         __ptext31 0D96                           __ptext23 0EB9  
                         __ptext15 0E76                           __ptext24 0149  
                         __ptext16 0E10                           __ptext25 0DE2  
                         __ptext17 0F0B                           __ptext26 0F99  
                         __ptext18 0E00                           __ptext27 0E95  
                         __ptext19 0F67                           __ptext28 0094  
                         __ptext29 01D8                  __CFG_BOR4V$BOR40V 0000  
                         _lcd_init 0E76                   __size_of_sprintf 018B  
                    __size_of_atoi 0085                      __size_of_main 037C  
                        servo180@i 0072                         _LCD_CURSOR 0F99  
                         _servo180 005F                         _LCD_STRING 0149  
                         atoi@sign 007A                           lcd_cmd@x 0077  
                      ??_lcd_ready 0076           __end_of_I2C_Master_Start 0DB6  
         __end_of_I2C_Master_Write 0DC9                           init_ram0 0E26  
                         isdigit@c 0071                          sprintf@ap 0057  
                        sprintf@sp 0059                   ___lwmod@dividend 007A  
                 ___lldiv@dividend 0074                          stringcode 000D  
          __end_of_I2C_Master_Init 00CC            __end_of_I2C_Master_Read 0F67  
          __end_of_I2C_Master_Wait 0E00            __end_of_I2C_Master_Stop 0DBF  
                         sprintf@c 005D                           sprintf@f 0049  
                 ___lldiv@quotient 0079                  I2C_Master_Write@d 0070  
                  ___lwmod@divisor 0078                    ___lwmod@counter 007D  
                         stringdir 000D                           stringtab 0003  
             __size_of_BCD2LowerCh 0006                        _SSPCON2bits 0091  
             __size_of_BCD2UpperCh 000D                        LCD_DATO@var 0070  
                      ?_LCD_CURSOR 0074                        ?_LCD_STRING 0072  
